;automain.o:	file format mach-o arm64

;Disassembly of section __TEXT,__text:

0000000000000000 <ltmp0>:
       0: d101c3ff     	sub	sp, sp, #0x70
       4: a9067bfd     	stp	x29, x30, [sp, #0x60]
       8: 910183fd     	add	x29, sp, #0x60
       c: f90007e8     	str	x8, [sp, #0x8]
      10: aa0003e8     	mov	x8, x0
      14: f94007e0     	ldr	x0, [sp, #0x8]
      18: aa0003e9     	mov	x9, x0
      1c: f81f83a9     	stur	x9, [x29, #-0x8]
      20: f81f03a8     	stur	x8, [x29, #-0x10]
      24: 52800008     	mov	w8, #0x0                ; =0
      28: 12000108     	and	w8, w8, #0x1
      2c: 12000108     	and	w8, w8, #0x1
      30: 381ef3a8     	sturb	w8, [x29, #-0x11]
      34: f85f03a1     	ldur	x1, [x29, #-0x10]
      38: 94000000     	bl	0x38 <ltmp0+0x38>
      3c: f94007e0     	ldr	x0, [sp, #0x8]
      40: 94000000     	bl	0x40 <ltmp0+0x40>
      44: aa0003e8     	mov	x8, x0
      48: f94007e0     	ldr	x0, [sp, #0x8]
      4c: f81e03a8     	stur	x8, [x29, #-0x20]
      50: 94000000     	bl	0x50 <ltmp0+0x50>
      54: aa0003e8     	mov	x8, x0
      58: f94007e0     	ldr	x0, [sp, #0x8]
      5c: f81d83a8     	stur	x8, [x29, #-0x28]
      60: 94000000     	bl	0x60 <ltmp0+0x60>
      64: f9001be0     	str	x0, [sp, #0x30]
      68: f85e03a0     	ldur	x0, [x29, #-0x20]
      6c: f85d83a1     	ldur	x1, [x29, #-0x28]
      70: f9401be2     	ldr	x2, [sp, #0x30]
      74: 90000003     	adrp	x3, 0x0 <ltmp0>
      78: f9400063     	ldr	x3, [x3]
      7c: 94000000     	bl	0x7c <ltmp0+0x7c>
      80: f9000be0     	str	x0, [sp, #0x10]
      84: 14000001     	b	0x88 <ltmp0+0x88>
      88: f9400be8     	ldr	x8, [sp, #0x10]
      8c: f9000fe8     	str	x8, [sp, #0x18]
      90: 52800028     	mov	w8, #0x1                ; =1
      94: 12000108     	and	w8, w8, #0x1
      98: 12000108     	and	w8, w8, #0x1
      9c: 381ef3a8     	sturb	w8, [x29, #-0x11]
      a0: 385ef3a8     	ldurb	w8, [x29, #-0x11]
      a4: 37000188     	tbnz	w8, #0x0, 0xd4 <ltmp0+0xd4>
      a8: 14000008     	b	0xc8 <ltmp0+0xc8>
      ac: aa0003e8     	mov	x8, x0
      b0: f94007e0     	ldr	x0, [sp, #0x8]
      b4: f90017e8     	str	x8, [sp, #0x28]
      b8: aa0103e8     	mov	x8, x1
      bc: b90027e8     	str	w8, [sp, #0x24]
      c0: 94000000     	bl	0xc0 <ltmp0+0xc0>
      c4: 14000007     	b	0xe0 <ltmp0+0xe0>
      c8: f94007e0     	ldr	x0, [sp, #0x8]
      cc: 94000000     	bl	0xcc <ltmp0+0xcc>
      d0: 14000001     	b	0xd4 <ltmp0+0xd4>
      d4: a9467bfd     	ldp	x29, x30, [sp, #0x60]
      d8: 9101c3ff     	add	sp, sp, #0x70
      dc: d65f03c0     	ret
      e0: f94017e0     	ldr	x0, [sp, #0x28]
      e4: 94000000     	bl	0xe4 <ltmp0+0xe4>

00000000000000e8 <__ZNSt3__19transformB8ne180100INS_11__wrap_iterIPcEES3_PFiiEEET0_T_S7_S6_T1_>:
      e8: d10143ff     	sub	sp, sp, #0x50
      ec: a9047bfd     	stp	x29, x30, [sp, #0x40]
      f0: 910103fd     	add	x29, sp, #0x40
      f4: f81f03a0     	stur	x0, [x29, #-0x10]
      f8: f81e83a1     	stur	x1, [x29, #-0x18]
      fc: f90013e2     	str	x2, [sp, #0x20]
     100: f9000fe3     	str	x3, [sp, #0x18]
     104: 14000001     	b	0x108 <__ZNSt3__19transformB8ne180100INS_11__wrap_iterIPcEES3_PFiiEEET0_T_S7_S6_T1_+0x20>
     108: d10043a0     	sub	x0, x29, #0x10
     10c: d10063a1     	sub	x1, x29, #0x18
     110: 94000000     	bl	0x110 <__ZNSt3__19transformB8ne180100INS_11__wrap_iterIPcEES3_PFiiEEET0_T_S7_S6_T1_+0x28>
     114: 360002a0     	tbz	w0, #0x0, 0x168 <__ZNSt3__19transformB8ne180100INS_11__wrap_iterIPcEES3_PFiiEEET0_T_S7_S6_T1_+0x80>
     118: 14000001     	b	0x11c <__ZNSt3__19transformB8ne180100INS_11__wrap_iterIPcEES3_PFiiEEET0_T_S7_S6_T1_+0x34>
     11c: f9400fe8     	ldr	x8, [sp, #0x18]
     120: f90007e8     	str	x8, [sp, #0x8]
     124: d10043a0     	sub	x0, x29, #0x10
     128: 94000000     	bl	0x128 <__ZNSt3__19transformB8ne180100INS_11__wrap_iterIPcEES3_PFiiEEET0_T_S7_S6_T1_+0x40>
     12c: f94007e8     	ldr	x8, [sp, #0x8]
     130: 39c00000     	ldrsb	w0, [x0]
     134: d63f0100     	blr	x8
     138: b90017e0     	str	w0, [sp, #0x14]
     13c: 910083e0     	add	x0, sp, #0x20
     140: 94000000     	bl	0x140 <__ZNSt3__19transformB8ne180100INS_11__wrap_iterIPcEES3_PFiiEEET0_T_S7_S6_T1_+0x58>
     144: aa0003e8     	mov	x8, x0
     148: b94017e0     	ldr	w0, [sp, #0x14]
     14c: 39000100     	strb	w0, [x8]
     150: 14000001     	b	0x154 <__ZNSt3__19transformB8ne180100INS_11__wrap_iterIPcEES3_PFiiEEET0_T_S7_S6_T1_+0x6c>
     154: d10043a0     	sub	x0, x29, #0x10
     158: 94000000     	bl	0x158 <__ZNSt3__19transformB8ne180100INS_11__wrap_iterIPcEES3_PFiiEEET0_T_S7_S6_T1_+0x70>
     15c: 910083e0     	add	x0, sp, #0x20
     160: 94000000     	bl	0x160 <__ZNSt3__19transformB8ne180100INS_11__wrap_iterIPcEES3_PFiiEEET0_T_S7_S6_T1_+0x78>
     164: 17ffffe9     	b	0x108 <__ZNSt3__19transformB8ne180100INS_11__wrap_iterIPcEES3_PFiiEEET0_T_S7_S6_T1_+0x20>
     168: f94013e8     	ldr	x8, [sp, #0x20]
     16c: f81f83a8     	stur	x8, [x29, #-0x8]
     170: f85f83a0     	ldur	x0, [x29, #-0x8]
     174: a9447bfd     	ldp	x29, x30, [sp, #0x40]
     178: 910143ff     	add	sp, sp, #0x50
     17c: d65f03c0     	ret

0000000000000180 <__ZNSt3__112basic_stringIcNS_11char_traitsIcEENS_9allocatorIcEEE5beginB8ne180100Ev>:
     180: d100c3ff     	sub	sp, sp, #0x30
     184: a9027bfd     	stp	x29, x30, [sp, #0x20]
     188: 910083fd     	add	x29, sp, #0x20
     18c: f9000be0     	str	x0, [sp, #0x10]
     190: f9400be0     	ldr	x0, [sp, #0x10]
     194: f90003e0     	str	x0, [sp]
     198: 94000000     	bl	0x198 <__ZNSt3__112basic_stringIcNS_11char_traitsIcEENS_9allocatorIcEEE5beginB8ne180100Ev+0x18>
     19c: aa0003e1     	mov	x1, x0
     1a0: f94003e0     	ldr	x0, [sp]
     1a4: 94000000     	bl	0x1a4 <__ZNSt3__112basic_stringIcNS_11char_traitsIcEENS_9allocatorIcEEE5beginB8ne180100Ev+0x24>
     1a8: f90007e0     	str	x0, [sp, #0x8]
     1ac: 14000001     	b	0x1b0 <__ZNSt3__112basic_stringIcNS_11char_traitsIcEENS_9allocatorIcEEE5beginB8ne180100Ev+0x30>
     1b0: f94007e8     	ldr	x8, [sp, #0x8]
     1b4: f81f83a8     	stur	x8, [x29, #-0x8]
     1b8: f85f83a0     	ldur	x0, [x29, #-0x8]
     1bc: a9427bfd     	ldp	x29, x30, [sp, #0x20]
     1c0: 9100c3ff     	add	sp, sp, #0x30
     1c4: d65f03c0     	ret
     1c8: 94000000     	bl	0x1c8 <__ZNSt3__112basic_stringIcNS_11char_traitsIcEENS_9allocatorIcEEE5beginB8ne180100Ev+0x48>

00000000000001cc <__ZNSt3__112basic_stringIcNS_11char_traitsIcEENS_9allocatorIcEEE3endB8ne180100Ev>:
     1cc: d100c3ff     	sub	sp, sp, #0x30
     1d0: a9027bfd     	stp	x29, x30, [sp, #0x20]
     1d4: 910083fd     	add	x29, sp, #0x20
     1d8: f9000be0     	str	x0, [sp, #0x10]
     1dc: f9400be0     	ldr	x0, [sp, #0x10]
     1e0: f90007e0     	str	x0, [sp, #0x8]
     1e4: 94000000     	bl	0x1e4 <__ZNSt3__112basic_stringIcNS_11char_traitsIcEENS_9allocatorIcEEE3endB8ne180100Ev+0x18>
     1e8: aa0003e8     	mov	x8, x0
     1ec: f94007e0     	ldr	x0, [sp, #0x8]
     1f0: f90003e8     	str	x8, [sp]
     1f4: 94000000     	bl	0x1f4 <__ZNSt3__112basic_stringIcNS_11char_traitsIcEENS_9allocatorIcEEE3endB8ne180100Ev+0x28>
     1f8: f94003e8     	ldr	x8, [sp]
     1fc: aa0003e9     	mov	x9, x0
     200: f94007e0     	ldr	x0, [sp, #0x8]
     204: 8b090101     	add	x1, x8, x9
     208: 94000000     	bl	0x208 <__ZNSt3__112basic_stringIcNS_11char_traitsIcEENS_9allocatorIcEEE3endB8ne180100Ev+0x3c>
     20c: f81f83a0     	stur	x0, [x29, #-0x8]
     210: f85f83a0     	ldur	x0, [x29, #-0x8]
     214: a9427bfd     	ldp	x29, x30, [sp, #0x20]
     218: 9100c3ff     	add	sp, sp, #0x30
     21c: d65f03c0     	ret

0000000000000220 <__Z7toloweri>:
     220: d10083ff     	sub	sp, sp, #0x20
     224: a9017bfd     	stp	x29, x30, [sp, #0x10]
     228: 910043fd     	add	x29, sp, #0x10
     22c: b81fc3a0     	stur	w0, [x29, #-0x4]
     230: b85fc3a0     	ldur	w0, [x29, #-0x4]
     234: 94000000     	bl	0x234 <__Z7toloweri+0x14>
     238: a9417bfd     	ldp	x29, x30, [sp, #0x10]
     23c: 910083ff     	add	sp, sp, #0x20
     240: d65f03c0     	ret

0000000000000244 <__Z17readDownloadFilesv>:
     244: d10583ff     	sub	sp, sp, #0x160
     248: a9146ffc     	stp	x28, x27, [sp, #0x140]
     24c: a9157bfd     	stp	x29, x30, [sp, #0x150]
     250: 910543fd     	add	x29, sp, #0x150
     254: aa0803e0     	mov	x0, x8
     258: f90017e0     	str	x0, [sp, #0x28]
     25c: aa0003e8     	mov	x8, x0
     260: f81e83a8     	stur	x8, [x29, #-0x18]
     264: 52800008     	mov	w8, #0x0                ; =0
     268: 12000108     	and	w8, w8, #0x1
     26c: 12000108     	and	w8, w8, #0x1
     270: 381e73a8     	sturb	w8, [x29, #-0x19]
     274: 94000000     	bl	0x274 <__Z17readDownloadFilesv+0x30>
     278: 90000000     	adrp	x0, 0x0 <ltmp0>
     27c: 91000000     	add	x0, x0, #0x0
     280: 94000000     	bl	0x280 <__Z17readDownloadFilesv+0x3c>
     284: f9001be0     	str	x0, [sp, #0x30]
     288: 14000001     	b	0x28c <__Z17readDownloadFilesv+0x48>
     28c: f9401be8     	ldr	x8, [sp, #0x30]
     290: f81d83a8     	stur	x8, [x29, #-0x28]
     294: f85d83a8     	ldur	x8, [x29, #-0x28]
     298: f1000108     	subs	x8, x8, #0x0
     29c: 1a9f07e8     	cset	w8, ne
     2a0: 37000208     	tbnz	w8, #0x0, 0x2e0 <__Z17readDownloadFilesv+0x9c>
     2a4: 14000001     	b	0x2a8 <__Z17readDownloadFilesv+0x64>
     2a8: 90000000     	adrp	x0, 0x0 <ltmp0>
     2ac: f9400000     	ldr	x0, [x0]
     2b0: 90000001     	adrp	x1, 0x0 <ltmp0>
     2b4: 91000021     	add	x1, x1, #0x0
     2b8: 94000000     	bl	0x2b8 <__Z17readDownloadFilesv+0x74>
     2bc: 14000001     	b	0x2c0 <__Z17readDownloadFilesv+0x7c>
     2c0: 52800020     	mov	w0, #0x1                ; =1
     2c4: 94000000     	bl	0x2c4 <__Z17readDownloadFilesv+0x80>
     2c8: 14000001     	b	0x2cc <__Z17readDownloadFilesv+0x88>
     2cc: d4200020     	brk	#0x1
     2d0: f81d03a0     	stur	x0, [x29, #-0x30]
     2d4: aa0103e8     	mov	x8, x1
     2d8: b81cc3a8     	stur	w8, [x29, #-0x34]
     2dc: 140000b1     	b	0x5a0 <__Z17readDownloadFilesv+0x35c>
     2e0: f85d83a1     	ldur	x1, [x29, #-0x28]
     2e4: d101a3a0     	sub	x0, x29, #0x68
     2e8: 94000000     	bl	0x2e8 <__Z17readDownloadFilesv+0xa4>
     2ec: 14000001     	b	0x2f0 <__Z17readDownloadFilesv+0xac>
     2f0: d10143a8     	sub	x8, x29, #0x50
     2f4: d101a3a0     	sub	x0, x29, #0x68
     2f8: 90000001     	adrp	x1, 0x0 <ltmp0>
     2fc: 91000021     	add	x1, x1, #0x0
     300: 94000000     	bl	0x300 <__Z17readDownloadFilesv+0xbc>
     304: 14000001     	b	0x308 <__Z17readDownloadFilesv+0xc4>
     308: d101a3a0     	sub	x0, x29, #0x68
     30c: 94000000     	bl	0x30c <__Z17readDownloadFilesv+0xc8>
     310: d10263a0     	sub	x0, x29, #0x98
     314: d10143a1     	sub	x1, x29, #0x50
     318: 52800002     	mov	w2, #0x0                ; =0
     31c: 94000000     	bl	0x31c <__Z17readDownloadFilesv+0xd8>
     320: 14000001     	b	0x324 <__Z17readDownloadFilesv+0xe0>
     324: d10203a0     	sub	x0, x29, #0x80
     328: d10263a1     	sub	x1, x29, #0x98
     32c: 94000000     	bl	0x32c <__Z17readDownloadFilesv+0xe8>
     330: 14000001     	b	0x334 <__Z17readDownloadFilesv+0xf0>
     334: d10263a0     	sub	x0, x29, #0x98
     338: 94000000     	bl	0x338 <__Z17readDownloadFilesv+0xf4>
     33c: d10203a8     	sub	x8, x29, #0x80
     340: f81903a8     	stur	x8, [x29, #-0x70]
     344: f85903a1     	ldur	x1, [x29, #-0x70]
     348: 910263e0     	add	x0, sp, #0x98
     34c: f9000fe0     	str	x0, [sp, #0x18]
     350: 94000000     	bl	0x350 <__Z17readDownloadFilesv+0x10c>
     354: f9400fe0     	ldr	x0, [sp, #0x18]
     358: 9102a3e8     	add	x8, sp, #0xa8
     35c: 94000000     	bl	0x35c <__Z17readDownloadFilesv+0x118>
     360: f9400fe0     	ldr	x0, [sp, #0x18]
     364: 94000000     	bl	0x364 <__Z17readDownloadFilesv+0x120>
     368: f85903a1     	ldur	x1, [x29, #-0x70]
     36c: 9101e3e0     	add	x0, sp, #0x78
     370: f90013e0     	str	x0, [sp, #0x20]
     374: 94000000     	bl	0x374 <__Z17readDownloadFilesv+0x130>
     378: f94013e0     	ldr	x0, [sp, #0x20]
     37c: 910223e8     	add	x8, sp, #0x88
     380: 94000000     	bl	0x380 <__Z17readDownloadFilesv+0x13c>
     384: f94013e0     	ldr	x0, [sp, #0x20]
     388: 94000000     	bl	0x388 <__Z17readDownloadFilesv+0x144>
     38c: 14000001     	b	0x390 <__Z17readDownloadFilesv+0x14c>
     390: 9102a3e0     	add	x0, sp, #0xa8
     394: 910223e1     	add	x1, sp, #0x88
     398: 94000000     	bl	0x398 <__Z17readDownloadFilesv+0x154>
     39c: 37000320     	tbnz	w0, #0x0, 0x400 <__Z17readDownloadFilesv+0x1bc>
     3a0: 14000001     	b	0x3a4 <__Z17readDownloadFilesv+0x160>
     3a4: 910223e0     	add	x0, sp, #0x88
     3a8: 94000000     	bl	0x3a8 <__Z17readDownloadFilesv+0x164>
     3ac: 9102a3e0     	add	x0, sp, #0xa8
     3b0: 94000000     	bl	0x3b0 <__Z17readDownloadFilesv+0x16c>
     3b4: d10203a0     	sub	x0, x29, #0x80
     3b8: 94000000     	bl	0x3b8 <__Z17readDownloadFilesv+0x174>
     3bc: 1400005f     	b	0x538 <__Z17readDownloadFilesv+0x2f4>
     3c0: f81d03a0     	stur	x0, [x29, #-0x30]
     3c4: aa0103e8     	mov	x8, x1
     3c8: b81cc3a8     	stur	w8, [x29, #-0x34]
     3cc: d101a3a0     	sub	x0, x29, #0x68
     3d0: 94000000     	bl	0x3d0 <__Z17readDownloadFilesv+0x18c>
     3d4: 14000073     	b	0x5a0 <__Z17readDownloadFilesv+0x35c>
     3d8: f81d03a0     	stur	x0, [x29, #-0x30]
     3dc: aa0103e8     	mov	x8, x1
     3e0: b81cc3a8     	stur	w8, [x29, #-0x34]
     3e4: 14000043     	b	0x4f0 <__Z17readDownloadFilesv+0x2ac>
     3e8: f81d03a0     	stur	x0, [x29, #-0x30]
     3ec: aa0103e8     	mov	x8, x1
     3f0: b81cc3a8     	stur	w8, [x29, #-0x34]
     3f4: d10263a0     	sub	x0, x29, #0x98
     3f8: 94000000     	bl	0x3f8 <__Z17readDownloadFilesv+0x1b4>
     3fc: 1400003d     	b	0x4f0 <__Z17readDownloadFilesv+0x2ac>
     400: 9102a3e0     	add	x0, sp, #0xa8
     404: 94000000     	bl	0x404 <__Z17readDownloadFilesv+0x1c0>
     408: f9000be0     	str	x0, [sp, #0x10]
     40c: 14000001     	b	0x410 <__Z17readDownloadFilesv+0x1cc>
     410: f9400be8     	ldr	x8, [sp, #0x10]
     414: f9003be8     	str	x8, [sp, #0x70]
     418: f9403be0     	ldr	x0, [sp, #0x70]
     41c: 94000000     	bl	0x41c <__Z17readDownloadFilesv+0x1d8>
     420: 910103e8     	add	x8, sp, #0x40
     424: 94000000     	bl	0x424 <__Z17readDownloadFilesv+0x1e0>
     428: 14000001     	b	0x42c <__Z17readDownloadFilesv+0x1e8>
     42c: 910163e8     	add	x8, sp, #0x58
     430: 910103e0     	add	x0, sp, #0x40
     434: 94000000     	bl	0x434 <__Z17readDownloadFilesv+0x1f0>
     438: 14000001     	b	0x43c <__Z17readDownloadFilesv+0x1f8>
     43c: 910103e0     	add	x0, sp, #0x40
     440: 94000000     	bl	0x440 <__Z17readDownloadFilesv+0x1fc>
     444: f9403be0     	ldr	x0, [sp, #0x70]
     448: 94000000     	bl	0x448 <__Z17readDownloadFilesv+0x204>
     44c: 94000000     	bl	0x44c <__Z17readDownloadFilesv+0x208>
     450: b9000fe0     	str	w0, [sp, #0xc]
     454: 14000001     	b	0x458 <__Z17readDownloadFilesv+0x214>
     458: b9400fe8     	ldr	w8, [sp, #0xc]
     45c: 360002e8     	tbz	w8, #0x0, 0x4b8 <__Z17readDownloadFilesv+0x274>
     460: 14000001     	b	0x464 <__Z17readDownloadFilesv+0x220>
     464: f94017e0     	ldr	x0, [sp, #0x28]
     468: 910163e1     	add	x1, sp, #0x58
     46c: 94000000     	bl	0x46c <__Z17readDownloadFilesv+0x228>
     470: 14000001     	b	0x474 <__Z17readDownloadFilesv+0x230>
     474: 14000011     	b	0x4b8 <__Z17readDownloadFilesv+0x274>
     478: f81d03a0     	stur	x0, [x29, #-0x30]
     47c: aa0103e8     	mov	x8, x1
     480: b81cc3a8     	stur	w8, [x29, #-0x34]
     484: 14000014     	b	0x4d4 <__Z17readDownloadFilesv+0x290>
     488: f81d03a0     	stur	x0, [x29, #-0x30]
     48c: aa0103e8     	mov	x8, x1
     490: b81cc3a8     	stur	w8, [x29, #-0x34]
     494: 910103e0     	add	x0, sp, #0x40
     498: 94000000     	bl	0x498 <__Z17readDownloadFilesv+0x254>
     49c: 1400000e     	b	0x4d4 <__Z17readDownloadFilesv+0x290>
     4a0: f81d03a0     	stur	x0, [x29, #-0x30]
     4a4: aa0103e8     	mov	x8, x1
     4a8: b81cc3a8     	stur	w8, [x29, #-0x34]
     4ac: 910163e0     	add	x0, sp, #0x58
     4b0: 94000000     	bl	0x4b0 <__Z17readDownloadFilesv+0x26c>
     4b4: 14000008     	b	0x4d4 <__Z17readDownloadFilesv+0x290>
     4b8: 910163e0     	add	x0, sp, #0x58
     4bc: 94000000     	bl	0x4bc <__Z17readDownloadFilesv+0x278>
     4c0: 14000001     	b	0x4c4 <__Z17readDownloadFilesv+0x280>
     4c4: 9102a3e0     	add	x0, sp, #0xa8
     4c8: 94000000     	bl	0x4c8 <__Z17readDownloadFilesv+0x284>
     4cc: 14000001     	b	0x4d0 <__Z17readDownloadFilesv+0x28c>
     4d0: 17ffffb0     	b	0x390 <__Z17readDownloadFilesv+0x14c>
     4d4: 910223e0     	add	x0, sp, #0x88
     4d8: 94000000     	bl	0x4d8 <__Z17readDownloadFilesv+0x294>
     4dc: 9102a3e0     	add	x0, sp, #0xa8
     4e0: 94000000     	bl	0x4e0 <__Z17readDownloadFilesv+0x29c>
     4e4: d10203a0     	sub	x0, x29, #0x80
     4e8: 94000000     	bl	0x4e8 <__Z17readDownloadFilesv+0x2a4>
     4ec: 14000001     	b	0x4f0 <__Z17readDownloadFilesv+0x2ac>
     4f0: b85cc3a8     	ldur	w8, [x29, #-0x34]
     4f4: 71000508     	subs	w8, w8, #0x1
     4f8: 1a9f07e8     	cset	w8, ne
     4fc: 370003e8     	tbnz	w8, #0x0, 0x578 <__Z17readDownloadFilesv+0x334>
     500: 14000001     	b	0x504 <__Z17readDownloadFilesv+0x2c0>
     504: f85d03a0     	ldur	x0, [x29, #-0x30]
     508: 94000000     	bl	0x508 <__Z17readDownloadFilesv+0x2c4>
     50c: f9001fe0     	str	x0, [sp, #0x38]
     510: 90000000     	adrp	x0, 0x0 <ltmp0>
     514: f9400000     	ldr	x0, [x0]
     518: 90000001     	adrp	x1, 0x0 <ltmp0>
     51c: 91000021     	add	x1, x1, #0x0
     520: 94000000     	bl	0x520 <__Z17readDownloadFilesv+0x2dc>
     524: 14000001     	b	0x528 <__Z17readDownloadFilesv+0x2e4>
     528: 52800020     	mov	w0, #0x1                ; =1
     52c: 94000000     	bl	0x52c <__Z17readDownloadFilesv+0x2e8>
     530: 14000001     	b	0x534 <__Z17readDownloadFilesv+0x2f0>
     534: d4200020     	brk	#0x1
     538: 14000007     	b	0x554 <__Z17readDownloadFilesv+0x310>
     53c: f81d03a0     	stur	x0, [x29, #-0x30]
     540: aa0103e8     	mov	x8, x1
     544: b81cc3a8     	stur	w8, [x29, #-0x34]
     548: 94000000     	bl	0x548 <__Z17readDownloadFilesv+0x304>
     54c: 14000001     	b	0x550 <__Z17readDownloadFilesv+0x30c>
     550: 1400000a     	b	0x578 <__Z17readDownloadFilesv+0x334>
     554: 52800028     	mov	w8, #0x1                ; =1
     558: 12000108     	and	w8, w8, #0x1
     55c: 12000108     	and	w8, w8, #0x1
     560: 381e73a8     	sturb	w8, [x29, #-0x19]
     564: d10143a0     	sub	x0, x29, #0x50
     568: 94000000     	bl	0x568 <__Z17readDownloadFilesv+0x324>
     56c: 385e73a8     	ldurb	w8, [x29, #-0x19]
     570: 37000108     	tbnz	w8, #0x0, 0x590 <__Z17readDownloadFilesv+0x34c>
     574: 14000004     	b	0x584 <__Z17readDownloadFilesv+0x340>
     578: d10143a0     	sub	x0, x29, #0x50
     57c: 94000000     	bl	0x57c <__Z17readDownloadFilesv+0x338>
     580: 14000008     	b	0x5a0 <__Z17readDownloadFilesv+0x35c>
     584: f94017e0     	ldr	x0, [sp, #0x28]
     588: 94000000     	bl	0x588 <__Z17readDownloadFilesv+0x344>
     58c: 14000001     	b	0x590 <__Z17readDownloadFilesv+0x34c>
     590: a9557bfd     	ldp	x29, x30, [sp, #0x150]
     594: a9546ffc     	ldp	x28, x27, [sp, #0x140]
     598: 910583ff     	add	sp, sp, #0x160
     59c: d65f03c0     	ret
     5a0: f94017e0     	ldr	x0, [sp, #0x28]
     5a4: 94000000     	bl	0x5a4 <__Z17readDownloadFilesv+0x360>
     5a8: 14000001     	b	0x5ac <__Z17readDownloadFilesv+0x368>
     5ac: f85d03a0     	ldur	x0, [x29, #-0x30]
     5b0: 94000000     	bl	0x5b0 <__Z17readDownloadFilesv+0x36c>
     5b4: 94000000     	bl	0x5b4 <__Z17readDownloadFilesv+0x370>

00000000000005b8 <__ZNSt3__14listINS_12basic_stringIcNS_11char_traitsIcEENS_9allocatorIcEEEENS4_IS6_EEEC1B8ne180100Ev>:
     5b8: d10083ff     	sub	sp, sp, #0x20
     5bc: a9017bfd     	stp	x29, x30, [sp, #0x10]
     5c0: 910043fd     	add	x29, sp, #0x10
     5c4: f90007e0     	str	x0, [sp, #0x8]
     5c8: f94007e0     	ldr	x0, [sp, #0x8]
     5cc: f90003e0     	str	x0, [sp]
     5d0: 94000000     	bl	0x5d0 <__ZNSt3__14listINS_12basic_stringIcNS_11char_traitsIcEENS_9allocatorIcEEEENS4_IS6_EEEC1B8ne180100Ev+0x18>
     5d4: f94003e0     	ldr	x0, [sp]
     5d8: a9417bfd     	ldp	x29, x30, [sp, #0x10]
     5dc: 910083ff     	add	sp, sp, #0x20
     5e0: d65f03c0     	ret

00000000000005e4 <__ZNSt3__1lsB8ne180100INS_11char_traitsIcEEEERNS_13basic_ostreamIcT_EES6_PKc>:
     5e4: d100c3ff     	sub	sp, sp, #0x30
     5e8: a9027bfd     	stp	x29, x30, [sp, #0x20]
     5ec: 910083fd     	add	x29, sp, #0x20
     5f0: f81f83a0     	stur	x0, [x29, #-0x8]
     5f4: f9000be1     	str	x1, [sp, #0x10]
     5f8: f85f83a8     	ldur	x8, [x29, #-0x8]
     5fc: f90007e8     	str	x8, [sp, #0x8]
     600: f9400be8     	ldr	x8, [sp, #0x10]
     604: f90003e8     	str	x8, [sp]
     608: f9400be0     	ldr	x0, [sp, #0x10]
     60c: 94000000     	bl	0x60c <__ZNSt3__1lsB8ne180100INS_11char_traitsIcEEEERNS_13basic_ostreamIcT_EES6_PKc+0x28>
     610: f94003e1     	ldr	x1, [sp]
     614: aa0003e2     	mov	x2, x0
     618: f94007e0     	ldr	x0, [sp, #0x8]
     61c: 94000000     	bl	0x61c <__ZNSt3__1lsB8ne180100INS_11char_traitsIcEEEERNS_13basic_ostreamIcT_EES6_PKc+0x38>
     620: a9427bfd     	ldp	x29, x30, [sp, #0x20]
     624: 9100c3ff     	add	sp, sp, #0x30
     628: d65f03c0     	ret

000000000000062c <__ZNSt3__1plB8ne180100IcNS_11char_traitsIcEENS_9allocatorIcEEEENS_12basic_stringIT_T0_T1_EEOS9_PKS6_>:
     62c: d100c3ff     	sub	sp, sp, #0x30
     630: a9027bfd     	stp	x29, x30, [sp, #0x20]
     634: 910083fd     	add	x29, sp, #0x20
     638: f90003e8     	str	x8, [sp]
     63c: f81f83a8     	stur	x8, [x29, #-0x8]
     640: f9000be0     	str	x0, [sp, #0x10]
     644: f90007e1     	str	x1, [sp, #0x8]
     648: f9400be0     	ldr	x0, [sp, #0x10]
     64c: f94007e1     	ldr	x1, [sp, #0x8]
     650: 94000000     	bl	0x650 <__ZNSt3__1plB8ne180100IcNS_11char_traitsIcEENS_9allocatorIcEEEENS_12basic_stringIT_T0_T1_EEOS9_PKS6_+0x24>
     654: aa0003e1     	mov	x1, x0
     658: f94003e0     	ldr	x0, [sp]
     65c: 94000000     	bl	0x65c <__ZNSt3__1plB8ne180100IcNS_11char_traitsIcEENS_9allocatorIcEEEENS_12basic_stringIT_T0_T1_EEOS9_PKS6_+0x30>
     660: a9427bfd     	ldp	x29, x30, [sp, #0x20]
     664: 9100c3ff     	add	sp, sp, #0x30
     668: d65f03c0     	ret

000000000000066c <__ZNSt3__112basic_stringIcNS_11char_traitsIcEENS_9allocatorIcEEEC1B8ne180100ILi0EEEPKc>:
     66c: d100c3ff     	sub	sp, sp, #0x30
     670: a9027bfd     	stp	x29, x30, [sp, #0x20]
     674: 910083fd     	add	x29, sp, #0x20
     678: f81f83a0     	stur	x0, [x29, #-0x8]
     67c: f9000be1     	str	x1, [sp, #0x10]
     680: f85f83a0     	ldur	x0, [x29, #-0x8]
     684: f90007e0     	str	x0, [sp, #0x8]
     688: f9400be1     	ldr	x1, [sp, #0x10]
     68c: 94000000     	bl	0x68c <__ZNSt3__112basic_stringIcNS_11char_traitsIcEENS_9allocatorIcEEEC1B8ne180100ILi0EEEPKc+0x20>
     690: f94007e0     	ldr	x0, [sp, #0x8]
     694: a9427bfd     	ldp	x29, x30, [sp, #0x20]
     698: 9100c3ff     	add	sp, sp, #0x30
     69c: d65f03c0     	ret

00000000000006a0 <__ZNSt3__14__fs10filesystem4pathC1B8ne180100INS_12basic_stringIcNS_11char_traitsIcEENS_9allocatorIcEEEEvEERKT_NS2_6formatE>:
     6a0: d100c3ff     	sub	sp, sp, #0x30
     6a4: a9027bfd     	stp	x29, x30, [sp, #0x20]
     6a8: 910083fd     	add	x29, sp, #0x20
     6ac: f81f83a0     	stur	x0, [x29, #-0x8]
     6b0: f9000be1     	str	x1, [sp, #0x10]
     6b4: 39003fe2     	strb	w2, [sp, #0xf]
     6b8: f85f83a0     	ldur	x0, [x29, #-0x8]
     6bc: f90003e0     	str	x0, [sp]
     6c0: f9400be1     	ldr	x1, [sp, #0x10]
     6c4: 39403fe2     	ldrb	w2, [sp, #0xf]
     6c8: 94000000     	bl	0x6c8 <__ZNSt3__14__fs10filesystem4pathC1B8ne180100INS_12basic_stringIcNS_11char_traitsIcEENS_9allocatorIcEEEEvEERKT_NS2_6formatE+0x28>
     6cc: f94003e0     	ldr	x0, [sp]
     6d0: a9427bfd     	ldp	x29, x30, [sp, #0x20]
     6d4: 9100c3ff     	add	sp, sp, #0x30
     6d8: d65f03c0     	ret

00000000000006dc <__ZNSt3__14__fs10filesystem18directory_iteratorC1B8ne180100ERKNS1_4pathE>:
     6dc: d100c3ff     	sub	sp, sp, #0x30
     6e0: a9027bfd     	stp	x29, x30, [sp, #0x20]
     6e4: 910083fd     	add	x29, sp, #0x20
     6e8: f81f83a0     	stur	x0, [x29, #-0x8]
     6ec: f9000be1     	str	x1, [sp, #0x10]
     6f0: f85f83a0     	ldur	x0, [x29, #-0x8]
     6f4: f90007e0     	str	x0, [sp, #0x8]
     6f8: f9400be1     	ldr	x1, [sp, #0x10]
     6fc: d2800002     	mov	x2, #0x0                ; =0
     700: 52800003     	mov	w3, #0x0                ; =0
     704: 94000000     	bl	0x704 <__ZNSt3__14__fs10filesystem18directory_iteratorC1B8ne180100ERKNS1_4pathE+0x28>
     708: f94007e0     	ldr	x0, [sp, #0x8]
     70c: a9427bfd     	ldp	x29, x30, [sp, #0x20]
     710: 9100c3ff     	add	sp, sp, #0x30
     714: d65f03c0     	ret

0000000000000718 <__ZNSt3__14__fs10filesystem4pathD1B8ne180100Ev>:
     718: d10083ff     	sub	sp, sp, #0x20
     71c: a9017bfd     	stp	x29, x30, [sp, #0x10]
     720: 910043fd     	add	x29, sp, #0x10
     724: f90007e0     	str	x0, [sp, #0x8]
     728: f94007e0     	ldr	x0, [sp, #0x8]
     72c: f90003e0     	str	x0, [sp]
     730: 94000000     	bl	0x730 <__ZNSt3__14__fs10filesystem4pathD1B8ne180100Ev+0x18>
     734: f94003e0     	ldr	x0, [sp]
     738: a9417bfd     	ldp	x29, x30, [sp, #0x10]
     73c: 910083ff     	add	sp, sp, #0x20
     740: d65f03c0     	ret

0000000000000744 <__ZNSt3__14__fs10filesystem5beginB8ne180100ENS1_18directory_iteratorE>:
     744: d100c3ff     	sub	sp, sp, #0x30
     748: a9027bfd     	stp	x29, x30, [sp, #0x20]
     74c: 910083fd     	add	x29, sp, #0x20
     750: f90007e8     	str	x8, [sp, #0x8]
     754: aa0003e1     	mov	x1, x0
     758: f94007e0     	ldr	x0, [sp, #0x8]
     75c: aa0003e8     	mov	x8, x0
     760: f81f83a8     	stur	x8, [x29, #-0x8]
     764: aa0103e8     	mov	x8, x1
     768: f9000be8     	str	x8, [sp, #0x10]
     76c: 94000000     	bl	0x76c <__ZNSt3__14__fs10filesystem5beginB8ne180100ENS1_18directory_iteratorE+0x28>
     770: a9427bfd     	ldp	x29, x30, [sp, #0x20]
     774: 9100c3ff     	add	sp, sp, #0x30
     778: d65f03c0     	ret

000000000000077c <__ZNSt3__14__fs10filesystem18directory_iteratorC1B8ne180100ERKS2_>:
     77c: d100c3ff     	sub	sp, sp, #0x30
     780: a9027bfd     	stp	x29, x30, [sp, #0x20]
     784: 910083fd     	add	x29, sp, #0x20
     788: f81f83a0     	stur	x0, [x29, #-0x8]
     78c: f9000be1     	str	x1, [sp, #0x10]
     790: f85f83a0     	ldur	x0, [x29, #-0x8]
     794: f90007e0     	str	x0, [sp, #0x8]
     798: f9400be1     	ldr	x1, [sp, #0x10]
     79c: 94000000     	bl	0x79c <__ZNSt3__14__fs10filesystem18directory_iteratorC1B8ne180100ERKS2_+0x20>
     7a0: f94007e0     	ldr	x0, [sp, #0x8]
     7a4: a9427bfd     	ldp	x29, x30, [sp, #0x20]
     7a8: 9100c3ff     	add	sp, sp, #0x30
     7ac: d65f03c0     	ret

00000000000007b0 <__ZNSt3__14__fs10filesystem18directory_iteratorD1B8ne180100Ev>:
     7b0: d10083ff     	sub	sp, sp, #0x20
     7b4: a9017bfd     	stp	x29, x30, [sp, #0x10]
     7b8: 910043fd     	add	x29, sp, #0x10
     7bc: f90007e0     	str	x0, [sp, #0x8]
     7c0: f94007e0     	ldr	x0, [sp, #0x8]
     7c4: f90003e0     	str	x0, [sp]
     7c8: 94000000     	bl	0x7c8 <__ZNSt3__14__fs10filesystem18directory_iteratorD1B8ne180100Ev+0x18>
     7cc: f94003e0     	ldr	x0, [sp]
     7d0: a9417bfd     	ldp	x29, x30, [sp, #0x10]
     7d4: 910083ff     	add	sp, sp, #0x20
     7d8: d65f03c0     	ret

00000000000007dc <__ZNSt3__14__fs10filesystem3endB8ne180100ENS1_18directory_iteratorE>:
     7dc: d100c3ff     	sub	sp, sp, #0x30
     7e0: a9027bfd     	stp	x29, x30, [sp, #0x20]
     7e4: 910083fd     	add	x29, sp, #0x20
     7e8: f90007e8     	str	x8, [sp, #0x8]
     7ec: aa0003e8     	mov	x8, x0
     7f0: f94007e0     	ldr	x0, [sp, #0x8]
     7f4: aa0003e9     	mov	x9, x0
     7f8: f81f83a9     	stur	x9, [x29, #-0x8]
     7fc: f9000be8     	str	x8, [sp, #0x10]
     800: 94000000     	bl	0x800 <__ZNSt3__14__fs10filesystem3endB8ne180100ENS1_18directory_iteratorE+0x24>
     804: a9427bfd     	ldp	x29, x30, [sp, #0x20]
     808: 9100c3ff     	add	sp, sp, #0x30
     80c: d65f03c0     	ret

0000000000000810 <__ZNSt3__14__fs10filesystemneB8ne180100ERKNS1_18directory_iteratorES4_>:
     810: d10083ff     	sub	sp, sp, #0x20
     814: a9017bfd     	stp	x29, x30, [sp, #0x10]
     818: 910043fd     	add	x29, sp, #0x10
     81c: f90007e0     	str	x0, [sp, #0x8]
     820: f90003e1     	str	x1, [sp]
     824: f94007e0     	ldr	x0, [sp, #0x8]
     828: f94003e1     	ldr	x1, [sp]
     82c: 94000000     	bl	0x82c <__ZNSt3__14__fs10filesystemneB8ne180100ERKNS1_18directory_iteratorES4_+0x1c>
     830: 52000008     	eor	w8, w0, #0x1
     834: 12000100     	and	w0, w8, #0x1
     838: a9417bfd     	ldp	x29, x30, [sp, #0x10]
     83c: 910083ff     	add	sp, sp, #0x20
     840: d65f03c0     	ret

0000000000000844 <__ZNKSt3__14__fs10filesystem18directory_iteratordeB8ne180100Ev>:
     844: d10083ff     	sub	sp, sp, #0x20
     848: a9017bfd     	stp	x29, x30, [sp, #0x10]
     84c: 910043fd     	add	x29, sp, #0x10
     850: f90007e0     	str	x0, [sp, #0x8]
     854: f94007e0     	ldr	x0, [sp, #0x8]
     858: 94000000     	bl	0x858 <__ZNKSt3__14__fs10filesystem18directory_iteratordeB8ne180100Ev+0x14>
     85c: a9417bfd     	ldp	x29, x30, [sp, #0x10]
     860: 910083ff     	add	sp, sp, #0x20
     864: d65f03c0     	ret

0000000000000868 <__ZNKSt3__14__fs10filesystem15directory_entry4pathB8ne180100Ev>:
     868: d10043ff     	sub	sp, sp, #0x10
     86c: f90007e0     	str	x0, [sp, #0x8]
     870: f94007e0     	ldr	x0, [sp, #0x8]
     874: 910043ff     	add	sp, sp, #0x10
     878: d65f03c0     	ret

000000000000087c <__ZNKSt3__14__fs10filesystem4path8filenameB8ne180100Ev>:
     87c: d10183ff     	sub	sp, sp, #0x60
     880: a9057bfd     	stp	x29, x30, [sp, #0x50]
     884: 910143fd     	add	x29, sp, #0x50
     888: f90007e8     	str	x8, [sp, #0x8]
     88c: f81f83a8     	stur	x8, [x29, #-0x8]
     890: f81f03a0     	stur	x0, [x29, #-0x10]
     894: f85f03a0     	ldur	x0, [x29, #-0x10]
     898: 94000000     	bl	0x898 <__ZNKSt3__14__fs10filesystem4path8filenameB8ne180100Ev+0x1c>
     89c: aa0103e8     	mov	x8, x1
     8a0: 910063e1     	add	x1, sp, #0x18
     8a4: f9000fe0     	str	x0, [sp, #0x18]
     8a8: f90013e8     	str	x8, [sp, #0x20]
     8ac: 9100a3e0     	add	x0, sp, #0x28
     8b0: f9000be0     	str	x0, [sp, #0x10]
     8b4: 94000000     	bl	0x8b4 <__ZNKSt3__14__fs10filesystem4path8filenameB8ne180100Ev+0x38>
     8b8: f94007e0     	ldr	x0, [sp, #0x8]
     8bc: f9400be1     	ldr	x1, [sp, #0x10]
     8c0: 52800002     	mov	w2, #0x0                ; =0
     8c4: 94000000     	bl	0x8c4 <__ZNKSt3__14__fs10filesystem4path8filenameB8ne180100Ev+0x48>
     8c8: f9400be0     	ldr	x0, [sp, #0x10]
     8cc: 94000000     	bl	0x8cc <__ZNKSt3__14__fs10filesystem4path8filenameB8ne180100Ev+0x50>
     8d0: a9457bfd     	ldp	x29, x30, [sp, #0x50]
     8d4: 910183ff     	add	sp, sp, #0x60
     8d8: d65f03c0     	ret

00000000000008dc <__ZNKSt3__14__fs10filesystem4path6stringB8ne180100Ev>:
     8dc: d100c3ff     	sub	sp, sp, #0x30
     8e0: a9027bfd     	stp	x29, x30, [sp, #0x20]
     8e4: 910083fd     	add	x29, sp, #0x20
     8e8: f90007e8     	str	x8, [sp, #0x8]
     8ec: aa0003e8     	mov	x8, x0
     8f0: f94007e0     	ldr	x0, [sp, #0x8]
     8f4: aa0003e9     	mov	x9, x0
     8f8: f81f83a9     	stur	x9, [x29, #-0x8]
     8fc: f9000be8     	str	x8, [sp, #0x10]
     900: f9400be1     	ldr	x1, [sp, #0x10]
     904: 94000000     	bl	0x904 <__ZNKSt3__14__fs10filesystem4path6stringB8ne180100Ev+0x28>
     908: a9427bfd     	ldp	x29, x30, [sp, #0x20]
     90c: 9100c3ff     	add	sp, sp, #0x30
     910: d65f03c0     	ret

0000000000000914 <__ZNSt3__14__fs10filesystem15is_regular_fileB8ne180100ERKNS1_4pathE>:
     914: d100c3ff     	sub	sp, sp, #0x30
     918: a9027bfd     	stp	x29, x30, [sp, #0x20]
     91c: 910083fd     	add	x29, sp, #0x20
     920: f81f83a0     	stur	x0, [x29, #-0x8]
     924: f85f83a0     	ldur	x0, [x29, #-0x8]
     928: 910043e8     	add	x8, sp, #0x10
     92c: f90003e8     	str	x8, [sp]
     930: d2800001     	mov	x1, #0x0                ; =0
     934: 94000000     	bl	0x934 <__ZNSt3__14__fs10filesystem15is_regular_fileB8ne180100ERKNS1_4pathE+0x20>
     938: f94003e0     	ldr	x0, [sp]
     93c: 94000000     	bl	0x93c <__ZNSt3__14__fs10filesystem15is_regular_fileB8ne180100ERKNS1_4pathE+0x28>
     940: aa0003e8     	mov	x8, x0
     944: f94003e0     	ldr	x0, [sp]
     948: b9000fe8     	str	w8, [sp, #0xc]
     94c: 94000000     	bl	0x94c <__ZNSt3__14__fs10filesystem15is_regular_fileB8ne180100ERKNS1_4pathE+0x38>
     950: b9400fe0     	ldr	w0, [sp, #0xc]
     954: 12000000     	and	w0, w0, #0x1
     958: a9427bfd     	ldp	x29, x30, [sp, #0x20]
     95c: 9100c3ff     	add	sp, sp, #0x30
     960: d65f03c0     	ret

0000000000000964 <__ZNKSt3__14__fs10filesystem15directory_entrycvRKNS1_4pathEB8ne180100Ev>:
     964: d10043ff     	sub	sp, sp, #0x10
     968: f90007e0     	str	x0, [sp, #0x8]
     96c: f94007e0     	ldr	x0, [sp, #0x8]
     970: 910043ff     	add	sp, sp, #0x10
     974: d65f03c0     	ret

0000000000000978 <__ZNSt3__14listINS_12basic_stringIcNS_11char_traitsIcEENS_9allocatorIcEEEENS4_IS6_EEE9push_backERKS6_>:
     978: d10103ff     	sub	sp, sp, #0x40
     97c: a9037bfd     	stp	x29, x30, [sp, #0x30]
     980: 9100c3fd     	add	x29, sp, #0x30
     984: f81f83a0     	stur	x0, [x29, #-0x8]
     988: f81f03a1     	stur	x1, [x29, #-0x10]
     98c: f85f83a0     	ldur	x0, [x29, #-0x8]
     990: f90007e0     	str	x0, [sp, #0x8]
     994: f85f03a3     	ldur	x3, [x29, #-0x10]
     998: d2800002     	mov	x2, #0x0                ; =0
     99c: aa0203e1     	mov	x1, x2
     9a0: 94000000     	bl	0x9a0 <__ZNSt3__14listINS_12basic_stringIcNS_11char_traitsIcEENS_9allocatorIcEEEENS4_IS6_EEE9push_backERKS6_+0x28>
     9a4: f9000fe0     	str	x0, [sp, #0x18]
     9a8: f9400fe0     	ldr	x0, [sp, #0x18]
     9ac: 94000000     	bl	0x9ac <__ZNSt3__14listINS_12basic_stringIcNS_11char_traitsIcEENS_9allocatorIcEEEENS4_IS6_EEE9push_backERKS6_+0x34>
     9b0: aa0003e8     	mov	x8, x0
     9b4: f94007e0     	ldr	x0, [sp, #0x8]
     9b8: f9000be8     	str	x8, [sp, #0x10]
     9bc: f9400be1     	ldr	x1, [sp, #0x10]
     9c0: f9400be2     	ldr	x2, [sp, #0x10]
     9c4: 94000000     	bl	0x9c4 <__ZNSt3__14listINS_12basic_stringIcNS_11char_traitsIcEENS_9allocatorIcEEEENS4_IS6_EEE9push_backERKS6_+0x4c>
     9c8: f94007e0     	ldr	x0, [sp, #0x8]
     9cc: 94000000     	bl	0x9cc <__ZNSt3__14listINS_12basic_stringIcNS_11char_traitsIcEENS_9allocatorIcEEEENS4_IS6_EEE9push_backERKS6_+0x54>
     9d0: f9400008     	ldr	x8, [x0]
     9d4: 91000508     	add	x8, x8, #0x1
     9d8: f9000008     	str	x8, [x0]
     9dc: a9437bfd     	ldp	x29, x30, [sp, #0x30]
     9e0: 910103ff     	add	sp, sp, #0x40
     9e4: d65f03c0     	ret

00000000000009e8 <__ZNSt3__14__fs10filesystem18directory_iteratorppB8ne180100Ev>:
     9e8: d10083ff     	sub	sp, sp, #0x20
     9ec: a9017bfd     	stp	x29, x30, [sp, #0x10]
     9f0: 910043fd     	add	x29, sp, #0x10
     9f4: f90007e0     	str	x0, [sp, #0x8]
     9f8: f94007e0     	ldr	x0, [sp, #0x8]
     9fc: d2800001     	mov	x1, #0x0                ; =0
     a00: 94000000     	bl	0xa00 <__ZNSt3__14__fs10filesystem18directory_iteratorppB8ne180100Ev+0x18>
     a04: a9417bfd     	ldp	x29, x30, [sp, #0x10]
     a08: 910083ff     	add	sp, sp, #0x20
     a0c: d65f03c0     	ret

0000000000000a10 <___clang_call_terminate>:
     a10: a9bf7bfd     	stp	x29, x30, [sp, #-0x10]!
     a14: 910003fd     	mov	x29, sp
     a18: 94000000     	bl	0xa18 <___clang_call_terminate+0x8>
     a1c: 94000000     	bl	0xa1c <___clang_call_terminate+0xc>

0000000000000a20 <__ZNSt3__14listINS_12basic_stringIcNS_11char_traitsIcEENS_9allocatorIcEEEENS4_IS6_EEED1Ev>:
     a20: d10083ff     	sub	sp, sp, #0x20
     a24: a9017bfd     	stp	x29, x30, [sp, #0x10]
     a28: 910043fd     	add	x29, sp, #0x10
     a2c: f90007e0     	str	x0, [sp, #0x8]
     a30: f94007e0     	ldr	x0, [sp, #0x8]
     a34: f90003e0     	str	x0, [sp]
     a38: 94000000     	bl	0xa38 <__ZNSt3__14listINS_12basic_stringIcNS_11char_traitsIcEENS_9allocatorIcEEEENS4_IS6_EEED1Ev+0x18>
     a3c: f94003e0     	ldr	x0, [sp]
     a40: a9417bfd     	ldp	x29, x30, [sp, #0x10]
     a44: 910083ff     	add	sp, sp, #0x20
     a48: d65f03c0     	ret

0000000000000a4c <__Z19readDownloadFoldersv>:
     a4c: d10583ff     	sub	sp, sp, #0x160
     a50: a9146ffc     	stp	x28, x27, [sp, #0x140]
     a54: a9157bfd     	stp	x29, x30, [sp, #0x150]
     a58: 910543fd     	add	x29, sp, #0x150
     a5c: aa0803e0     	mov	x0, x8
     a60: f90017e0     	str	x0, [sp, #0x28]
     a64: aa0003e8     	mov	x8, x0
     a68: f81e83a8     	stur	x8, [x29, #-0x18]
     a6c: 52800008     	mov	w8, #0x0                ; =0
     a70: 12000108     	and	w8, w8, #0x1
     a74: 12000108     	and	w8, w8, #0x1
     a78: 381e73a8     	sturb	w8, [x29, #-0x19]
     a7c: 94000000     	bl	0xa7c <__Z19readDownloadFoldersv+0x30>
     a80: 90000000     	adrp	x0, 0x0 <ltmp0>
     a84: 91000000     	add	x0, x0, #0x0
     a88: 94000000     	bl	0xa88 <__Z19readDownloadFoldersv+0x3c>
     a8c: f9001be0     	str	x0, [sp, #0x30]
     a90: 14000001     	b	0xa94 <__Z19readDownloadFoldersv+0x48>
     a94: f9401be8     	ldr	x8, [sp, #0x30]
     a98: f81d83a8     	stur	x8, [x29, #-0x28]
     a9c: f85d83a8     	ldur	x8, [x29, #-0x28]
     aa0: f1000108     	subs	x8, x8, #0x0
     aa4: 1a9f07e8     	cset	w8, ne
     aa8: 37000208     	tbnz	w8, #0x0, 0xae8 <__Z19readDownloadFoldersv+0x9c>
     aac: 14000001     	b	0xab0 <__Z19readDownloadFoldersv+0x64>
     ab0: 90000000     	adrp	x0, 0x0 <ltmp0>
     ab4: f9400000     	ldr	x0, [x0]
     ab8: 90000001     	adrp	x1, 0x0 <ltmp0>
     abc: 91000021     	add	x1, x1, #0x0
     ac0: 94000000     	bl	0xac0 <__Z19readDownloadFoldersv+0x74>
     ac4: 14000001     	b	0xac8 <__Z19readDownloadFoldersv+0x7c>
     ac8: 52800020     	mov	w0, #0x1                ; =1
     acc: 94000000     	bl	0xacc <__Z19readDownloadFoldersv+0x80>
     ad0: 14000001     	b	0xad4 <__Z19readDownloadFoldersv+0x88>
     ad4: d4200020     	brk	#0x1
     ad8: f81d03a0     	stur	x0, [x29, #-0x30]
     adc: aa0103e8     	mov	x8, x1
     ae0: b81cc3a8     	stur	w8, [x29, #-0x34]
     ae4: 140000b0     	b	0xda4 <__Z19readDownloadFoldersv+0x358>
     ae8: f85d83a1     	ldur	x1, [x29, #-0x28]
     aec: d101a3a0     	sub	x0, x29, #0x68
     af0: 94000000     	bl	0xaf0 <__Z19readDownloadFoldersv+0xa4>
     af4: 14000001     	b	0xaf8 <__Z19readDownloadFoldersv+0xac>
     af8: d10143a8     	sub	x8, x29, #0x50
     afc: d101a3a0     	sub	x0, x29, #0x68
     b00: 90000001     	adrp	x1, 0x0 <ltmp0>
     b04: 91000021     	add	x1, x1, #0x0
     b08: 94000000     	bl	0xb08 <__Z19readDownloadFoldersv+0xbc>
     b0c: 14000001     	b	0xb10 <__Z19readDownloadFoldersv+0xc4>
     b10: d101a3a0     	sub	x0, x29, #0x68
     b14: 94000000     	bl	0xb14 <__Z19readDownloadFoldersv+0xc8>
     b18: d10263a0     	sub	x0, x29, #0x98
     b1c: d10143a1     	sub	x1, x29, #0x50
     b20: 52800002     	mov	w2, #0x0                ; =0
     b24: 94000000     	bl	0xb24 <__Z19readDownloadFoldersv+0xd8>
     b28: 14000001     	b	0xb2c <__Z19readDownloadFoldersv+0xe0>
     b2c: d10203a0     	sub	x0, x29, #0x80
     b30: d10263a1     	sub	x1, x29, #0x98
     b34: 94000000     	bl	0xb34 <__Z19readDownloadFoldersv+0xe8>
     b38: 14000001     	b	0xb3c <__Z19readDownloadFoldersv+0xf0>
     b3c: d10263a0     	sub	x0, x29, #0x98
     b40: 94000000     	bl	0xb40 <__Z19readDownloadFoldersv+0xf4>
     b44: d10203a8     	sub	x8, x29, #0x80
     b48: f81903a8     	stur	x8, [x29, #-0x70]
     b4c: f85903a1     	ldur	x1, [x29, #-0x70]
     b50: 910263e0     	add	x0, sp, #0x98
     b54: f9000fe0     	str	x0, [sp, #0x18]
     b58: 94000000     	bl	0xb58 <__Z19readDownloadFoldersv+0x10c>
     b5c: f9400fe0     	ldr	x0, [sp, #0x18]
     b60: 9102a3e8     	add	x8, sp, #0xa8
     b64: 94000000     	bl	0xb64 <__Z19readDownloadFoldersv+0x118>
     b68: f9400fe0     	ldr	x0, [sp, #0x18]
     b6c: 94000000     	bl	0xb6c <__Z19readDownloadFoldersv+0x120>
     b70: f85903a1     	ldur	x1, [x29, #-0x70]
     b74: 9101e3e0     	add	x0, sp, #0x78
     b78: f90013e0     	str	x0, [sp, #0x20]
     b7c: 94000000     	bl	0xb7c <__Z19readDownloadFoldersv+0x130>
     b80: f94013e0     	ldr	x0, [sp, #0x20]
     b84: 910223e8     	add	x8, sp, #0x88
     b88: 94000000     	bl	0xb88 <__Z19readDownloadFoldersv+0x13c>
     b8c: f94013e0     	ldr	x0, [sp, #0x20]
     b90: 94000000     	bl	0xb90 <__Z19readDownloadFoldersv+0x144>
     b94: 14000001     	b	0xb98 <__Z19readDownloadFoldersv+0x14c>
     b98: 9102a3e0     	add	x0, sp, #0xa8
     b9c: 910223e1     	add	x1, sp, #0x88
     ba0: 94000000     	bl	0xba0 <__Z19readDownloadFoldersv+0x154>
     ba4: 37000320     	tbnz	w0, #0x0, 0xc08 <__Z19readDownloadFoldersv+0x1bc>
     ba8: 14000001     	b	0xbac <__Z19readDownloadFoldersv+0x160>
     bac: 910223e0     	add	x0, sp, #0x88
     bb0: 94000000     	bl	0xbb0 <__Z19readDownloadFoldersv+0x164>
     bb4: 9102a3e0     	add	x0, sp, #0xa8
     bb8: 94000000     	bl	0xbb8 <__Z19readDownloadFoldersv+0x16c>
     bbc: d10203a0     	sub	x0, x29, #0x80
     bc0: 94000000     	bl	0xbc0 <__Z19readDownloadFoldersv+0x174>
     bc4: 1400005f     	b	0xd40 <__Z19readDownloadFoldersv+0x2f4>
     bc8: f81d03a0     	stur	x0, [x29, #-0x30]
     bcc: aa0103e8     	mov	x8, x1
     bd0: b81cc3a8     	stur	w8, [x29, #-0x34]
     bd4: d101a3a0     	sub	x0, x29, #0x68
     bd8: 94000000     	bl	0xbd8 <__Z19readDownloadFoldersv+0x18c>
     bdc: 14000072     	b	0xda4 <__Z19readDownloadFoldersv+0x358>
     be0: f81d03a0     	stur	x0, [x29, #-0x30]
     be4: aa0103e8     	mov	x8, x1
     be8: b81cc3a8     	stur	w8, [x29, #-0x34]
     bec: 14000043     	b	0xcf8 <__Z19readDownloadFoldersv+0x2ac>
     bf0: f81d03a0     	stur	x0, [x29, #-0x30]
     bf4: aa0103e8     	mov	x8, x1
     bf8: b81cc3a8     	stur	w8, [x29, #-0x34]
     bfc: d10263a0     	sub	x0, x29, #0x98
     c00: 94000000     	bl	0xc00 <__Z19readDownloadFoldersv+0x1b4>
     c04: 1400003d     	b	0xcf8 <__Z19readDownloadFoldersv+0x2ac>
     c08: 9102a3e0     	add	x0, sp, #0xa8
     c0c: 94000000     	bl	0xc0c <__Z19readDownloadFoldersv+0x1c0>
     c10: f9000be0     	str	x0, [sp, #0x10]
     c14: 14000001     	b	0xc18 <__Z19readDownloadFoldersv+0x1cc>
     c18: f9400be8     	ldr	x8, [sp, #0x10]
     c1c: f9003be8     	str	x8, [sp, #0x70]
     c20: f9403be0     	ldr	x0, [sp, #0x70]
     c24: 94000000     	bl	0xc24 <__Z19readDownloadFoldersv+0x1d8>
     c28: 910103e8     	add	x8, sp, #0x40
     c2c: 94000000     	bl	0xc2c <__Z19readDownloadFoldersv+0x1e0>
     c30: 14000001     	b	0xc34 <__Z19readDownloadFoldersv+0x1e8>
     c34: 910163e8     	add	x8, sp, #0x58
     c38: 910103e0     	add	x0, sp, #0x40
     c3c: 94000000     	bl	0xc3c <__Z19readDownloadFoldersv+0x1f0>
     c40: 14000001     	b	0xc44 <__Z19readDownloadFoldersv+0x1f8>
     c44: 910103e0     	add	x0, sp, #0x40
     c48: 94000000     	bl	0xc48 <__Z19readDownloadFoldersv+0x1fc>
     c4c: f9403be0     	ldr	x0, [sp, #0x70]
     c50: 94000000     	bl	0xc50 <__Z19readDownloadFoldersv+0x204>
     c54: 94000000     	bl	0xc54 <__Z19readDownloadFoldersv+0x208>
     c58: b9000fe0     	str	w0, [sp, #0xc]
     c5c: 14000001     	b	0xc60 <__Z19readDownloadFoldersv+0x214>
     c60: b9400fe8     	ldr	w8, [sp, #0xc]
     c64: 370002e8     	tbnz	w8, #0x0, 0xcc0 <__Z19readDownloadFoldersv+0x274>
     c68: 14000001     	b	0xc6c <__Z19readDownloadFoldersv+0x220>
     c6c: f94017e0     	ldr	x0, [sp, #0x28]
     c70: 910163e1     	add	x1, sp, #0x58
     c74: 94000000     	bl	0xc74 <__Z19readDownloadFoldersv+0x228>
     c78: 14000001     	b	0xc7c <__Z19readDownloadFoldersv+0x230>
     c7c: 14000011     	b	0xcc0 <__Z19readDownloadFoldersv+0x274>
     c80: f81d03a0     	stur	x0, [x29, #-0x30]
     c84: aa0103e8     	mov	x8, x1
     c88: b81cc3a8     	stur	w8, [x29, #-0x34]
     c8c: 14000014     	b	0xcdc <__Z19readDownloadFoldersv+0x290>
     c90: f81d03a0     	stur	x0, [x29, #-0x30]
     c94: aa0103e8     	mov	x8, x1
     c98: b81cc3a8     	stur	w8, [x29, #-0x34]
     c9c: 910103e0     	add	x0, sp, #0x40
     ca0: 94000000     	bl	0xca0 <__Z19readDownloadFoldersv+0x254>
     ca4: 1400000e     	b	0xcdc <__Z19readDownloadFoldersv+0x290>
     ca8: f81d03a0     	stur	x0, [x29, #-0x30]
     cac: aa0103e8     	mov	x8, x1
     cb0: b81cc3a8     	stur	w8, [x29, #-0x34]
     cb4: 910163e0     	add	x0, sp, #0x58
     cb8: 94000000     	bl	0xcb8 <__Z19readDownloadFoldersv+0x26c>
     cbc: 14000008     	b	0xcdc <__Z19readDownloadFoldersv+0x290>
     cc0: 910163e0     	add	x0, sp, #0x58
     cc4: 94000000     	bl	0xcc4 <__Z19readDownloadFoldersv+0x278>
     cc8: 14000001     	b	0xccc <__Z19readDownloadFoldersv+0x280>
     ccc: 9102a3e0     	add	x0, sp, #0xa8
     cd0: 94000000     	bl	0xcd0 <__Z19readDownloadFoldersv+0x284>
     cd4: 14000001     	b	0xcd8 <__Z19readDownloadFoldersv+0x28c>
     cd8: 17ffffb0     	b	0xb98 <__Z19readDownloadFoldersv+0x14c>
     cdc: 910223e0     	add	x0, sp, #0x88
     ce0: 94000000     	bl	0xce0 <__Z19readDownloadFoldersv+0x294>
     ce4: 9102a3e0     	add	x0, sp, #0xa8
     ce8: 94000000     	bl	0xce8 <__Z19readDownloadFoldersv+0x29c>
     cec: d10203a0     	sub	x0, x29, #0x80
     cf0: 94000000     	bl	0xcf0 <__Z19readDownloadFoldersv+0x2a4>
     cf4: 14000001     	b	0xcf8 <__Z19readDownloadFoldersv+0x2ac>
     cf8: b85cc3a8     	ldur	w8, [x29, #-0x34]
     cfc: 71000508     	subs	w8, w8, #0x1
     d00: 1a9f07e8     	cset	w8, ne
     d04: 370003c8     	tbnz	w8, #0x0, 0xd7c <__Z19readDownloadFoldersv+0x330>
     d08: 14000001     	b	0xd0c <__Z19readDownloadFoldersv+0x2c0>
     d0c: f85d03a0     	ldur	x0, [x29, #-0x30]
     d10: 94000000     	bl	0xd10 <__Z19readDownloadFoldersv+0x2c4>
     d14: f9001fe0     	str	x0, [sp, #0x38]
     d18: 90000000     	adrp	x0, 0x0 <ltmp0>
     d1c: f9400000     	ldr	x0, [x0]
     d20: 90000001     	adrp	x1, 0x0 <ltmp0>
     d24: 91000021     	add	x1, x1, #0x0
     d28: 94000000     	bl	0xd28 <__Z19readDownloadFoldersv+0x2dc>
     d2c: 14000001     	b	0xd30 <__Z19readDownloadFoldersv+0x2e4>
     d30: 52800020     	mov	w0, #0x1                ; =1
     d34: 94000000     	bl	0xd34 <__Z19readDownloadFoldersv+0x2e8>
     d38: 14000001     	b	0xd3c <__Z19readDownloadFoldersv+0x2f0>
     d3c: d4200020     	brk	#0x1
     d40: 52800028     	mov	w8, #0x1                ; =1
     d44: 12000108     	and	w8, w8, #0x1
     d48: 12000108     	and	w8, w8, #0x1
     d4c: 381e73a8     	sturb	w8, [x29, #-0x19]
     d50: d10143a0     	sub	x0, x29, #0x50
     d54: 94000000     	bl	0xd54 <__Z19readDownloadFoldersv+0x308>
     d58: 385e73a8     	ldurb	w8, [x29, #-0x19]
     d5c: 370001c8     	tbnz	w8, #0x0, 0xd94 <__Z19readDownloadFoldersv+0x348>
     d60: 1400000a     	b	0xd88 <__Z19readDownloadFoldersv+0x33c>
     d64: f81d03a0     	stur	x0, [x29, #-0x30]
     d68: aa0103e8     	mov	x8, x1
     d6c: b81cc3a8     	stur	w8, [x29, #-0x34]
     d70: 94000000     	bl	0xd70 <__Z19readDownloadFoldersv+0x324>
     d74: 14000001     	b	0xd78 <__Z19readDownloadFoldersv+0x32c>
     d78: 14000001     	b	0xd7c <__Z19readDownloadFoldersv+0x330>
     d7c: d10143a0     	sub	x0, x29, #0x50
     d80: 94000000     	bl	0xd80 <__Z19readDownloadFoldersv+0x334>
     d84: 14000008     	b	0xda4 <__Z19readDownloadFoldersv+0x358>
     d88: f94017e0     	ldr	x0, [sp, #0x28]
     d8c: 94000000     	bl	0xd8c <__Z19readDownloadFoldersv+0x340>
     d90: 14000001     	b	0xd94 <__Z19readDownloadFoldersv+0x348>
     d94: a9557bfd     	ldp	x29, x30, [sp, #0x150]
     d98: a9546ffc     	ldp	x28, x27, [sp, #0x140]
     d9c: 910583ff     	add	sp, sp, #0x160
     da0: d65f03c0     	ret
     da4: f94017e0     	ldr	x0, [sp, #0x28]
     da8: 94000000     	bl	0xda8 <__Z19readDownloadFoldersv+0x35c>
     dac: 14000001     	b	0xdb0 <__Z19readDownloadFoldersv+0x364>
     db0: f85d03a0     	ldur	x0, [x29, #-0x30]
     db4: 94000000     	bl	0xdb4 <__Z19readDownloadFoldersv+0x368>
     db8: 94000000     	bl	0xdb8 <__Z19readDownloadFoldersv+0x36c>

0000000000000dbc <__Z7findJPGv>:
     dbc: d10683ff     	sub	sp, sp, #0x1a0
     dc0: a9186ffc     	stp	x28, x27, [sp, #0x180]
     dc4: a9197bfd     	stp	x29, x30, [sp, #0x190]
     dc8: 910643fd     	add	x29, sp, #0x190
     dcc: d102e3a9     	sub	x9, x29, #0xb8
     dd0: f90023e9     	str	x9, [sp, #0x40]
     dd4: aa0803e0     	mov	x0, x8
     dd8: f90027e0     	str	x0, [sp, #0x48]
     ddc: aa0003e8     	mov	x8, x0
     de0: f9005128     	str	x8, [x9, #0xa0]
     de4: 52800008     	mov	w8, #0x0                ; =0
     de8: b90053e8     	str	w8, [sp, #0x50]
     dec: 12000108     	and	w8, w8, #0x1
     df0: 12000108     	and	w8, w8, #0x1
     df4: 381e73a8     	sturb	w8, [x29, #-0x19]
     df8: 94000000     	bl	0xdf8 <__Z7findJPGv+0x3c>
     dfc: b94053e2     	ldr	w2, [sp, #0x50]
     e00: d100e3a0     	sub	x0, x29, #0x38
     e04: 90000001     	adrp	x1, 0x0 <ltmp0>
     e08: 91000021     	add	x1, x1, #0x0
     e0c: 94000000     	bl	0xe0c <__Z7findJPGv+0x50>
     e10: 14000001     	b	0xe14 <__Z7findJPGv+0x58>
     e14: d101a3a8     	sub	x8, x29, #0x68
     e18: 94000000     	bl	0xe18 <__Z7findJPGv+0x5c>
     e1c: 14000001     	b	0xe20 <__Z7findJPGv+0x64>
     e20: f94023e8     	ldr	x8, [sp, #0x40]
     e24: d101a3a9     	sub	x9, x29, #0x68
     e28: f9003509     	str	x9, [x8, #0x68]
     e2c: f9403500     	ldr	x0, [x8, #0x68]
     e30: 94000000     	bl	0xe30 <__Z7findJPGv+0x74>
     e34: f94023e8     	ldr	x8, [sp, #0x40]
     e38: f9002500     	str	x0, [x8, #0x48]
     e3c: f9403500     	ldr	x0, [x8, #0x68]
     e40: 94000000     	bl	0xe40 <__Z7findJPGv+0x84>
     e44: f94023e8     	ldr	x8, [sp, #0x40]
     e48: f9002100     	str	x0, [x8, #0x40]
     e4c: 14000001     	b	0xe50 <__Z7findJPGv+0x94>
     e50: d101c3a0     	sub	x0, x29, #0x70
     e54: d101e3a1     	sub	x1, x29, #0x78
     e58: 94000000     	bl	0xe58 <__Z7findJPGv+0x9c>
     e5c: b9003fe0     	str	w0, [sp, #0x3c]
     e60: 14000001     	b	0xe64 <__Z7findJPGv+0xa8>
     e64: b9403fe8     	ldr	w8, [sp, #0x3c]
     e68: 37000288     	tbnz	w8, #0x0, 0xeb8 <__Z7findJPGv+0xfc>
     e6c: 14000001     	b	0xe70 <__Z7findJPGv+0xb4>
     e70: d101a3a0     	sub	x0, x29, #0x68
     e74: 94000000     	bl	0xe74 <__Z7findJPGv+0xb8>
     e78: 1400010a     	b	0x12a0 <__Z7findJPGv+0x4e4>
     e7c: f94023e9     	ldr	x9, [sp, #0x40]
     e80: f9003d20     	str	x0, [x9, #0x78]
     e84: aa0103e8     	mov	x8, x1
     e88: b9007528     	str	w8, [x9, #0x74]
     e8c: 1400013a     	b	0x1374 <__Z7findJPGv+0x5b8>
     e90: f94023e9     	ldr	x9, [sp, #0x40]
     e94: f9003d20     	str	x0, [x9, #0x78]
     e98: aa0103e8     	mov	x8, x1
     e9c: b9007528     	str	w8, [x9, #0x74]
     ea0: 1400012b     	b	0x134c <__Z7findJPGv+0x590>
     ea4: f94023e9     	ldr	x9, [sp, #0x40]
     ea8: f9003d20     	str	x0, [x9, #0x78]
     eac: aa0103e8     	mov	x8, x1
     eb0: b9007528     	str	w8, [x9, #0x74]
     eb4: 140000f8     	b	0x1294 <__Z7findJPGv+0x4d8>
     eb8: d101c3a0     	sub	x0, x29, #0x70
     ebc: 94000000     	bl	0xebc <__Z7findJPGv+0x100>
     ec0: f9001be0     	str	x0, [sp, #0x30]
     ec4: 14000001     	b	0xec8 <__Z7findJPGv+0x10c>
     ec8: f94023e9     	ldr	x9, [sp, #0x40]
     ecc: f9401be8     	ldr	x8, [sp, #0x30]
     ed0: f9001d28     	str	x8, [x9, #0x38]
     ed4: d10263a0     	sub	x0, x29, #0x98
     ed8: 90000001     	adrp	x1, 0x0 <ltmp0>
     edc: 91000021     	add	x1, x1, #0x0
     ee0: 94000000     	bl	0xee0 <__Z7findJPGv+0x124>
     ee4: 14000001     	b	0xee8 <__Z7findJPGv+0x12c>
     ee8: d102c3a8     	sub	x8, x29, #0xb0
     eec: d10263a0     	sub	x0, x29, #0x98
     ef0: 94000000     	bl	0xef0 <__Z7findJPGv+0x134>
     ef4: 14000001     	b	0xef8 <__Z7findJPGv+0x13c>
     ef8: f94023e8     	ldr	x8, [sp, #0x40]
     efc: f9401d00     	ldr	x0, [x8, #0x38]
     f00: d102c3a1     	sub	x1, x29, #0xb0
     f04: d2800002     	mov	x2, #0x0                ; =0
     f08: f90017e2     	str	x2, [sp, #0x28]
     f0c: 94000000     	bl	0xf0c <__Z7findJPGv+0x150>
     f10: f94017e2     	ldr	x2, [sp, #0x28]
     f14: f94023e8     	ldr	x8, [sp, #0x40]
     f18: aa0003e9     	mov	x9, x0
     f1c: b9000509     	str	w9, [x8, #0x4]
     f20: f9401d00     	ldr	x0, [x8, #0x38]
     f24: d10263a1     	sub	x1, x29, #0x98
     f28: 94000000     	bl	0xf28 <__Z7findJPGv+0x16c>
     f2c: f94017e2     	ldr	x2, [sp, #0x28]
     f30: f94023e8     	ldr	x8, [sp, #0x40]
     f34: aa0003e9     	mov	x9, x0
     f38: b9000109     	str	w9, [x8]
     f3c: f9401d00     	ldr	x0, [x8, #0x38]
     f40: 90000001     	adrp	x1, 0x0 <ltmp0>
     f44: 91000021     	add	x1, x1, #0x0
     f48: 94000000     	bl	0xf48 <__Z7findJPGv+0x18c>
     f4c: f94023e8     	ldr	x8, [sp, #0x40]
     f50: aa0003e9     	mov	x9, x0
     f54: b81443a9     	stur	w9, [x29, #-0xbc]
     f58: b9800508     	ldrsw	x8, [x8, #0x4]
     f5c: b1000508     	adds	x8, x8, #0x1
     f60: 1a9f17e8     	cset	w8, eq
     f64: 5280002a     	mov	w10, #0x1               ; =1
     f68: 52800009     	mov	w9, #0x0                ; =0
     f6c: 1200012b     	and	w11, w9, #0x1
     f70: 1200016b     	and	w11, w11, #0x1
     f74: 3902dfeb     	strb	w11, [sp, #0xb7]
     f78: 1200012b     	and	w11, w9, #0x1
     f7c: 0a0a016b     	and	w11, w11, w10
     f80: 39025feb     	strb	w11, [sp, #0x97]
     f84: 1200012b     	and	w11, w9, #0x1
     f88: 0a0a016b     	and	w11, w11, w10
     f8c: 3901dfeb     	strb	w11, [sp, #0x77]
     f90: 12000129     	and	w9, w9, #0x1
     f94: 0a0a0129     	and	w9, w9, w10
     f98: 39015fe9     	strb	w9, [sp, #0x57]
     f9c: 37000288     	tbnz	w8, #0x0, 0xfec <__Z7findJPGv+0x230>
     fa0: 14000001     	b	0xfa4 <__Z7findJPGv+0x1e8>
     fa4: f94023e8     	ldr	x8, [sp, #0x40]
     fa8: f9401d00     	ldr	x0, [x8, #0x38]
     fac: b9800501     	ldrsw	x1, [x8, #0x4]
     fb0: 9102e3e8     	add	x8, sp, #0xb8
     fb4: 92800002     	mov	x2, #-0x1               ; =-1
     fb8: 94000000     	bl	0xfb8 <__Z7findJPGv+0x1fc>
     fbc: 14000001     	b	0xfc0 <__Z7findJPGv+0x204>
     fc0: 52800028     	mov	w8, #0x1                ; =1
     fc4: 12000108     	and	w8, w8, #0x1
     fc8: 12000108     	and	w8, w8, #0x1
     fcc: 3902dfe8     	strb	w8, [sp, #0xb7]
     fd0: 9102e3e0     	add	x0, sp, #0xb8
     fd4: d102c3a1     	sub	x1, x29, #0xb0
     fd8: 94000000     	bl	0xfd8 <__Z7findJPGv+0x21c>
     fdc: 52800028     	mov	w8, #0x1                ; =1
     fe0: b90027e8     	str	w8, [sp, #0x24]
     fe4: 370009a0     	tbnz	w0, #0x0, 0x1118 <__Z7findJPGv+0x35c>
     fe8: 14000001     	b	0xfec <__Z7findJPGv+0x230>
     fec: f94023e8     	ldr	x8, [sp, #0x40]
     ff0: b9800108     	ldrsw	x8, [x8]
     ff4: b1000508     	adds	x8, x8, #0x1
     ff8: 1a9f17e8     	cset	w8, eq
     ffc: 37000288     	tbnz	w8, #0x0, 0x104c <__Z7findJPGv+0x290>
    1000: 14000001     	b	0x1004 <__Z7findJPGv+0x248>
    1004: f94023e8     	ldr	x8, [sp, #0x40]
    1008: f9401d00     	ldr	x0, [x8, #0x38]
    100c: b9800101     	ldrsw	x1, [x8]
    1010: 910263e8     	add	x8, sp, #0x98
    1014: 92800002     	mov	x2, #-0x1               ; =-1
    1018: 94000000     	bl	0x1018 <__Z7findJPGv+0x25c>
    101c: 14000001     	b	0x1020 <__Z7findJPGv+0x264>
    1020: 52800028     	mov	w8, #0x1                ; =1
    1024: 12000108     	and	w8, w8, #0x1
    1028: 12000108     	and	w8, w8, #0x1
    102c: 39025fe8     	strb	w8, [sp, #0x97]
    1030: 910263e0     	add	x0, sp, #0x98
    1034: d10263a1     	sub	x1, x29, #0x98
    1038: 94000000     	bl	0x1038 <__Z7findJPGv+0x27c>
    103c: 52800028     	mov	w8, #0x1                ; =1
    1040: b90027e8     	str	w8, [sp, #0x24]
    1044: 370006a0     	tbnz	w0, #0x0, 0x1118 <__Z7findJPGv+0x35c>
    1048: 14000001     	b	0x104c <__Z7findJPGv+0x290>
    104c: b89443a8     	ldursw	x8, [x29, #-0xbc]
    1050: b1000508     	adds	x8, x8, #0x1
    1054: 1a9f17e8     	cset	w8, eq
    1058: 370002a8     	tbnz	w8, #0x0, 0x10ac <__Z7findJPGv+0x2f0>
    105c: 14000001     	b	0x1060 <__Z7findJPGv+0x2a4>
    1060: f94023e8     	ldr	x8, [sp, #0x40]
    1064: f9401d00     	ldr	x0, [x8, #0x38]
    1068: b89443a1     	ldursw	x1, [x29, #-0xbc]
    106c: 9101e3e8     	add	x8, sp, #0x78
    1070: 92800002     	mov	x2, #-0x1               ; =-1
    1074: 94000000     	bl	0x1074 <__Z7findJPGv+0x2b8>
    1078: 14000001     	b	0x107c <__Z7findJPGv+0x2c0>
    107c: 52800028     	mov	w8, #0x1                ; =1
    1080: 12000108     	and	w8, w8, #0x1
    1084: 12000108     	and	w8, w8, #0x1
    1088: 3901dfe8     	strb	w8, [sp, #0x77]
    108c: 9101e3e0     	add	x0, sp, #0x78
    1090: 90000001     	adrp	x1, 0x1000 <__Z7findJPGv+0x244>
    1094: 91000021     	add	x1, x1, #0x0
    1098: 94000000     	bl	0x1098 <__Z7findJPGv+0x2dc>
    109c: 52800028     	mov	w8, #0x1                ; =1
    10a0: b90027e8     	str	w8, [sp, #0x24]
    10a4: 370003a0     	tbnz	w0, #0x0, 0x1118 <__Z7findJPGv+0x35c>
    10a8: 14000001     	b	0x10ac <__Z7findJPGv+0x2f0>
    10ac: b89443a8     	ldursw	x8, [x29, #-0xbc]
    10b0: b1000508     	adds	x8, x8, #0x1
    10b4: 1a9f17e8     	cset	w8, eq
    10b8: 52800000     	mov	w0, #0x0                ; =0
    10bc: b90023e0     	str	w0, [sp, #0x20]
    10c0: 37000268     	tbnz	w8, #0x0, 0x110c <__Z7findJPGv+0x350>
    10c4: 14000001     	b	0x10c8 <__Z7findJPGv+0x30c>
    10c8: f94023e8     	ldr	x8, [sp, #0x40]
    10cc: f9401d00     	ldr	x0, [x8, #0x38]
    10d0: b89443a1     	ldursw	x1, [x29, #-0xbc]
    10d4: 910163e8     	add	x8, sp, #0x58
    10d8: 92800002     	mov	x2, #-0x1               ; =-1
    10dc: 94000000     	bl	0x10dc <__Z7findJPGv+0x320>
    10e0: 14000001     	b	0x10e4 <__Z7findJPGv+0x328>
    10e4: 52800028     	mov	w8, #0x1                ; =1
    10e8: 12000108     	and	w8, w8, #0x1
    10ec: 12000108     	and	w8, w8, #0x1
    10f0: 39015fe8     	strb	w8, [sp, #0x57]
    10f4: 910163e0     	add	x0, sp, #0x58
    10f8: 90000001     	adrp	x1, 0x1000 <__Z7findJPGv+0x244>
    10fc: 91000021     	add	x1, x1, #0x0
    1100: 94000000     	bl	0x1100 <__Z7findJPGv+0x344>
    1104: b90023e0     	str	w0, [sp, #0x20]
    1108: 14000001     	b	0x110c <__Z7findJPGv+0x350>
    110c: b94023e8     	ldr	w8, [sp, #0x20]
    1110: b90027e8     	str	w8, [sp, #0x24]
    1114: 14000001     	b	0x1118 <__Z7findJPGv+0x35c>
    1118: b94027e8     	ldr	w8, [sp, #0x24]
    111c: b9001fe8     	str	w8, [sp, #0x1c]
    1120: 39415fe8     	ldrb	w8, [sp, #0x57]
    1124: 360000a8     	tbz	w8, #0x0, 0x1138 <__Z7findJPGv+0x37c>
    1128: 14000001     	b	0x112c <__Z7findJPGv+0x370>
    112c: 910163e0     	add	x0, sp, #0x58
    1130: 94000000     	bl	0x1130 <__Z7findJPGv+0x374>
    1134: 14000001     	b	0x1138 <__Z7findJPGv+0x37c>
    1138: 3941dfe8     	ldrb	w8, [sp, #0x77]
    113c: 360000a8     	tbz	w8, #0x0, 0x1150 <__Z7findJPGv+0x394>
    1140: 14000001     	b	0x1144 <__Z7findJPGv+0x388>
    1144: 9101e3e0     	add	x0, sp, #0x78
    1148: 94000000     	bl	0x1148 <__Z7findJPGv+0x38c>
    114c: 14000001     	b	0x1150 <__Z7findJPGv+0x394>
    1150: 39425fe8     	ldrb	w8, [sp, #0x97]
    1154: 360000a8     	tbz	w8, #0x0, 0x1168 <__Z7findJPGv+0x3ac>
    1158: 14000001     	b	0x115c <__Z7findJPGv+0x3a0>
    115c: 910263e0     	add	x0, sp, #0x98
    1160: 94000000     	bl	0x1160 <__Z7findJPGv+0x3a4>
    1164: 14000001     	b	0x1168 <__Z7findJPGv+0x3ac>
    1168: 3942dfe8     	ldrb	w8, [sp, #0xb7]
    116c: 360000a8     	tbz	w8, #0x0, 0x1180 <__Z7findJPGv+0x3c4>
    1170: 14000001     	b	0x1174 <__Z7findJPGv+0x3b8>
    1174: 9102e3e0     	add	x0, sp, #0xb8
    1178: 94000000     	bl	0x1178 <__Z7findJPGv+0x3bc>
    117c: 14000001     	b	0x1180 <__Z7findJPGv+0x3c4>
    1180: b9401fe8     	ldr	w8, [sp, #0x1c]
    1184: 360006a8     	tbz	w8, #0x0, 0x1258 <__Z7findJPGv+0x49c>
    1188: 14000001     	b	0x118c <__Z7findJPGv+0x3d0>
    118c: f94027e0     	ldr	x0, [sp, #0x48]
    1190: f94023e8     	ldr	x8, [sp, #0x40]
    1194: f9401d01     	ldr	x1, [x8, #0x38]
    1198: 94000000     	bl	0x1198 <__Z7findJPGv+0x3dc>
    119c: 14000001     	b	0x11a0 <__Z7findJPGv+0x3e4>
    11a0: 1400002e     	b	0x1258 <__Z7findJPGv+0x49c>
    11a4: f94023e9     	ldr	x9, [sp, #0x40]
    11a8: f9003d20     	str	x0, [x9, #0x78]
    11ac: aa0103e8     	mov	x8, x1
    11b0: b9007528     	str	w8, [x9, #0x74]
    11b4: 14000035     	b	0x1288 <__Z7findJPGv+0x4cc>
    11b8: f94023e9     	ldr	x9, [sp, #0x40]
    11bc: f9003d20     	str	x0, [x9, #0x78]
    11c0: aa0103e8     	mov	x8, x1
    11c4: b9007528     	str	w8, [x9, #0x74]
    11c8: 1400002d     	b	0x127c <__Z7findJPGv+0x4c0>
    11cc: f94023e9     	ldr	x9, [sp, #0x40]
    11d0: f9003d20     	str	x0, [x9, #0x78]
    11d4: aa0103e8     	mov	x8, x1
    11d8: b9007528     	str	w8, [x9, #0x74]
    11dc: 14000018     	b	0x123c <__Z7findJPGv+0x480>
    11e0: f94023e9     	ldr	x9, [sp, #0x40]
    11e4: f9003d20     	str	x0, [x9, #0x78]
    11e8: aa0103e8     	mov	x8, x1
    11ec: b9007528     	str	w8, [x9, #0x74]
    11f0: 1400000c     	b	0x1220 <__Z7findJPGv+0x464>
    11f4: f94023e9     	ldr	x9, [sp, #0x40]
    11f8: f9003d20     	str	x0, [x9, #0x78]
    11fc: aa0103e8     	mov	x8, x1
    1200: b9007528     	str	w8, [x9, #0x74]
    1204: 3941dfe8     	ldrb	w8, [sp, #0x77]
    1208: 360000a8     	tbz	w8, #0x0, 0x121c <__Z7findJPGv+0x460>
    120c: 14000001     	b	0x1210 <__Z7findJPGv+0x454>
    1210: 9101e3e0     	add	x0, sp, #0x78
    1214: 94000000     	bl	0x1214 <__Z7findJPGv+0x458>
    1218: 14000001     	b	0x121c <__Z7findJPGv+0x460>
    121c: 14000001     	b	0x1220 <__Z7findJPGv+0x464>
    1220: 39425fe8     	ldrb	w8, [sp, #0x97]
    1224: 360000a8     	tbz	w8, #0x0, 0x1238 <__Z7findJPGv+0x47c>
    1228: 14000001     	b	0x122c <__Z7findJPGv+0x470>
    122c: 910263e0     	add	x0, sp, #0x98
    1230: 94000000     	bl	0x1230 <__Z7findJPGv+0x474>
    1234: 14000001     	b	0x1238 <__Z7findJPGv+0x47c>
    1238: 14000001     	b	0x123c <__Z7findJPGv+0x480>
    123c: 3942dfe8     	ldrb	w8, [sp, #0xb7]
    1240: 360000a8     	tbz	w8, #0x0, 0x1254 <__Z7findJPGv+0x498>
    1244: 14000001     	b	0x1248 <__Z7findJPGv+0x48c>
    1248: 9102e3e0     	add	x0, sp, #0xb8
    124c: 94000000     	bl	0x124c <__Z7findJPGv+0x490>
    1250: 14000001     	b	0x1254 <__Z7findJPGv+0x498>
    1254: 1400000a     	b	0x127c <__Z7findJPGv+0x4c0>
    1258: d102c3a0     	sub	x0, x29, #0xb0
    125c: 94000000     	bl	0x125c <__Z7findJPGv+0x4a0>
    1260: d10263a0     	sub	x0, x29, #0x98
    1264: 94000000     	bl	0x1264 <__Z7findJPGv+0x4a8>
    1268: 14000001     	b	0x126c <__Z7findJPGv+0x4b0>
    126c: d101c3a0     	sub	x0, x29, #0x70
    1270: 94000000     	bl	0x1270 <__Z7findJPGv+0x4b4>
    1274: 14000001     	b	0x1278 <__Z7findJPGv+0x4bc>
    1278: 17fffef6     	b	0xe50 <__Z7findJPGv+0x94>
    127c: d102c3a0     	sub	x0, x29, #0xb0
    1280: 94000000     	bl	0x1280 <__Z7findJPGv+0x4c4>
    1284: 14000001     	b	0x1288 <__Z7findJPGv+0x4cc>
    1288: d10263a0     	sub	x0, x29, #0x98
    128c: 94000000     	bl	0x128c <__Z7findJPGv+0x4d0>
    1290: 14000001     	b	0x1294 <__Z7findJPGv+0x4d8>
    1294: d101a3a0     	sub	x0, x29, #0x68
    1298: 94000000     	bl	0x1298 <__Z7findJPGv+0x4dc>
    129c: 1400002c     	b	0x134c <__Z7findJPGv+0x590>
    12a0: 90000000     	adrp	x0, 0x1000 <__Z7findJPGv+0x244>
    12a4: f9400000     	ldr	x0, [x0]
    12a8: 90000001     	adrp	x1, 0x1000 <__Z7findJPGv+0x244>
    12ac: 91000021     	add	x1, x1, #0x0
    12b0: 94000000     	bl	0x12b0 <__Z7findJPGv+0x4f4>
    12b4: f9000be0     	str	x0, [sp, #0x10]
    12b8: 14000001     	b	0x12bc <__Z7findJPGv+0x500>
    12bc: f9400be0     	ldr	x0, [sp, #0x10]
    12c0: 90000001     	adrp	x1, 0x1000 <__Z7findJPGv+0x244>
    12c4: 91000021     	add	x1, x1, #0x0
    12c8: 94000000     	bl	0x12c8 <__Z7findJPGv+0x50c>
    12cc: 14000001     	b	0x12d0 <__Z7findJPGv+0x514>
    12d0: 52800040     	mov	w0, #0x2                ; =2
    12d4: 94000000     	bl	0x12d4 <__Z7findJPGv+0x518>
    12d8: 14000001     	b	0x12dc <__Z7findJPGv+0x520>
    12dc: f94027e0     	ldr	x0, [sp, #0x48]
    12e0: 94000000     	bl	0x12e0 <__Z7findJPGv+0x524>
    12e4: aa0003e1     	mov	x1, x0
    12e8: 90000000     	adrp	x0, 0x1000 <__Z7findJPGv+0x244>
    12ec: f9400000     	ldr	x0, [x0]
    12f0: 94000000     	bl	0x12f0 <__Z7findJPGv+0x534>
    12f4: f90007e0     	str	x0, [sp, #0x8]
    12f8: 14000001     	b	0x12fc <__Z7findJPGv+0x540>
    12fc: f94007e0     	ldr	x0, [sp, #0x8]
    1300: 90000001     	adrp	x1, 0x1000 <__Z7findJPGv+0x244>
    1304: 91000021     	add	x1, x1, #0x0
    1308: 94000000     	bl	0x1308 <__Z7findJPGv+0x54c>
    130c: f90003e0     	str	x0, [sp]
    1310: 14000001     	b	0x1314 <__Z7findJPGv+0x558>
    1314: f94003e0     	ldr	x0, [sp]
    1318: 90000001     	adrp	x1, 0x1000 <__Z7findJPGv+0x244>
    131c: 91000021     	add	x1, x1, #0x0
    1320: 94000000     	bl	0x1320 <__Z7findJPGv+0x564>
    1324: 14000001     	b	0x1328 <__Z7findJPGv+0x56c>
    1328: 52800028     	mov	w8, #0x1                ; =1
    132c: 12000108     	and	w8, w8, #0x1
    1330: 12000108     	and	w8, w8, #0x1
    1334: 381e73a8     	sturb	w8, [x29, #-0x19]
    1338: d100e3a0     	sub	x0, x29, #0x38
    133c: 94000000     	bl	0x133c <__Z7findJPGv+0x580>
    1340: 385e73a8     	ldurb	w8, [x29, #-0x19]
    1344: 37000108     	tbnz	w8, #0x0, 0x1364 <__Z7findJPGv+0x5a8>
    1348: 14000004     	b	0x1358 <__Z7findJPGv+0x59c>
    134c: d100e3a0     	sub	x0, x29, #0x38
    1350: 94000000     	bl	0x1350 <__Z7findJPGv+0x594>
    1354: 14000008     	b	0x1374 <__Z7findJPGv+0x5b8>
    1358: f94027e0     	ldr	x0, [sp, #0x48]
    135c: 94000000     	bl	0x135c <__Z7findJPGv+0x5a0>
    1360: 14000001     	b	0x1364 <__Z7findJPGv+0x5a8>
    1364: a9597bfd     	ldp	x29, x30, [sp, #0x190]
    1368: a9586ffc     	ldp	x28, x27, [sp, #0x180]
    136c: 910683ff     	add	sp, sp, #0x1a0
    1370: d65f03c0     	ret
    1374: f94027e0     	ldr	x0, [sp, #0x48]
    1378: 94000000     	bl	0x1378 <__Z7findJPGv+0x5bc>
    137c: 14000001     	b	0x1380 <__Z7findJPGv+0x5c4>
    1380: f94023e8     	ldr	x8, [sp, #0x40]
    1384: f9403d00     	ldr	x0, [x8, #0x78]
    1388: 94000000     	bl	0x1388 <__Z7findJPGv+0x5cc>

000000000000138c <__ZNSt3__14__fs10filesystem4pathC1B8ne180100IA7_cvEERKT_NS2_6formatE>:
    138c: d100c3ff     	sub	sp, sp, #0x30
    1390: a9027bfd     	stp	x29, x30, [sp, #0x20]
    1394: 910083fd     	add	x29, sp, #0x20
    1398: f81f83a0     	stur	x0, [x29, #-0x8]
    139c: f9000be1     	str	x1, [sp, #0x10]
    13a0: 39003fe2     	strb	w2, [sp, #0xf]
    13a4: f85f83a0     	ldur	x0, [x29, #-0x8]
    13a8: f90003e0     	str	x0, [sp]
    13ac: f9400be1     	ldr	x1, [sp, #0x10]
    13b0: 39403fe2     	ldrb	w2, [sp, #0xf]
    13b4: 94000000     	bl	0x13b4 <__ZNSt3__14__fs10filesystem4pathC1B8ne180100IA7_cvEERKT_NS2_6formatE+0x28>
    13b8: f94003e0     	ldr	x0, [sp]
    13bc: a9427bfd     	ldp	x29, x30, [sp, #0x20]
    13c0: 9100c3ff     	add	sp, sp, #0x30
    13c4: d65f03c0     	ret

00000000000013c8 <__ZNSt3__14listINS_12basic_stringIcNS_11char_traitsIcEENS_9allocatorIcEEEENS4_IS6_EEE5beginB8ne180100Ev>:
    13c8: d10083ff     	sub	sp, sp, #0x20
    13cc: a9017bfd     	stp	x29, x30, [sp, #0x10]
    13d0: 910043fd     	add	x29, sp, #0x10
    13d4: f90003e0     	str	x0, [sp]
    13d8: f94003e0     	ldr	x0, [sp]
    13dc: 94000000     	bl	0x13dc <__ZNSt3__14listINS_12basic_stringIcNS_11char_traitsIcEENS_9allocatorIcEEEENS4_IS6_EEE5beginB8ne180100Ev+0x14>
    13e0: f90007e0     	str	x0, [sp, #0x8]
    13e4: f94007e0     	ldr	x0, [sp, #0x8]
    13e8: a9417bfd     	ldp	x29, x30, [sp, #0x10]
    13ec: 910083ff     	add	sp, sp, #0x20
    13f0: d65f03c0     	ret

00000000000013f4 <__ZNSt3__14listINS_12basic_stringIcNS_11char_traitsIcEENS_9allocatorIcEEEENS4_IS6_EEE3endB8ne180100Ev>:
    13f4: d10083ff     	sub	sp, sp, #0x20
    13f8: a9017bfd     	stp	x29, x30, [sp, #0x10]
    13fc: 910043fd     	add	x29, sp, #0x10
    1400: f90003e0     	str	x0, [sp]
    1404: f94003e0     	ldr	x0, [sp]
    1408: 94000000     	bl	0x1408 <__ZNSt3__14listINS_12basic_stringIcNS_11char_traitsIcEENS_9allocatorIcEEEENS4_IS6_EEE3endB8ne180100Ev+0x14>
    140c: f90007e0     	str	x0, [sp, #0x8]
    1410: f94007e0     	ldr	x0, [sp, #0x8]
    1414: a9417bfd     	ldp	x29, x30, [sp, #0x10]
    1418: 910083ff     	add	sp, sp, #0x20
    141c: d65f03c0     	ret

0000000000001420 <__ZNSt3__1neB8ne180100ERKNS_15__list_iteratorINS_12basic_stringIcNS_11char_traitsIcEENS_9allocatorIcEEEEPvEESA_>:
    1420: d10083ff     	sub	sp, sp, #0x20
    1424: a9017bfd     	stp	x29, x30, [sp, #0x10]
    1428: 910043fd     	add	x29, sp, #0x10
    142c: f90007e0     	str	x0, [sp, #0x8]
    1430: f90003e1     	str	x1, [sp]
    1434: f94007e0     	ldr	x0, [sp, #0x8]
    1438: f94003e1     	ldr	x1, [sp]
    143c: 94000000     	bl	0x143c <__ZNSt3__1neB8ne180100ERKNS_15__list_iteratorINS_12basic_stringIcNS_11char_traitsIcEENS_9allocatorIcEEEEPvEESA_+0x1c>
    1440: 52000008     	eor	w8, w0, #0x1
    1444: 12000100     	and	w0, w8, #0x1
    1448: a9417bfd     	ldp	x29, x30, [sp, #0x10]
    144c: 910083ff     	add	sp, sp, #0x20
    1450: d65f03c0     	ret

0000000000001454 <__ZNKSt3__115__list_iteratorINS_12basic_stringIcNS_11char_traitsIcEENS_9allocatorIcEEEEPvEdeB8ne180100Ev>:
    1454: d10083ff     	sub	sp, sp, #0x20
    1458: a9017bfd     	stp	x29, x30, [sp, #0x10]
    145c: 910043fd     	add	x29, sp, #0x10
    1460: f90007e0     	str	x0, [sp, #0x8]
    1464: f94007e8     	ldr	x8, [sp, #0x8]
    1468: f9400100     	ldr	x0, [x8]
    146c: 94000000     	bl	0x146c <__ZNKSt3__115__list_iteratorINS_12basic_stringIcNS_11char_traitsIcEENS_9allocatorIcEEEEPvEdeB8ne180100Ev+0x18>
    1470: 94000000     	bl	0x1470 <__ZNKSt3__115__list_iteratorINS_12basic_stringIcNS_11char_traitsIcEENS_9allocatorIcEEEEPvEdeB8ne180100Ev+0x1c>
    1474: a9417bfd     	ldp	x29, x30, [sp, #0x10]
    1478: 910083ff     	add	sp, sp, #0x20
    147c: d65f03c0     	ret

0000000000001480 <__ZNKSt3__112basic_stringIcNS_11char_traitsIcEENS_9allocatorIcEEE4findB8ne180100ERKS5_m>:
    1480: d10143ff     	sub	sp, sp, #0x50
    1484: a9047bfd     	stp	x29, x30, [sp, #0x40]
    1488: 910103fd     	add	x29, sp, #0x40
    148c: f81f83a0     	stur	x0, [x29, #-0x8]
    1490: f81f03a1     	stur	x1, [x29, #-0x10]
    1494: f81e83a2     	stur	x2, [x29, #-0x18]
    1498: f85f83a0     	ldur	x0, [x29, #-0x8]
    149c: f90003e0     	str	x0, [sp]
    14a0: 94000000     	bl	0x14a0 <__ZNKSt3__112basic_stringIcNS_11char_traitsIcEENS_9allocatorIcEEE4findB8ne180100ERKS5_m+0x20>
    14a4: aa0003e1     	mov	x1, x0
    14a8: f94003e0     	ldr	x0, [sp]
    14ac: f90013e1     	str	x1, [sp, #0x20]
    14b0: 94000000     	bl	0x14b0 <__ZNKSt3__112basic_stringIcNS_11char_traitsIcEENS_9allocatorIcEEE4findB8ne180100ERKS5_m+0x30>
    14b4: f90007e0     	str	x0, [sp, #0x8]
    14b8: f85f03a0     	ldur	x0, [x29, #-0x10]
    14bc: 94000000     	bl	0x14bc <__ZNKSt3__112basic_stringIcNS_11char_traitsIcEENS_9allocatorIcEEE4findB8ne180100ERKS5_m+0x3c>
    14c0: f9000be0     	str	x0, [sp, #0x10]
    14c4: f85e83a8     	ldur	x8, [x29, #-0x18]
    14c8: f9000fe8     	str	x8, [sp, #0x18]
    14cc: f85f03a0     	ldur	x0, [x29, #-0x10]
    14d0: 94000000     	bl	0x14d0 <__ZNKSt3__112basic_stringIcNS_11char_traitsIcEENS_9allocatorIcEEE4findB8ne180100ERKS5_m+0x50>
    14d4: f94007e1     	ldr	x1, [sp, #0x8]
    14d8: f9400be2     	ldr	x2, [sp, #0x10]
    14dc: f9400fe3     	ldr	x3, [sp, #0x18]
    14e0: aa0003e4     	mov	x4, x0
    14e4: f94013e0     	ldr	x0, [sp, #0x20]
    14e8: 94000000     	bl	0x14e8 <__ZNKSt3__112basic_stringIcNS_11char_traitsIcEENS_9allocatorIcEEE4findB8ne180100ERKS5_m+0x68>
    14ec: a9447bfd     	ldp	x29, x30, [sp, #0x40]
    14f0: 910143ff     	add	sp, sp, #0x50
    14f4: d65f03c0     	ret

00000000000014f8 <__ZNKSt3__112basic_stringIcNS_11char_traitsIcEENS_9allocatorIcEEE4findB8ne180100EPKcm>:
    14f8: d10143ff     	sub	sp, sp, #0x50
    14fc: a9047bfd     	stp	x29, x30, [sp, #0x40]
    1500: 910103fd     	add	x29, sp, #0x40
    1504: f81f83a0     	stur	x0, [x29, #-0x8]
    1508: f81f03a1     	stur	x1, [x29, #-0x10]
    150c: f81e83a2     	stur	x2, [x29, #-0x18]
    1510: f85f83a0     	ldur	x0, [x29, #-0x8]
    1514: f90003e0     	str	x0, [sp]
    1518: 94000000     	bl	0x1518 <__ZNKSt3__112basic_stringIcNS_11char_traitsIcEENS_9allocatorIcEEE4findB8ne180100EPKcm+0x20>
    151c: aa0003e1     	mov	x1, x0
    1520: f94003e0     	ldr	x0, [sp]
    1524: f90013e1     	str	x1, [sp, #0x20]
    1528: 94000000     	bl	0x1528 <__ZNKSt3__112basic_stringIcNS_11char_traitsIcEENS_9allocatorIcEEE4findB8ne180100EPKcm+0x30>
    152c: f90007e0     	str	x0, [sp, #0x8]
    1530: f85f03a8     	ldur	x8, [x29, #-0x10]
    1534: f9000be8     	str	x8, [sp, #0x10]
    1538: f85e83a8     	ldur	x8, [x29, #-0x18]
    153c: f9000fe8     	str	x8, [sp, #0x18]
    1540: f85f03a0     	ldur	x0, [x29, #-0x10]
    1544: 94000000     	bl	0x1544 <__ZNKSt3__112basic_stringIcNS_11char_traitsIcEENS_9allocatorIcEEE4findB8ne180100EPKcm+0x4c>
    1548: f94007e1     	ldr	x1, [sp, #0x8]
    154c: f9400be2     	ldr	x2, [sp, #0x10]
    1550: f9400fe3     	ldr	x3, [sp, #0x18]
    1554: aa0003e4     	mov	x4, x0
    1558: f94013e0     	ldr	x0, [sp, #0x20]
    155c: 94000000     	bl	0x155c <__ZNKSt3__112basic_stringIcNS_11char_traitsIcEENS_9allocatorIcEEE4findB8ne180100EPKcm+0x64>
    1560: a9447bfd     	ldp	x29, x30, [sp, #0x40]
    1564: 910143ff     	add	sp, sp, #0x50
    1568: d65f03c0     	ret

000000000000156c <__ZNSt3__1eqB8ne180100INS_9allocatorIcEEEEbRKNS_12basic_stringIcNS_11char_traitsIcEET_EES9_>:
    156c: d10143ff     	sub	sp, sp, #0x50
    1570: a9047bfd     	stp	x29, x30, [sp, #0x40]
    1574: 910103fd     	add	x29, sp, #0x40
    1578: f81f03a0     	stur	x0, [x29, #-0x10]
    157c: f81e83a1     	stur	x1, [x29, #-0x18]
    1580: f85f03a0     	ldur	x0, [x29, #-0x10]
    1584: 94000000     	bl	0x1584 <__ZNSt3__1eqB8ne180100INS_9allocatorIcEEEEbRKNS_12basic_stringIcNS_11char_traitsIcEET_EES9_+0x18>
    1588: f90013e0     	str	x0, [sp, #0x20]
    158c: f94013e8     	ldr	x8, [sp, #0x20]
    1590: f90007e8     	str	x8, [sp, #0x8]
    1594: f85e83a0     	ldur	x0, [x29, #-0x18]
    1598: 94000000     	bl	0x1598 <__ZNSt3__1eqB8ne180100INS_9allocatorIcEEEEbRKNS_12basic_stringIcNS_11char_traitsIcEET_EES9_+0x2c>
    159c: f94007e8     	ldr	x8, [sp, #0x8]
    15a0: eb000108     	subs	x8, x8, x0
    15a4: 1a9f17e8     	cset	w8, eq
    15a8: 370000e8     	tbnz	w8, #0x0, 0x15c4 <__ZNSt3__1eqB8ne180100INS_9allocatorIcEEEEbRKNS_12basic_stringIcNS_11char_traitsIcEET_EES9_+0x58>
    15ac: 14000001     	b	0x15b0 <__ZNSt3__1eqB8ne180100INS_9allocatorIcEEEEbRKNS_12basic_stringIcNS_11char_traitsIcEET_EES9_+0x44>
    15b0: 52800008     	mov	w8, #0x0                ; =0
    15b4: 12000108     	and	w8, w8, #0x1
    15b8: 12000108     	and	w8, w8, #0x1
    15bc: 381ff3a8     	sturb	w8, [x29, #-0x1]
    15c0: 14000038     	b	0x16a0 <__ZNSt3__1eqB8ne180100INS_9allocatorIcEEEEbRKNS_12basic_stringIcNS_11char_traitsIcEET_EES9_+0x134>
    15c4: f85f03a0     	ldur	x0, [x29, #-0x10]
    15c8: 94000000     	bl	0x15c8 <__ZNSt3__1eqB8ne180100INS_9allocatorIcEEEEbRKNS_12basic_stringIcNS_11char_traitsIcEET_EES9_+0x5c>
    15cc: f9000fe0     	str	x0, [sp, #0x18]
    15d0: f85e83a0     	ldur	x0, [x29, #-0x18]
    15d4: 94000000     	bl	0x15d4 <__ZNSt3__1eqB8ne180100INS_9allocatorIcEEEEbRKNS_12basic_stringIcNS_11char_traitsIcEET_EES9_+0x68>
    15d8: f9000be0     	str	x0, [sp, #0x10]
    15dc: f85f03a0     	ldur	x0, [x29, #-0x10]
    15e0: 94000000     	bl	0x15e0 <__ZNSt3__1eqB8ne180100INS_9allocatorIcEEEEbRKNS_12basic_stringIcNS_11char_traitsIcEET_EES9_+0x74>
    15e4: 36000180     	tbz	w0, #0x0, 0x1614 <__ZNSt3__1eqB8ne180100INS_9allocatorIcEEEEbRKNS_12basic_stringIcNS_11char_traitsIcEET_EES9_+0xa8>
    15e8: 14000001     	b	0x15ec <__ZNSt3__1eqB8ne180100INS_9allocatorIcEEEEbRKNS_12basic_stringIcNS_11char_traitsIcEET_EES9_+0x80>
    15ec: f9400fe0     	ldr	x0, [sp, #0x18]
    15f0: f9400be1     	ldr	x1, [sp, #0x10]
    15f4: f94013e2     	ldr	x2, [sp, #0x20]
    15f8: 94000000     	bl	0x15f8 <__ZNSt3__1eqB8ne180100INS_9allocatorIcEEEEbRKNS_12basic_stringIcNS_11char_traitsIcEET_EES9_+0x8c>
    15fc: 71000008     	subs	w8, w0, #0x0
    1600: 1a9f17e8     	cset	w8, eq
    1604: 12000108     	and	w8, w8, #0x1
    1608: 12000108     	and	w8, w8, #0x1
    160c: 381ff3a8     	sturb	w8, [x29, #-0x1]
    1610: 14000024     	b	0x16a0 <__ZNSt3__1eqB8ne180100INS_9allocatorIcEEEEbRKNS_12basic_stringIcNS_11char_traitsIcEET_EES9_+0x134>
    1614: 14000001     	b	0x1618 <__ZNSt3__1eqB8ne180100INS_9allocatorIcEEEEbRKNS_12basic_stringIcNS_11char_traitsIcEET_EES9_+0xac>
    1618: f94013e8     	ldr	x8, [sp, #0x20]
    161c: f1000108     	subs	x8, x8, #0x0
    1620: 1a9f17e8     	cset	w8, eq
    1624: 37000348     	tbnz	w8, #0x0, 0x168c <__ZNSt3__1eqB8ne180100INS_9allocatorIcEEEEbRKNS_12basic_stringIcNS_11char_traitsIcEET_EES9_+0x120>
    1628: 14000001     	b	0x162c <__ZNSt3__1eqB8ne180100INS_9allocatorIcEEEEbRKNS_12basic_stringIcNS_11char_traitsIcEET_EES9_+0xc0>
    162c: f9400fe8     	ldr	x8, [sp, #0x18]
    1630: 39c00108     	ldrsb	w8, [x8]
    1634: f9400be9     	ldr	x9, [sp, #0x10]
    1638: 39c00129     	ldrsb	w9, [x9]
    163c: 6b090108     	subs	w8, w8, w9
    1640: 1a9f17e8     	cset	w8, eq
    1644: 370000e8     	tbnz	w8, #0x0, 0x1660 <__ZNSt3__1eqB8ne180100INS_9allocatorIcEEEEbRKNS_12basic_stringIcNS_11char_traitsIcEET_EES9_+0xf4>
    1648: 14000001     	b	0x164c <__ZNSt3__1eqB8ne180100INS_9allocatorIcEEEEbRKNS_12basic_stringIcNS_11char_traitsIcEET_EES9_+0xe0>
    164c: 52800008     	mov	w8, #0x0                ; =0
    1650: 12000108     	and	w8, w8, #0x1
    1654: 12000108     	and	w8, w8, #0x1
    1658: 381ff3a8     	sturb	w8, [x29, #-0x1]
    165c: 14000011     	b	0x16a0 <__ZNSt3__1eqB8ne180100INS_9allocatorIcEEEEbRKNS_12basic_stringIcNS_11char_traitsIcEET_EES9_+0x134>
    1660: 14000001     	b	0x1664 <__ZNSt3__1eqB8ne180100INS_9allocatorIcEEEEbRKNS_12basic_stringIcNS_11char_traitsIcEET_EES9_+0xf8>
    1664: f94013e8     	ldr	x8, [sp, #0x20]
    1668: f1000508     	subs	x8, x8, #0x1
    166c: f90013e8     	str	x8, [sp, #0x20]
    1670: f9400fe8     	ldr	x8, [sp, #0x18]
    1674: 91000508     	add	x8, x8, #0x1
    1678: f9000fe8     	str	x8, [sp, #0x18]
    167c: f9400be8     	ldr	x8, [sp, #0x10]
    1680: 91000508     	add	x8, x8, #0x1
    1684: f9000be8     	str	x8, [sp, #0x10]
    1688: 17ffffe4     	b	0x1618 <__ZNSt3__1eqB8ne180100INS_9allocatorIcEEEEbRKNS_12basic_stringIcNS_11char_traitsIcEET_EES9_+0xac>
    168c: 52800028     	mov	w8, #0x1                ; =1
    1690: 12000108     	and	w8, w8, #0x1
    1694: 12000108     	and	w8, w8, #0x1
    1698: 381ff3a8     	sturb	w8, [x29, #-0x1]
    169c: 14000001     	b	0x16a0 <__ZNSt3__1eqB8ne180100INS_9allocatorIcEEEEbRKNS_12basic_stringIcNS_11char_traitsIcEET_EES9_+0x134>
    16a0: 385ff3a8     	ldurb	w8, [x29, #-0x1]
    16a4: 12000100     	and	w0, w8, #0x1
    16a8: a9447bfd     	ldp	x29, x30, [sp, #0x40]
    16ac: 910143ff     	add	sp, sp, #0x50
    16b0: d65f03c0     	ret

00000000000016b4 <__ZNKSt3__112basic_stringIcNS_11char_traitsIcEENS_9allocatorIcEEE6substrB8ne180100Emm>:
    16b4: d10183ff     	sub	sp, sp, #0x60
    16b8: a9057bfd     	stp	x29, x30, [sp, #0x50]
    16bc: 910143fd     	add	x29, sp, #0x50
    16c0: f90003e8     	str	x8, [sp]
    16c4: f81f83a8     	stur	x8, [x29, #-0x8]
    16c8: f81f03a0     	stur	x0, [x29, #-0x10]
    16cc: f81e83a1     	stur	x1, [x29, #-0x18]
    16d0: f81e03a2     	stur	x2, [x29, #-0x20]
    16d4: f85f03a8     	ldur	x8, [x29, #-0x10]
    16d8: f90007e8     	str	x8, [sp, #0x8]
    16dc: f85e83a8     	ldur	x8, [x29, #-0x18]
    16e0: f9000be8     	str	x8, [sp, #0x10]
    16e4: f85e03a8     	ldur	x8, [x29, #-0x20]
    16e8: f9000fe8     	str	x8, [sp, #0x18]
    16ec: d10087a0     	sub	x0, x29, #0x21
    16f0: f90013e0     	str	x0, [sp, #0x20]
    16f4: 94000000     	bl	0x16f4 <__ZNKSt3__112basic_stringIcNS_11char_traitsIcEENS_9allocatorIcEEE6substrB8ne180100Emm+0x40>
    16f8: f94003e0     	ldr	x0, [sp]
    16fc: f94007e1     	ldr	x1, [sp, #0x8]
    1700: f9400be2     	ldr	x2, [sp, #0x10]
    1704: f9400fe3     	ldr	x3, [sp, #0x18]
    1708: f94013e4     	ldr	x4, [sp, #0x20]
    170c: 94000000     	bl	0x170c <__ZNKSt3__112basic_stringIcNS_11char_traitsIcEENS_9allocatorIcEEE6substrB8ne180100Emm+0x58>
    1710: a9457bfd     	ldp	x29, x30, [sp, #0x50]
    1714: 910183ff     	add	sp, sp, #0x60
    1718: d65f03c0     	ret

000000000000171c <__ZNSt3__1eqB8ne180100IcNS_11char_traitsIcEENS_9allocatorIcEEEEbRKNS_12basic_stringIT_T0_T1_EEPKS6_>:
    171c: d10103ff     	sub	sp, sp, #0x40
    1720: a9037bfd     	stp	x29, x30, [sp, #0x30]
    1724: 9100c3fd     	add	x29, sp, #0x30
    1728: f81f03a0     	stur	x0, [x29, #-0x10]
    172c: f9000fe1     	str	x1, [sp, #0x18]
    1730: f9400fe0     	ldr	x0, [sp, #0x18]
    1734: 94000000     	bl	0x1734 <__ZNSt3__1eqB8ne180100IcNS_11char_traitsIcEENS_9allocatorIcEEEEbRKNS_12basic_stringIT_T0_T1_EEPKS6_+0x18>
    1738: f9000be0     	str	x0, [sp, #0x10]
    173c: f9400be8     	ldr	x8, [sp, #0x10]
    1740: f90007e8     	str	x8, [sp, #0x8]
    1744: f85f03a0     	ldur	x0, [x29, #-0x10]
    1748: 94000000     	bl	0x1748 <__ZNSt3__1eqB8ne180100IcNS_11char_traitsIcEENS_9allocatorIcEEEEbRKNS_12basic_stringIT_T0_T1_EEPKS6_+0x2c>
    174c: f94007e8     	ldr	x8, [sp, #0x8]
    1750: eb000108     	subs	x8, x8, x0
    1754: 1a9f17e8     	cset	w8, eq
    1758: 370000e8     	tbnz	w8, #0x0, 0x1774 <__ZNSt3__1eqB8ne180100IcNS_11char_traitsIcEENS_9allocatorIcEEEEbRKNS_12basic_stringIT_T0_T1_EEPKS6_+0x58>
    175c: 14000001     	b	0x1760 <__ZNSt3__1eqB8ne180100IcNS_11char_traitsIcEENS_9allocatorIcEEEEbRKNS_12basic_stringIT_T0_T1_EEPKS6_+0x44>
    1760: 52800008     	mov	w8, #0x0                ; =0
    1764: 12000108     	and	w8, w8, #0x1
    1768: 12000108     	and	w8, w8, #0x1
    176c: 381ff3a8     	sturb	w8, [x29, #-0x1]
    1770: 14000010     	b	0x17b0 <__ZNSt3__1eqB8ne180100IcNS_11char_traitsIcEENS_9allocatorIcEEEEbRKNS_12basic_stringIT_T0_T1_EEPKS6_+0x94>
    1774: f85f03a0     	ldur	x0, [x29, #-0x10]
    1778: f9400fe3     	ldr	x3, [sp, #0x18]
    177c: f9400be4     	ldr	x4, [sp, #0x10]
    1780: d2800001     	mov	x1, #0x0                ; =0
    1784: 92800002     	mov	x2, #-0x1               ; =-1
    1788: 94000000     	bl	0x1788 <__ZNSt3__1eqB8ne180100IcNS_11char_traitsIcEENS_9allocatorIcEEEEbRKNS_12basic_stringIT_T0_T1_EEPKS6_+0x6c>
    178c: b90007e0     	str	w0, [sp, #0x4]
    1790: 14000001     	b	0x1794 <__ZNSt3__1eqB8ne180100IcNS_11char_traitsIcEENS_9allocatorIcEEEEbRKNS_12basic_stringIT_T0_T1_EEPKS6_+0x78>
    1794: b94007e8     	ldr	w8, [sp, #0x4]
    1798: 71000108     	subs	w8, w8, #0x0
    179c: 1a9f17e8     	cset	w8, eq
    17a0: 12000108     	and	w8, w8, #0x1
    17a4: 12000108     	and	w8, w8, #0x1
    17a8: 381ff3a8     	sturb	w8, [x29, #-0x1]
    17ac: 14000001     	b	0x17b0 <__ZNSt3__1eqB8ne180100IcNS_11char_traitsIcEENS_9allocatorIcEEEEbRKNS_12basic_stringIT_T0_T1_EEPKS6_+0x94>
    17b0: 385ff3a8     	ldurb	w8, [x29, #-0x1]
    17b4: 12000100     	and	w0, w8, #0x1
    17b8: a9437bfd     	ldp	x29, x30, [sp, #0x30]
    17bc: 910103ff     	add	sp, sp, #0x40
    17c0: d65f03c0     	ret
    17c4: 94000000     	bl	0x17c4 <__ZNSt3__1eqB8ne180100IcNS_11char_traitsIcEENS_9allocatorIcEEEEbRKNS_12basic_stringIT_T0_T1_EEPKS6_+0xa8>

00000000000017c8 <__ZNSt3__115__list_iteratorINS_12basic_stringIcNS_11char_traitsIcEENS_9allocatorIcEEEEPvEppB8ne180100Ev>:
    17c8: d10043ff     	sub	sp, sp, #0x10
    17cc: f90007e0     	str	x0, [sp, #0x8]
    17d0: f94007e0     	ldr	x0, [sp, #0x8]
    17d4: f9400008     	ldr	x8, [x0]
    17d8: f9400508     	ldr	x8, [x8, #0x8]
    17dc: f9000008     	str	x8, [x0]
    17e0: 910043ff     	add	sp, sp, #0x10
    17e4: d65f03c0     	ret

00000000000017e8 <__ZNKSt3__14listINS_12basic_stringIcNS_11char_traitsIcEENS_9allocatorIcEEEENS4_IS6_EEE4sizeB8ne180100Ev>:
    17e8: d10083ff     	sub	sp, sp, #0x20
    17ec: a9017bfd     	stp	x29, x30, [sp, #0x10]
    17f0: 910043fd     	add	x29, sp, #0x10
    17f4: f90007e0     	str	x0, [sp, #0x8]
    17f8: f94007e0     	ldr	x0, [sp, #0x8]
    17fc: 94000000     	bl	0x17fc <__ZNKSt3__14listINS_12basic_stringIcNS_11char_traitsIcEENS_9allocatorIcEEEENS4_IS6_EEE4sizeB8ne180100Ev+0x14>
    1800: f9400000     	ldr	x0, [x0]
    1804: a9417bfd     	ldp	x29, x30, [sp, #0x10]
    1808: 910083ff     	add	sp, sp, #0x20
    180c: d65f03c0     	ret

0000000000001810 <__Z7findPNGv>:
    1810: d10503ff     	sub	sp, sp, #0x140
    1814: a9126ffc     	stp	x28, x27, [sp, #0x120]
    1818: a9137bfd     	stp	x29, x30, [sp, #0x130]
    181c: 9104c3fd     	add	x29, sp, #0x130
    1820: d10163a9     	sub	x9, x29, #0x58
    1824: f90023e9     	str	x9, [sp, #0x40]
    1828: aa0803e0     	mov	x0, x8
    182c: f90027e0     	str	x0, [sp, #0x48]
    1830: aa0003e8     	mov	x8, x0
    1834: f9002128     	str	x8, [x9, #0x40]
    1838: 52800008     	mov	w8, #0x0                ; =0
    183c: 12000108     	and	w8, w8, #0x1
    1840: 12000108     	and	w8, w8, #0x1
    1844: 381e73a8     	sturb	w8, [x29, #-0x19]
    1848: 94000000     	bl	0x1848 <__Z7findPNGv+0x38>
    184c: d10103a8     	sub	x8, x29, #0x40
    1850: 94000000     	bl	0x1850 <__Z7findPNGv+0x40>
    1854: 14000001     	b	0x1858 <__Z7findPNGv+0x48>
    1858: f94023e8     	ldr	x8, [sp, #0x40]
    185c: d10103a9     	sub	x9, x29, #0x40
    1860: f9001909     	str	x9, [x8, #0x30]
    1864: f9401900     	ldr	x0, [x8, #0x30]
    1868: 94000000     	bl	0x1868 <__Z7findPNGv+0x58>
    186c: f94023e8     	ldr	x8, [sp, #0x40]
    1870: f9000100     	str	x0, [x8]
    1874: f9401900     	ldr	x0, [x8, #0x30]
    1878: 94000000     	bl	0x1878 <__Z7findPNGv+0x68>
    187c: f81a03a0     	stur	x0, [x29, #-0x60]
    1880: 14000001     	b	0x1884 <__Z7findPNGv+0x74>
    1884: d10163a0     	sub	x0, x29, #0x58
    1888: d10183a1     	sub	x1, x29, #0x60
    188c: 94000000     	bl	0x188c <__Z7findPNGv+0x7c>
    1890: b9003fe0     	str	w0, [sp, #0x3c]
    1894: 14000001     	b	0x1898 <__Z7findPNGv+0x88>
    1898: b9403fe8     	ldr	w8, [sp, #0x3c]
    189c: 370001e8     	tbnz	w8, #0x0, 0x18d8 <__Z7findPNGv+0xc8>
    18a0: 14000001     	b	0x18a4 <__Z7findPNGv+0x94>
    18a4: d10103a0     	sub	x0, x29, #0x40
    18a8: 94000000     	bl	0x18a8 <__Z7findPNGv+0x98>
    18ac: 1400009b     	b	0x1b18 <__Z7findPNGv+0x308>
    18b0: f94023e9     	ldr	x9, [sp, #0x40]
    18b4: f9000920     	str	x0, [x9, #0x10]
    18b8: aa0103e8     	mov	x8, x1
    18bc: b9000d28     	str	w8, [x9, #0xc]
    18c0: 140000c6     	b	0x1bd8 <__Z7findPNGv+0x3c8>
    18c4: f94023e9     	ldr	x9, [sp, #0x40]
    18c8: f9000920     	str	x0, [x9, #0x10]
    18cc: aa0103e8     	mov	x8, x1
    18d0: b9000d28     	str	w8, [x9, #0xc]
    18d4: 1400008e     	b	0x1b0c <__Z7findPNGv+0x2fc>
    18d8: d10163a0     	sub	x0, x29, #0x58
    18dc: 94000000     	bl	0x18dc <__Z7findPNGv+0xcc>
    18e0: f9001be0     	str	x0, [sp, #0x30]
    18e4: 14000001     	b	0x18e8 <__Z7findPNGv+0xd8>
    18e8: f9401be8     	ldr	x8, [sp, #0x30]
    18ec: f81983a8     	stur	x8, [x29, #-0x68]
    18f0: d10203a0     	sub	x0, x29, #0x80
    18f4: 90000001     	adrp	x1, 0x1000 <__Z7findJPGv+0x244>
    18f8: 91000021     	add	x1, x1, #0x0
    18fc: 94000000     	bl	0x18fc <__Z7findPNGv+0xec>
    1900: 14000001     	b	0x1904 <__Z7findPNGv+0xf4>
    1904: 910263e8     	add	x8, sp, #0x98
    1908: d10203a0     	sub	x0, x29, #0x80
    190c: 94000000     	bl	0x190c <__Z7findPNGv+0xfc>
    1910: 14000001     	b	0x1914 <__Z7findPNGv+0x104>
    1914: f85983a0     	ldur	x0, [x29, #-0x68]
    1918: 910263e1     	add	x1, sp, #0x98
    191c: d2800002     	mov	x2, #0x0                ; =0
    1920: f90017e2     	str	x2, [sp, #0x28]
    1924: 94000000     	bl	0x1924 <__Z7findPNGv+0x114>
    1928: f94017e2     	ldr	x2, [sp, #0x28]
    192c: aa0003e8     	mov	x8, x0
    1930: b90097e8     	str	w8, [sp, #0x94]
    1934: f85983a0     	ldur	x0, [x29, #-0x68]
    1938: d10203a1     	sub	x1, x29, #0x80
    193c: 94000000     	bl	0x193c <__Z7findPNGv+0x12c>
    1940: aa0003e8     	mov	x8, x0
    1944: b90093e8     	str	w8, [sp, #0x90]
    1948: b98097e8     	ldrsw	x8, [sp, #0x94]
    194c: b1000508     	adds	x8, x8, #0x1
    1950: 1a9f17e8     	cset	w8, eq
    1954: 5280002a     	mov	w10, #0x1               ; =1
    1958: 52800009     	mov	w9, #0x0                ; =0
    195c: 1200012b     	and	w11, w9, #0x1
    1960: 1200016b     	and	w11, w11, #0x1
    1964: 3901dfeb     	strb	w11, [sp, #0x77]
    1968: 12000129     	and	w9, w9, #0x1
    196c: 0a0a0129     	and	w9, w9, w10
    1970: 39015fe9     	strb	w9, [sp, #0x57]
    1974: 37000268     	tbnz	w8, #0x0, 0x19c0 <__Z7findPNGv+0x1b0>
    1978: 14000001     	b	0x197c <__Z7findPNGv+0x16c>
    197c: f85983a0     	ldur	x0, [x29, #-0x68]
    1980: b98097e1     	ldrsw	x1, [sp, #0x94]
    1984: 9101e3e8     	add	x8, sp, #0x78
    1988: 92800002     	mov	x2, #-0x1               ; =-1
    198c: 94000000     	bl	0x198c <__Z7findPNGv+0x17c>
    1990: 14000001     	b	0x1994 <__Z7findPNGv+0x184>
    1994: 52800028     	mov	w8, #0x1                ; =1
    1998: 12000108     	and	w8, w8, #0x1
    199c: 12000108     	and	w8, w8, #0x1
    19a0: 3901dfe8     	strb	w8, [sp, #0x77]
    19a4: 9101e3e0     	add	x0, sp, #0x78
    19a8: 910263e1     	add	x1, sp, #0x98
    19ac: 94000000     	bl	0x19ac <__Z7findPNGv+0x19c>
    19b0: 52800028     	mov	w8, #0x1                ; =1
    19b4: b90027e8     	str	w8, [sp, #0x24]
    19b8: 37000360     	tbnz	w0, #0x0, 0x1a24 <__Z7findPNGv+0x214>
    19bc: 14000001     	b	0x19c0 <__Z7findPNGv+0x1b0>
    19c0: b98093e8     	ldrsw	x8, [sp, #0x90]
    19c4: b1000508     	adds	x8, x8, #0x1
    19c8: 1a9f17e8     	cset	w8, eq
    19cc: 52800000     	mov	w0, #0x0                ; =0
    19d0: b90023e0     	str	w0, [sp, #0x20]
    19d4: 37000228     	tbnz	w8, #0x0, 0x1a18 <__Z7findPNGv+0x208>
    19d8: 14000001     	b	0x19dc <__Z7findPNGv+0x1cc>
    19dc: f85983a0     	ldur	x0, [x29, #-0x68]
    19e0: b98093e1     	ldrsw	x1, [sp, #0x90]
    19e4: 910163e8     	add	x8, sp, #0x58
    19e8: 92800002     	mov	x2, #-0x1               ; =-1
    19ec: 94000000     	bl	0x19ec <__Z7findPNGv+0x1dc>
    19f0: 14000001     	b	0x19f4 <__Z7findPNGv+0x1e4>
    19f4: 52800028     	mov	w8, #0x1                ; =1
    19f8: 12000108     	and	w8, w8, #0x1
    19fc: 12000108     	and	w8, w8, #0x1
    1a00: 39015fe8     	strb	w8, [sp, #0x57]
    1a04: 910163e0     	add	x0, sp, #0x58
    1a08: d10203a1     	sub	x1, x29, #0x80
    1a0c: 94000000     	bl	0x1a0c <__Z7findPNGv+0x1fc>
    1a10: b90023e0     	str	w0, [sp, #0x20]
    1a14: 14000001     	b	0x1a18 <__Z7findPNGv+0x208>
    1a18: b94023e8     	ldr	w8, [sp, #0x20]
    1a1c: b90027e8     	str	w8, [sp, #0x24]
    1a20: 14000001     	b	0x1a24 <__Z7findPNGv+0x214>
    1a24: b94027e8     	ldr	w8, [sp, #0x24]
    1a28: b9001fe8     	str	w8, [sp, #0x1c]
    1a2c: 39415fe8     	ldrb	w8, [sp, #0x57]
    1a30: 360000a8     	tbz	w8, #0x0, 0x1a44 <__Z7findPNGv+0x234>
    1a34: 14000001     	b	0x1a38 <__Z7findPNGv+0x228>
    1a38: 910163e0     	add	x0, sp, #0x58
    1a3c: 94000000     	bl	0x1a3c <__Z7findPNGv+0x22c>
    1a40: 14000001     	b	0x1a44 <__Z7findPNGv+0x234>
    1a44: 3941dfe8     	ldrb	w8, [sp, #0x77]
    1a48: 360000a8     	tbz	w8, #0x0, 0x1a5c <__Z7findPNGv+0x24c>
    1a4c: 14000001     	b	0x1a50 <__Z7findPNGv+0x240>
    1a50: 9101e3e0     	add	x0, sp, #0x78
    1a54: 94000000     	bl	0x1a54 <__Z7findPNGv+0x244>
    1a58: 14000001     	b	0x1a5c <__Z7findPNGv+0x24c>
    1a5c: b9401fe8     	ldr	w8, [sp, #0x1c]
    1a60: 36000388     	tbz	w8, #0x0, 0x1ad0 <__Z7findPNGv+0x2c0>
    1a64: 14000001     	b	0x1a68 <__Z7findPNGv+0x258>
    1a68: f94027e0     	ldr	x0, [sp, #0x48]
    1a6c: f85983a1     	ldur	x1, [x29, #-0x68]
    1a70: 94000000     	bl	0x1a70 <__Z7findPNGv+0x260>
    1a74: 14000001     	b	0x1a78 <__Z7findPNGv+0x268>
    1a78: 14000016     	b	0x1ad0 <__Z7findPNGv+0x2c0>
    1a7c: f94023e9     	ldr	x9, [sp, #0x40]
    1a80: f9000920     	str	x0, [x9, #0x10]
    1a84: aa0103e8     	mov	x8, x1
    1a88: b9000d28     	str	w8, [x9, #0xc]
    1a8c: 1400001d     	b	0x1b00 <__Z7findPNGv+0x2f0>
    1a90: f94023e9     	ldr	x9, [sp, #0x40]
    1a94: f9000920     	str	x0, [x9, #0x10]
    1a98: aa0103e8     	mov	x8, x1
    1a9c: b9000d28     	str	w8, [x9, #0xc]
    1aa0: 14000015     	b	0x1af4 <__Z7findPNGv+0x2e4>
    1aa4: f94023e9     	ldr	x9, [sp, #0x40]
    1aa8: f9000920     	str	x0, [x9, #0x10]
    1aac: aa0103e8     	mov	x8, x1
    1ab0: b9000d28     	str	w8, [x9, #0xc]
    1ab4: 3941dfe8     	ldrb	w8, [sp, #0x77]
    1ab8: 360000a8     	tbz	w8, #0x0, 0x1acc <__Z7findPNGv+0x2bc>
    1abc: 14000001     	b	0x1ac0 <__Z7findPNGv+0x2b0>
    1ac0: 9101e3e0     	add	x0, sp, #0x78
    1ac4: 94000000     	bl	0x1ac4 <__Z7findPNGv+0x2b4>
    1ac8: 14000001     	b	0x1acc <__Z7findPNGv+0x2bc>
    1acc: 1400000a     	b	0x1af4 <__Z7findPNGv+0x2e4>
    1ad0: 910263e0     	add	x0, sp, #0x98
    1ad4: 94000000     	bl	0x1ad4 <__Z7findPNGv+0x2c4>
    1ad8: d10203a0     	sub	x0, x29, #0x80
    1adc: 94000000     	bl	0x1adc <__Z7findPNGv+0x2cc>
    1ae0: 14000001     	b	0x1ae4 <__Z7findPNGv+0x2d4>
    1ae4: d10163a0     	sub	x0, x29, #0x58
    1ae8: 94000000     	bl	0x1ae8 <__Z7findPNGv+0x2d8>
    1aec: 14000001     	b	0x1af0 <__Z7findPNGv+0x2e0>
    1af0: 17ffff65     	b	0x1884 <__Z7findPNGv+0x74>
    1af4: 910263e0     	add	x0, sp, #0x98
    1af8: 94000000     	bl	0x1af8 <__Z7findPNGv+0x2e8>
    1afc: 14000001     	b	0x1b00 <__Z7findPNGv+0x2f0>
    1b00: d10203a0     	sub	x0, x29, #0x80
    1b04: 94000000     	bl	0x1b04 <__Z7findPNGv+0x2f4>
    1b08: 14000001     	b	0x1b0c <__Z7findPNGv+0x2fc>
    1b0c: d10103a0     	sub	x0, x29, #0x40
    1b10: 94000000     	bl	0x1b10 <__Z7findPNGv+0x300>
    1b14: 14000031     	b	0x1bd8 <__Z7findPNGv+0x3c8>
    1b18: 90000000     	adrp	x0, 0x1000 <__Z7findJPGv+0x244>
    1b1c: f9400000     	ldr	x0, [x0]
    1b20: 90000001     	adrp	x1, 0x1000 <__Z7findJPGv+0x244>
    1b24: 91000021     	add	x1, x1, #0x0
    1b28: 94000000     	bl	0x1b28 <__Z7findPNGv+0x318>
    1b2c: f9000be0     	str	x0, [sp, #0x10]
    1b30: 14000001     	b	0x1b34 <__Z7findPNGv+0x324>
    1b34: f9400be0     	ldr	x0, [sp, #0x10]
    1b38: 90000001     	adrp	x1, 0x1000 <__Z7findJPGv+0x244>
    1b3c: 91000021     	add	x1, x1, #0x0
    1b40: 94000000     	bl	0x1b40 <__Z7findPNGv+0x330>
    1b44: 14000001     	b	0x1b48 <__Z7findPNGv+0x338>
    1b48: 52800040     	mov	w0, #0x2                ; =2
    1b4c: 94000000     	bl	0x1b4c <__Z7findPNGv+0x33c>
    1b50: 14000001     	b	0x1b54 <__Z7findPNGv+0x344>
    1b54: f94027e0     	ldr	x0, [sp, #0x48]
    1b58: 94000000     	bl	0x1b58 <__Z7findPNGv+0x348>
    1b5c: aa0003e1     	mov	x1, x0
    1b60: 90000000     	adrp	x0, 0x1000 <__Z7findJPGv+0x244>
    1b64: f9400000     	ldr	x0, [x0]
    1b68: 94000000     	bl	0x1b68 <__Z7findPNGv+0x358>
    1b6c: f90007e0     	str	x0, [sp, #0x8]
    1b70: 14000001     	b	0x1b74 <__Z7findPNGv+0x364>
    1b74: f94007e0     	ldr	x0, [sp, #0x8]
    1b78: 90000001     	adrp	x1, 0x1000 <__Z7findJPGv+0x244>
    1b7c: 91000021     	add	x1, x1, #0x0
    1b80: 94000000     	bl	0x1b80 <__Z7findPNGv+0x370>
    1b84: f90003e0     	str	x0, [sp]
    1b88: 14000001     	b	0x1b8c <__Z7findPNGv+0x37c>
    1b8c: f94003e0     	ldr	x0, [sp]
    1b90: 90000001     	adrp	x1, 0x1000 <__Z7findJPGv+0x244>
    1b94: 91000021     	add	x1, x1, #0x0
    1b98: 94000000     	bl	0x1b98 <__Z7findPNGv+0x388>
    1b9c: 14000001     	b	0x1ba0 <__Z7findPNGv+0x390>
    1ba0: 52800028     	mov	w8, #0x1                ; =1
    1ba4: 12000108     	and	w8, w8, #0x1
    1ba8: 12000108     	and	w8, w8, #0x1
    1bac: 381e73a8     	sturb	w8, [x29, #-0x19]
    1bb0: 385e73a8     	ldurb	w8, [x29, #-0x19]
    1bb4: 370000a8     	tbnz	w8, #0x0, 0x1bc8 <__Z7findPNGv+0x3b8>
    1bb8: 14000001     	b	0x1bbc <__Z7findPNGv+0x3ac>
    1bbc: f94027e0     	ldr	x0, [sp, #0x48]
    1bc0: 94000000     	bl	0x1bc0 <__Z7findPNGv+0x3b0>
    1bc4: 14000001     	b	0x1bc8 <__Z7findPNGv+0x3b8>
    1bc8: a9537bfd     	ldp	x29, x30, [sp, #0x130]
    1bcc: a9526ffc     	ldp	x28, x27, [sp, #0x120]
    1bd0: 910503ff     	add	sp, sp, #0x140
    1bd4: d65f03c0     	ret
    1bd8: f94027e0     	ldr	x0, [sp, #0x48]
    1bdc: 94000000     	bl	0x1bdc <__Z7findPNGv+0x3cc>
    1be0: 14000001     	b	0x1be4 <__Z7findPNGv+0x3d4>
    1be4: f94023e8     	ldr	x8, [sp, #0x40]
    1be8: f9400900     	ldr	x0, [x8, #0x10]
    1bec: 94000000     	bl	0x1bec <__Z7findPNGv+0x3dc>

0000000000001bf0 <__Z8findWebpv>:
    1bf0: d10503ff     	sub	sp, sp, #0x140
    1bf4: a9126ffc     	stp	x28, x27, [sp, #0x120]
    1bf8: a9137bfd     	stp	x29, x30, [sp, #0x130]
    1bfc: 9104c3fd     	add	x29, sp, #0x130
    1c00: d10163a9     	sub	x9, x29, #0x58
    1c04: f90023e9     	str	x9, [sp, #0x40]
    1c08: aa0803e0     	mov	x0, x8
    1c0c: f90027e0     	str	x0, [sp, #0x48]
    1c10: aa0003e8     	mov	x8, x0
    1c14: f9002128     	str	x8, [x9, #0x40]
    1c18: 52800008     	mov	w8, #0x0                ; =0
    1c1c: 12000108     	and	w8, w8, #0x1
    1c20: 12000108     	and	w8, w8, #0x1
    1c24: 381e73a8     	sturb	w8, [x29, #-0x19]
    1c28: 94000000     	bl	0x1c28 <__Z8findWebpv+0x38>
    1c2c: d10103a8     	sub	x8, x29, #0x40
    1c30: 94000000     	bl	0x1c30 <__Z8findWebpv+0x40>
    1c34: 14000001     	b	0x1c38 <__Z8findWebpv+0x48>
    1c38: f94023e8     	ldr	x8, [sp, #0x40]
    1c3c: d10103a9     	sub	x9, x29, #0x40
    1c40: f9001909     	str	x9, [x8, #0x30]
    1c44: f9401900     	ldr	x0, [x8, #0x30]
    1c48: 94000000     	bl	0x1c48 <__Z8findWebpv+0x58>
    1c4c: f94023e8     	ldr	x8, [sp, #0x40]
    1c50: f9000100     	str	x0, [x8]
    1c54: f9401900     	ldr	x0, [x8, #0x30]
    1c58: 94000000     	bl	0x1c58 <__Z8findWebpv+0x68>
    1c5c: f81a03a0     	stur	x0, [x29, #-0x60]
    1c60: 14000001     	b	0x1c64 <__Z8findWebpv+0x74>
    1c64: d10163a0     	sub	x0, x29, #0x58
    1c68: d10183a1     	sub	x1, x29, #0x60
    1c6c: 94000000     	bl	0x1c6c <__Z8findWebpv+0x7c>
    1c70: b9003fe0     	str	w0, [sp, #0x3c]
    1c74: 14000001     	b	0x1c78 <__Z8findWebpv+0x88>
    1c78: b9403fe8     	ldr	w8, [sp, #0x3c]
    1c7c: 370001e8     	tbnz	w8, #0x0, 0x1cb8 <__Z8findWebpv+0xc8>
    1c80: 14000001     	b	0x1c84 <__Z8findWebpv+0x94>
    1c84: d10103a0     	sub	x0, x29, #0x40
    1c88: 94000000     	bl	0x1c88 <__Z8findWebpv+0x98>
    1c8c: 1400009b     	b	0x1ef8 <__Z8findWebpv+0x308>
    1c90: f94023e9     	ldr	x9, [sp, #0x40]
    1c94: f9000920     	str	x0, [x9, #0x10]
    1c98: aa0103e8     	mov	x8, x1
    1c9c: b9000d28     	str	w8, [x9, #0xc]
    1ca0: 140000c6     	b	0x1fb8 <__Z8findWebpv+0x3c8>
    1ca4: f94023e9     	ldr	x9, [sp, #0x40]
    1ca8: f9000920     	str	x0, [x9, #0x10]
    1cac: aa0103e8     	mov	x8, x1
    1cb0: b9000d28     	str	w8, [x9, #0xc]
    1cb4: 1400008e     	b	0x1eec <__Z8findWebpv+0x2fc>
    1cb8: d10163a0     	sub	x0, x29, #0x58
    1cbc: 94000000     	bl	0x1cbc <__Z8findWebpv+0xcc>
    1cc0: f9001be0     	str	x0, [sp, #0x30]
    1cc4: 14000001     	b	0x1cc8 <__Z8findWebpv+0xd8>
    1cc8: f9401be8     	ldr	x8, [sp, #0x30]
    1ccc: f81983a8     	stur	x8, [x29, #-0x68]
    1cd0: d10203a0     	sub	x0, x29, #0x80
    1cd4: 90000001     	adrp	x1, 0x1000 <__Z7findJPGv+0x244>
    1cd8: 91000021     	add	x1, x1, #0x0
    1cdc: 94000000     	bl	0x1cdc <__Z8findWebpv+0xec>
    1ce0: 14000001     	b	0x1ce4 <__Z8findWebpv+0xf4>
    1ce4: 910263e8     	add	x8, sp, #0x98
    1ce8: d10203a0     	sub	x0, x29, #0x80
    1cec: 94000000     	bl	0x1cec <__Z8findWebpv+0xfc>
    1cf0: 14000001     	b	0x1cf4 <__Z8findWebpv+0x104>
    1cf4: f85983a0     	ldur	x0, [x29, #-0x68]
    1cf8: 910263e1     	add	x1, sp, #0x98
    1cfc: d2800002     	mov	x2, #0x0                ; =0
    1d00: f90017e2     	str	x2, [sp, #0x28]
    1d04: 94000000     	bl	0x1d04 <__Z8findWebpv+0x114>
    1d08: f94017e2     	ldr	x2, [sp, #0x28]
    1d0c: aa0003e8     	mov	x8, x0
    1d10: b90097e8     	str	w8, [sp, #0x94]
    1d14: f85983a0     	ldur	x0, [x29, #-0x68]
    1d18: d10203a1     	sub	x1, x29, #0x80
    1d1c: 94000000     	bl	0x1d1c <__Z8findWebpv+0x12c>
    1d20: aa0003e8     	mov	x8, x0
    1d24: b90093e8     	str	w8, [sp, #0x90]
    1d28: b98097e8     	ldrsw	x8, [sp, #0x94]
    1d2c: b1000508     	adds	x8, x8, #0x1
    1d30: 1a9f17e8     	cset	w8, eq
    1d34: 5280002a     	mov	w10, #0x1               ; =1
    1d38: 52800009     	mov	w9, #0x0                ; =0
    1d3c: 1200012b     	and	w11, w9, #0x1
    1d40: 1200016b     	and	w11, w11, #0x1
    1d44: 3901dfeb     	strb	w11, [sp, #0x77]
    1d48: 12000129     	and	w9, w9, #0x1
    1d4c: 0a0a0129     	and	w9, w9, w10
    1d50: 39015fe9     	strb	w9, [sp, #0x57]
    1d54: 37000268     	tbnz	w8, #0x0, 0x1da0 <__Z8findWebpv+0x1b0>
    1d58: 14000001     	b	0x1d5c <__Z8findWebpv+0x16c>
    1d5c: f85983a0     	ldur	x0, [x29, #-0x68]
    1d60: b98097e1     	ldrsw	x1, [sp, #0x94]
    1d64: 9101e3e8     	add	x8, sp, #0x78
    1d68: 92800002     	mov	x2, #-0x1               ; =-1
    1d6c: 94000000     	bl	0x1d6c <__Z8findWebpv+0x17c>
    1d70: 14000001     	b	0x1d74 <__Z8findWebpv+0x184>
    1d74: 52800028     	mov	w8, #0x1                ; =1
    1d78: 12000108     	and	w8, w8, #0x1
    1d7c: 12000108     	and	w8, w8, #0x1
    1d80: 3901dfe8     	strb	w8, [sp, #0x77]
    1d84: 9101e3e0     	add	x0, sp, #0x78
    1d88: 910263e1     	add	x1, sp, #0x98
    1d8c: 94000000     	bl	0x1d8c <__Z8findWebpv+0x19c>
    1d90: 52800028     	mov	w8, #0x1                ; =1
    1d94: b90027e8     	str	w8, [sp, #0x24]
    1d98: 37000360     	tbnz	w0, #0x0, 0x1e04 <__Z8findWebpv+0x214>
    1d9c: 14000001     	b	0x1da0 <__Z8findWebpv+0x1b0>
    1da0: b98093e8     	ldrsw	x8, [sp, #0x90]
    1da4: b1000508     	adds	x8, x8, #0x1
    1da8: 1a9f17e8     	cset	w8, eq
    1dac: 52800000     	mov	w0, #0x0                ; =0
    1db0: b90023e0     	str	w0, [sp, #0x20]
    1db4: 37000228     	tbnz	w8, #0x0, 0x1df8 <__Z8findWebpv+0x208>
    1db8: 14000001     	b	0x1dbc <__Z8findWebpv+0x1cc>
    1dbc: f85983a0     	ldur	x0, [x29, #-0x68]
    1dc0: b98093e1     	ldrsw	x1, [sp, #0x90]
    1dc4: 910163e8     	add	x8, sp, #0x58
    1dc8: 92800002     	mov	x2, #-0x1               ; =-1
    1dcc: 94000000     	bl	0x1dcc <__Z8findWebpv+0x1dc>
    1dd0: 14000001     	b	0x1dd4 <__Z8findWebpv+0x1e4>
    1dd4: 52800028     	mov	w8, #0x1                ; =1
    1dd8: 12000108     	and	w8, w8, #0x1
    1ddc: 12000108     	and	w8, w8, #0x1
    1de0: 39015fe8     	strb	w8, [sp, #0x57]
    1de4: 910163e0     	add	x0, sp, #0x58
    1de8: d10203a1     	sub	x1, x29, #0x80
    1dec: 94000000     	bl	0x1dec <__Z8findWebpv+0x1fc>
    1df0: b90023e0     	str	w0, [sp, #0x20]
    1df4: 14000001     	b	0x1df8 <__Z8findWebpv+0x208>
    1df8: b94023e8     	ldr	w8, [sp, #0x20]
    1dfc: b90027e8     	str	w8, [sp, #0x24]
    1e00: 14000001     	b	0x1e04 <__Z8findWebpv+0x214>
    1e04: b94027e8     	ldr	w8, [sp, #0x24]
    1e08: b9001fe8     	str	w8, [sp, #0x1c]
    1e0c: 39415fe8     	ldrb	w8, [sp, #0x57]
    1e10: 360000a8     	tbz	w8, #0x0, 0x1e24 <__Z8findWebpv+0x234>
    1e14: 14000001     	b	0x1e18 <__Z8findWebpv+0x228>
    1e18: 910163e0     	add	x0, sp, #0x58
    1e1c: 94000000     	bl	0x1e1c <__Z8findWebpv+0x22c>
    1e20: 14000001     	b	0x1e24 <__Z8findWebpv+0x234>
    1e24: 3941dfe8     	ldrb	w8, [sp, #0x77]
    1e28: 360000a8     	tbz	w8, #0x0, 0x1e3c <__Z8findWebpv+0x24c>
    1e2c: 14000001     	b	0x1e30 <__Z8findWebpv+0x240>
    1e30: 9101e3e0     	add	x0, sp, #0x78
    1e34: 94000000     	bl	0x1e34 <__Z8findWebpv+0x244>
    1e38: 14000001     	b	0x1e3c <__Z8findWebpv+0x24c>
    1e3c: b9401fe8     	ldr	w8, [sp, #0x1c]
    1e40: 36000388     	tbz	w8, #0x0, 0x1eb0 <__Z8findWebpv+0x2c0>
    1e44: 14000001     	b	0x1e48 <__Z8findWebpv+0x258>
    1e48: f94027e0     	ldr	x0, [sp, #0x48]
    1e4c: f85983a1     	ldur	x1, [x29, #-0x68]
    1e50: 94000000     	bl	0x1e50 <__Z8findWebpv+0x260>
    1e54: 14000001     	b	0x1e58 <__Z8findWebpv+0x268>
    1e58: 14000016     	b	0x1eb0 <__Z8findWebpv+0x2c0>
    1e5c: f94023e9     	ldr	x9, [sp, #0x40]
    1e60: f9000920     	str	x0, [x9, #0x10]
    1e64: aa0103e8     	mov	x8, x1
    1e68: b9000d28     	str	w8, [x9, #0xc]
    1e6c: 1400001d     	b	0x1ee0 <__Z8findWebpv+0x2f0>
    1e70: f94023e9     	ldr	x9, [sp, #0x40]
    1e74: f9000920     	str	x0, [x9, #0x10]
    1e78: aa0103e8     	mov	x8, x1
    1e7c: b9000d28     	str	w8, [x9, #0xc]
    1e80: 14000015     	b	0x1ed4 <__Z8findWebpv+0x2e4>
    1e84: f94023e9     	ldr	x9, [sp, #0x40]
    1e88: f9000920     	str	x0, [x9, #0x10]
    1e8c: aa0103e8     	mov	x8, x1
    1e90: b9000d28     	str	w8, [x9, #0xc]
    1e94: 3941dfe8     	ldrb	w8, [sp, #0x77]
    1e98: 360000a8     	tbz	w8, #0x0, 0x1eac <__Z8findWebpv+0x2bc>
    1e9c: 14000001     	b	0x1ea0 <__Z8findWebpv+0x2b0>
    1ea0: 9101e3e0     	add	x0, sp, #0x78
    1ea4: 94000000     	bl	0x1ea4 <__Z8findWebpv+0x2b4>
    1ea8: 14000001     	b	0x1eac <__Z8findWebpv+0x2bc>
    1eac: 1400000a     	b	0x1ed4 <__Z8findWebpv+0x2e4>
    1eb0: 910263e0     	add	x0, sp, #0x98
    1eb4: 94000000     	bl	0x1eb4 <__Z8findWebpv+0x2c4>
    1eb8: d10203a0     	sub	x0, x29, #0x80
    1ebc: 94000000     	bl	0x1ebc <__Z8findWebpv+0x2cc>
    1ec0: 14000001     	b	0x1ec4 <__Z8findWebpv+0x2d4>
    1ec4: d10163a0     	sub	x0, x29, #0x58
    1ec8: 94000000     	bl	0x1ec8 <__Z8findWebpv+0x2d8>
    1ecc: 14000001     	b	0x1ed0 <__Z8findWebpv+0x2e0>
    1ed0: 17ffff65     	b	0x1c64 <__Z8findWebpv+0x74>
    1ed4: 910263e0     	add	x0, sp, #0x98
    1ed8: 94000000     	bl	0x1ed8 <__Z8findWebpv+0x2e8>
    1edc: 14000001     	b	0x1ee0 <__Z8findWebpv+0x2f0>
    1ee0: d10203a0     	sub	x0, x29, #0x80
    1ee4: 94000000     	bl	0x1ee4 <__Z8findWebpv+0x2f4>
    1ee8: 14000001     	b	0x1eec <__Z8findWebpv+0x2fc>
    1eec: d10103a0     	sub	x0, x29, #0x40
    1ef0: 94000000     	bl	0x1ef0 <__Z8findWebpv+0x300>
    1ef4: 14000031     	b	0x1fb8 <__Z8findWebpv+0x3c8>
    1ef8: 90000000     	adrp	x0, 0x1000 <__Z7findJPGv+0x244>
    1efc: f9400000     	ldr	x0, [x0]
    1f00: 90000001     	adrp	x1, 0x1000 <__Z7findJPGv+0x244>
    1f04: 91000021     	add	x1, x1, #0x0
    1f08: 94000000     	bl	0x1f08 <__Z8findWebpv+0x318>
    1f0c: f9000be0     	str	x0, [sp, #0x10]
    1f10: 14000001     	b	0x1f14 <__Z8findWebpv+0x324>
    1f14: f9400be0     	ldr	x0, [sp, #0x10]
    1f18: 90000001     	adrp	x1, 0x1000 <__Z7findJPGv+0x244>
    1f1c: 91000021     	add	x1, x1, #0x0
    1f20: 94000000     	bl	0x1f20 <__Z8findWebpv+0x330>
    1f24: 14000001     	b	0x1f28 <__Z8findWebpv+0x338>
    1f28: 52800040     	mov	w0, #0x2                ; =2
    1f2c: 94000000     	bl	0x1f2c <__Z8findWebpv+0x33c>
    1f30: 14000001     	b	0x1f34 <__Z8findWebpv+0x344>
    1f34: f94027e0     	ldr	x0, [sp, #0x48]
    1f38: 94000000     	bl	0x1f38 <__Z8findWebpv+0x348>
    1f3c: aa0003e1     	mov	x1, x0
    1f40: 90000000     	adrp	x0, 0x1000 <__Z7findJPGv+0x244>
    1f44: f9400000     	ldr	x0, [x0]
    1f48: 94000000     	bl	0x1f48 <__Z8findWebpv+0x358>
    1f4c: f90007e0     	str	x0, [sp, #0x8]
    1f50: 14000001     	b	0x1f54 <__Z8findWebpv+0x364>
    1f54: f94007e0     	ldr	x0, [sp, #0x8]
    1f58: 90000001     	adrp	x1, 0x1000 <__Z7findJPGv+0x244>
    1f5c: 91000021     	add	x1, x1, #0x0
    1f60: 94000000     	bl	0x1f60 <__Z8findWebpv+0x370>
    1f64: f90003e0     	str	x0, [sp]
    1f68: 14000001     	b	0x1f6c <__Z8findWebpv+0x37c>
    1f6c: f94003e0     	ldr	x0, [sp]
    1f70: 90000001     	adrp	x1, 0x1000 <__Z7findJPGv+0x244>
    1f74: 91000021     	add	x1, x1, #0x0
    1f78: 94000000     	bl	0x1f78 <__Z8findWebpv+0x388>
    1f7c: 14000001     	b	0x1f80 <__Z8findWebpv+0x390>
    1f80: 52800028     	mov	w8, #0x1                ; =1
    1f84: 12000108     	and	w8, w8, #0x1
    1f88: 12000108     	and	w8, w8, #0x1
    1f8c: 381e73a8     	sturb	w8, [x29, #-0x19]
    1f90: 385e73a8     	ldurb	w8, [x29, #-0x19]
    1f94: 370000a8     	tbnz	w8, #0x0, 0x1fa8 <__Z8findWebpv+0x3b8>
    1f98: 14000001     	b	0x1f9c <__Z8findWebpv+0x3ac>
    1f9c: f94027e0     	ldr	x0, [sp, #0x48]
    1fa0: 94000000     	bl	0x1fa0 <__Z8findWebpv+0x3b0>
    1fa4: 14000001     	b	0x1fa8 <__Z8findWebpv+0x3b8>
    1fa8: a9537bfd     	ldp	x29, x30, [sp, #0x130]
    1fac: a9526ffc     	ldp	x28, x27, [sp, #0x120]
    1fb0: 910503ff     	add	sp, sp, #0x140
    1fb4: d65f03c0     	ret
    1fb8: f94027e0     	ldr	x0, [sp, #0x48]
    1fbc: 94000000     	bl	0x1fbc <__Z8findWebpv+0x3cc>
    1fc0: 14000001     	b	0x1fc4 <__Z8findWebpv+0x3d4>
    1fc4: f94023e8     	ldr	x8, [sp, #0x40]
    1fc8: f9400900     	ldr	x0, [x8, #0x10]
    1fcc: 94000000     	bl	0x1fcc <__Z8findWebpv+0x3dc>

0000000000001fd0 <__Z8findHEICv>:
    1fd0: d10503ff     	sub	sp, sp, #0x140
    1fd4: a9126ffc     	stp	x28, x27, [sp, #0x120]
    1fd8: a9137bfd     	stp	x29, x30, [sp, #0x130]
    1fdc: 9104c3fd     	add	x29, sp, #0x130
    1fe0: d10163a9     	sub	x9, x29, #0x58
    1fe4: f90023e9     	str	x9, [sp, #0x40]
    1fe8: aa0803e0     	mov	x0, x8
    1fec: f90027e0     	str	x0, [sp, #0x48]
    1ff0: aa0003e8     	mov	x8, x0
    1ff4: f9002128     	str	x8, [x9, #0x40]
    1ff8: 52800008     	mov	w8, #0x0                ; =0
    1ffc: 12000108     	and	w8, w8, #0x1
    2000: 12000108     	and	w8, w8, #0x1
    2004: 381e73a8     	sturb	w8, [x29, #-0x19]
    2008: 94000000     	bl	0x2008 <__Z8findHEICv+0x38>
    200c: d10103a8     	sub	x8, x29, #0x40
    2010: 94000000     	bl	0x2010 <__Z8findHEICv+0x40>
    2014: 14000001     	b	0x2018 <__Z8findHEICv+0x48>
    2018: f94023e8     	ldr	x8, [sp, #0x40]
    201c: d10103a9     	sub	x9, x29, #0x40
    2020: f9001909     	str	x9, [x8, #0x30]
    2024: f9401900     	ldr	x0, [x8, #0x30]
    2028: 94000000     	bl	0x2028 <__Z8findHEICv+0x58>
    202c: f94023e8     	ldr	x8, [sp, #0x40]
    2030: f9000100     	str	x0, [x8]
    2034: f9401900     	ldr	x0, [x8, #0x30]
    2038: 94000000     	bl	0x2038 <__Z8findHEICv+0x68>
    203c: f81a03a0     	stur	x0, [x29, #-0x60]
    2040: 14000001     	b	0x2044 <__Z8findHEICv+0x74>
    2044: d10163a0     	sub	x0, x29, #0x58
    2048: d10183a1     	sub	x1, x29, #0x60
    204c: 94000000     	bl	0x204c <__Z8findHEICv+0x7c>
    2050: b9003fe0     	str	w0, [sp, #0x3c]
    2054: 14000001     	b	0x2058 <__Z8findHEICv+0x88>
    2058: b9403fe8     	ldr	w8, [sp, #0x3c]
    205c: 370001e8     	tbnz	w8, #0x0, 0x2098 <__Z8findHEICv+0xc8>
    2060: 14000001     	b	0x2064 <__Z8findHEICv+0x94>
    2064: d10103a0     	sub	x0, x29, #0x40
    2068: 94000000     	bl	0x2068 <__Z8findHEICv+0x98>
    206c: 1400009b     	b	0x22d8 <__Z8findHEICv+0x308>
    2070: f94023e9     	ldr	x9, [sp, #0x40]
    2074: f9000920     	str	x0, [x9, #0x10]
    2078: aa0103e8     	mov	x8, x1
    207c: b9000d28     	str	w8, [x9, #0xc]
    2080: 140000c6     	b	0x2398 <__Z8findHEICv+0x3c8>
    2084: f94023e9     	ldr	x9, [sp, #0x40]
    2088: f9000920     	str	x0, [x9, #0x10]
    208c: aa0103e8     	mov	x8, x1
    2090: b9000d28     	str	w8, [x9, #0xc]
    2094: 1400008e     	b	0x22cc <__Z8findHEICv+0x2fc>
    2098: d10163a0     	sub	x0, x29, #0x58
    209c: 94000000     	bl	0x209c <__Z8findHEICv+0xcc>
    20a0: f9001be0     	str	x0, [sp, #0x30]
    20a4: 14000001     	b	0x20a8 <__Z8findHEICv+0xd8>
    20a8: f9401be8     	ldr	x8, [sp, #0x30]
    20ac: f81983a8     	stur	x8, [x29, #-0x68]
    20b0: d10203a0     	sub	x0, x29, #0x80
    20b4: 90000001     	adrp	x1, 0x2000 <__Z8findHEICv+0x30>
    20b8: 91000021     	add	x1, x1, #0x0
    20bc: 94000000     	bl	0x20bc <__Z8findHEICv+0xec>
    20c0: 14000001     	b	0x20c4 <__Z8findHEICv+0xf4>
    20c4: 910263e8     	add	x8, sp, #0x98
    20c8: d10203a0     	sub	x0, x29, #0x80
    20cc: 94000000     	bl	0x20cc <__Z8findHEICv+0xfc>
    20d0: 14000001     	b	0x20d4 <__Z8findHEICv+0x104>
    20d4: f85983a0     	ldur	x0, [x29, #-0x68]
    20d8: 910263e1     	add	x1, sp, #0x98
    20dc: d2800002     	mov	x2, #0x0                ; =0
    20e0: f90017e2     	str	x2, [sp, #0x28]
    20e4: 94000000     	bl	0x20e4 <__Z8findHEICv+0x114>
    20e8: f94017e2     	ldr	x2, [sp, #0x28]
    20ec: aa0003e8     	mov	x8, x0
    20f0: b90097e8     	str	w8, [sp, #0x94]
    20f4: f85983a0     	ldur	x0, [x29, #-0x68]
    20f8: d10203a1     	sub	x1, x29, #0x80
    20fc: 94000000     	bl	0x20fc <__Z8findHEICv+0x12c>
    2100: aa0003e8     	mov	x8, x0
    2104: b90093e8     	str	w8, [sp, #0x90]
    2108: b98097e8     	ldrsw	x8, [sp, #0x94]
    210c: b1000508     	adds	x8, x8, #0x1
    2110: 1a9f17e8     	cset	w8, eq
    2114: 5280002a     	mov	w10, #0x1               ; =1
    2118: 52800009     	mov	w9, #0x0                ; =0
    211c: 1200012b     	and	w11, w9, #0x1
    2120: 1200016b     	and	w11, w11, #0x1
    2124: 3901dfeb     	strb	w11, [sp, #0x77]
    2128: 12000129     	and	w9, w9, #0x1
    212c: 0a0a0129     	and	w9, w9, w10
    2130: 39015fe9     	strb	w9, [sp, #0x57]
    2134: 37000268     	tbnz	w8, #0x0, 0x2180 <__Z8findHEICv+0x1b0>
    2138: 14000001     	b	0x213c <__Z8findHEICv+0x16c>
    213c: f85983a0     	ldur	x0, [x29, #-0x68]
    2140: b98097e1     	ldrsw	x1, [sp, #0x94]
    2144: 9101e3e8     	add	x8, sp, #0x78
    2148: 92800002     	mov	x2, #-0x1               ; =-1
    214c: 94000000     	bl	0x214c <__Z8findHEICv+0x17c>
    2150: 14000001     	b	0x2154 <__Z8findHEICv+0x184>
    2154: 52800028     	mov	w8, #0x1                ; =1
    2158: 12000108     	and	w8, w8, #0x1
    215c: 12000108     	and	w8, w8, #0x1
    2160: 3901dfe8     	strb	w8, [sp, #0x77]
    2164: 9101e3e0     	add	x0, sp, #0x78
    2168: 910263e1     	add	x1, sp, #0x98
    216c: 94000000     	bl	0x216c <__Z8findHEICv+0x19c>
    2170: 52800028     	mov	w8, #0x1                ; =1
    2174: b90027e8     	str	w8, [sp, #0x24]
    2178: 37000360     	tbnz	w0, #0x0, 0x21e4 <__Z8findHEICv+0x214>
    217c: 14000001     	b	0x2180 <__Z8findHEICv+0x1b0>
    2180: b98093e8     	ldrsw	x8, [sp, #0x90]
    2184: b1000508     	adds	x8, x8, #0x1
    2188: 1a9f17e8     	cset	w8, eq
    218c: 52800000     	mov	w0, #0x0                ; =0
    2190: b90023e0     	str	w0, [sp, #0x20]
    2194: 37000228     	tbnz	w8, #0x0, 0x21d8 <__Z8findHEICv+0x208>
    2198: 14000001     	b	0x219c <__Z8findHEICv+0x1cc>
    219c: f85983a0     	ldur	x0, [x29, #-0x68]
    21a0: b98093e1     	ldrsw	x1, [sp, #0x90]
    21a4: 910163e8     	add	x8, sp, #0x58
    21a8: 92800002     	mov	x2, #-0x1               ; =-1
    21ac: 94000000     	bl	0x21ac <__Z8findHEICv+0x1dc>
    21b0: 14000001     	b	0x21b4 <__Z8findHEICv+0x1e4>
    21b4: 52800028     	mov	w8, #0x1                ; =1
    21b8: 12000108     	and	w8, w8, #0x1
    21bc: 12000108     	and	w8, w8, #0x1
    21c0: 39015fe8     	strb	w8, [sp, #0x57]
    21c4: 910163e0     	add	x0, sp, #0x58
    21c8: d10203a1     	sub	x1, x29, #0x80
    21cc: 94000000     	bl	0x21cc <__Z8findHEICv+0x1fc>
    21d0: b90023e0     	str	w0, [sp, #0x20]
    21d4: 14000001     	b	0x21d8 <__Z8findHEICv+0x208>
    21d8: b94023e8     	ldr	w8, [sp, #0x20]
    21dc: b90027e8     	str	w8, [sp, #0x24]
    21e0: 14000001     	b	0x21e4 <__Z8findHEICv+0x214>
    21e4: b94027e8     	ldr	w8, [sp, #0x24]
    21e8: b9001fe8     	str	w8, [sp, #0x1c]
    21ec: 39415fe8     	ldrb	w8, [sp, #0x57]
    21f0: 360000a8     	tbz	w8, #0x0, 0x2204 <__Z8findHEICv+0x234>
    21f4: 14000001     	b	0x21f8 <__Z8findHEICv+0x228>
    21f8: 910163e0     	add	x0, sp, #0x58
    21fc: 94000000     	bl	0x21fc <__Z8findHEICv+0x22c>
    2200: 14000001     	b	0x2204 <__Z8findHEICv+0x234>
    2204: 3941dfe8     	ldrb	w8, [sp, #0x77]
    2208: 360000a8     	tbz	w8, #0x0, 0x221c <__Z8findHEICv+0x24c>
    220c: 14000001     	b	0x2210 <__Z8findHEICv+0x240>
    2210: 9101e3e0     	add	x0, sp, #0x78
    2214: 94000000     	bl	0x2214 <__Z8findHEICv+0x244>
    2218: 14000001     	b	0x221c <__Z8findHEICv+0x24c>
    221c: b9401fe8     	ldr	w8, [sp, #0x1c]
    2220: 36000388     	tbz	w8, #0x0, 0x2290 <__Z8findHEICv+0x2c0>
    2224: 14000001     	b	0x2228 <__Z8findHEICv+0x258>
    2228: f94027e0     	ldr	x0, [sp, #0x48]
    222c: f85983a1     	ldur	x1, [x29, #-0x68]
    2230: 94000000     	bl	0x2230 <__Z8findHEICv+0x260>
    2234: 14000001     	b	0x2238 <__Z8findHEICv+0x268>
    2238: 14000016     	b	0x2290 <__Z8findHEICv+0x2c0>
    223c: f94023e9     	ldr	x9, [sp, #0x40]
    2240: f9000920     	str	x0, [x9, #0x10]
    2244: aa0103e8     	mov	x8, x1
    2248: b9000d28     	str	w8, [x9, #0xc]
    224c: 1400001d     	b	0x22c0 <__Z8findHEICv+0x2f0>
    2250: f94023e9     	ldr	x9, [sp, #0x40]
    2254: f9000920     	str	x0, [x9, #0x10]
    2258: aa0103e8     	mov	x8, x1
    225c: b9000d28     	str	w8, [x9, #0xc]
    2260: 14000015     	b	0x22b4 <__Z8findHEICv+0x2e4>
    2264: f94023e9     	ldr	x9, [sp, #0x40]
    2268: f9000920     	str	x0, [x9, #0x10]
    226c: aa0103e8     	mov	x8, x1
    2270: b9000d28     	str	w8, [x9, #0xc]
    2274: 3941dfe8     	ldrb	w8, [sp, #0x77]
    2278: 360000a8     	tbz	w8, #0x0, 0x228c <__Z8findHEICv+0x2bc>
    227c: 14000001     	b	0x2280 <__Z8findHEICv+0x2b0>
    2280: 9101e3e0     	add	x0, sp, #0x78
    2284: 94000000     	bl	0x2284 <__Z8findHEICv+0x2b4>
    2288: 14000001     	b	0x228c <__Z8findHEICv+0x2bc>
    228c: 1400000a     	b	0x22b4 <__Z8findHEICv+0x2e4>
    2290: 910263e0     	add	x0, sp, #0x98
    2294: 94000000     	bl	0x2294 <__Z8findHEICv+0x2c4>
    2298: d10203a0     	sub	x0, x29, #0x80
    229c: 94000000     	bl	0x229c <__Z8findHEICv+0x2cc>
    22a0: 14000001     	b	0x22a4 <__Z8findHEICv+0x2d4>
    22a4: d10163a0     	sub	x0, x29, #0x58
    22a8: 94000000     	bl	0x22a8 <__Z8findHEICv+0x2d8>
    22ac: 14000001     	b	0x22b0 <__Z8findHEICv+0x2e0>
    22b0: 17ffff65     	b	0x2044 <__Z8findHEICv+0x74>
    22b4: 910263e0     	add	x0, sp, #0x98
    22b8: 94000000     	bl	0x22b8 <__Z8findHEICv+0x2e8>
    22bc: 14000001     	b	0x22c0 <__Z8findHEICv+0x2f0>
    22c0: d10203a0     	sub	x0, x29, #0x80
    22c4: 94000000     	bl	0x22c4 <__Z8findHEICv+0x2f4>
    22c8: 14000001     	b	0x22cc <__Z8findHEICv+0x2fc>
    22cc: d10103a0     	sub	x0, x29, #0x40
    22d0: 94000000     	bl	0x22d0 <__Z8findHEICv+0x300>
    22d4: 14000031     	b	0x2398 <__Z8findHEICv+0x3c8>
    22d8: 90000000     	adrp	x0, 0x2000 <__Z8findHEICv+0x30>
    22dc: f9400000     	ldr	x0, [x0]
    22e0: 90000001     	adrp	x1, 0x2000 <__Z8findHEICv+0x30>
    22e4: 91000021     	add	x1, x1, #0x0
    22e8: 94000000     	bl	0x22e8 <__Z8findHEICv+0x318>
    22ec: f9000be0     	str	x0, [sp, #0x10]
    22f0: 14000001     	b	0x22f4 <__Z8findHEICv+0x324>
    22f4: f9400be0     	ldr	x0, [sp, #0x10]
    22f8: 90000001     	adrp	x1, 0x2000 <__Z8findHEICv+0x30>
    22fc: 91000021     	add	x1, x1, #0x0
    2300: 94000000     	bl	0x2300 <__Z8findHEICv+0x330>
    2304: 14000001     	b	0x2308 <__Z8findHEICv+0x338>
    2308: 52800040     	mov	w0, #0x2                ; =2
    230c: 94000000     	bl	0x230c <__Z8findHEICv+0x33c>
    2310: 14000001     	b	0x2314 <__Z8findHEICv+0x344>
    2314: f94027e0     	ldr	x0, [sp, #0x48]
    2318: 94000000     	bl	0x2318 <__Z8findHEICv+0x348>
    231c: aa0003e1     	mov	x1, x0
    2320: 90000000     	adrp	x0, 0x2000 <__Z8findHEICv+0x30>
    2324: f9400000     	ldr	x0, [x0]
    2328: 94000000     	bl	0x2328 <__Z8findHEICv+0x358>
    232c: f90007e0     	str	x0, [sp, #0x8]
    2330: 14000001     	b	0x2334 <__Z8findHEICv+0x364>
    2334: f94007e0     	ldr	x0, [sp, #0x8]
    2338: 90000001     	adrp	x1, 0x2000 <__Z8findHEICv+0x30>
    233c: 91000021     	add	x1, x1, #0x0
    2340: 94000000     	bl	0x2340 <__Z8findHEICv+0x370>
    2344: f90003e0     	str	x0, [sp]
    2348: 14000001     	b	0x234c <__Z8findHEICv+0x37c>
    234c: f94003e0     	ldr	x0, [sp]
    2350: 90000001     	adrp	x1, 0x2000 <__Z8findHEICv+0x30>
    2354: 91000021     	add	x1, x1, #0x0
    2358: 94000000     	bl	0x2358 <__Z8findHEICv+0x388>
    235c: 14000001     	b	0x2360 <__Z8findHEICv+0x390>
    2360: 52800028     	mov	w8, #0x1                ; =1
    2364: 12000108     	and	w8, w8, #0x1
    2368: 12000108     	and	w8, w8, #0x1
    236c: 381e73a8     	sturb	w8, [x29, #-0x19]
    2370: 385e73a8     	ldurb	w8, [x29, #-0x19]
    2374: 370000a8     	tbnz	w8, #0x0, 0x2388 <__Z8findHEICv+0x3b8>
    2378: 14000001     	b	0x237c <__Z8findHEICv+0x3ac>
    237c: f94027e0     	ldr	x0, [sp, #0x48]
    2380: 94000000     	bl	0x2380 <__Z8findHEICv+0x3b0>
    2384: 14000001     	b	0x2388 <__Z8findHEICv+0x3b8>
    2388: a9537bfd     	ldp	x29, x30, [sp, #0x130]
    238c: a9526ffc     	ldp	x28, x27, [sp, #0x120]
    2390: 910503ff     	add	sp, sp, #0x140
    2394: d65f03c0     	ret
    2398: f94027e0     	ldr	x0, [sp, #0x48]
    239c: 94000000     	bl	0x239c <__Z8findHEICv+0x3cc>
    23a0: 14000001     	b	0x23a4 <__Z8findHEICv+0x3d4>
    23a4: f94023e8     	ldr	x8, [sp, #0x40]
    23a8: f9400900     	ldr	x0, [x8, #0x10]
    23ac: 94000000     	bl	0x23ac <__Z8findHEICv+0x3dc>

00000000000023b0 <__Z7findSVGv>:
    23b0: d10503ff     	sub	sp, sp, #0x140
    23b4: a9126ffc     	stp	x28, x27, [sp, #0x120]
    23b8: a9137bfd     	stp	x29, x30, [sp, #0x130]
    23bc: 9104c3fd     	add	x29, sp, #0x130
    23c0: d10163a9     	sub	x9, x29, #0x58
    23c4: f90023e9     	str	x9, [sp, #0x40]
    23c8: aa0803e0     	mov	x0, x8
    23cc: f90027e0     	str	x0, [sp, #0x48]
    23d0: aa0003e8     	mov	x8, x0
    23d4: f9002128     	str	x8, [x9, #0x40]
    23d8: 52800008     	mov	w8, #0x0                ; =0
    23dc: 12000108     	and	w8, w8, #0x1
    23e0: 12000108     	and	w8, w8, #0x1
    23e4: 381e73a8     	sturb	w8, [x29, #-0x19]
    23e8: 94000000     	bl	0x23e8 <__Z7findSVGv+0x38>
    23ec: d10103a8     	sub	x8, x29, #0x40
    23f0: 94000000     	bl	0x23f0 <__Z7findSVGv+0x40>
    23f4: 14000001     	b	0x23f8 <__Z7findSVGv+0x48>
    23f8: f94023e8     	ldr	x8, [sp, #0x40]
    23fc: d10103a9     	sub	x9, x29, #0x40
    2400: f9001909     	str	x9, [x8, #0x30]
    2404: f9401900     	ldr	x0, [x8, #0x30]
    2408: 94000000     	bl	0x2408 <__Z7findSVGv+0x58>
    240c: f94023e8     	ldr	x8, [sp, #0x40]
    2410: f9000100     	str	x0, [x8]
    2414: f9401900     	ldr	x0, [x8, #0x30]
    2418: 94000000     	bl	0x2418 <__Z7findSVGv+0x68>
    241c: f81a03a0     	stur	x0, [x29, #-0x60]
    2420: 14000001     	b	0x2424 <__Z7findSVGv+0x74>
    2424: d10163a0     	sub	x0, x29, #0x58
    2428: d10183a1     	sub	x1, x29, #0x60
    242c: 94000000     	bl	0x242c <__Z7findSVGv+0x7c>
    2430: b9003fe0     	str	w0, [sp, #0x3c]
    2434: 14000001     	b	0x2438 <__Z7findSVGv+0x88>
    2438: b9403fe8     	ldr	w8, [sp, #0x3c]
    243c: 370001e8     	tbnz	w8, #0x0, 0x2478 <__Z7findSVGv+0xc8>
    2440: 14000001     	b	0x2444 <__Z7findSVGv+0x94>
    2444: d10103a0     	sub	x0, x29, #0x40
    2448: 94000000     	bl	0x2448 <__Z7findSVGv+0x98>
    244c: 1400009b     	b	0x26b8 <__Z7findSVGv+0x308>
    2450: f94023e9     	ldr	x9, [sp, #0x40]
    2454: f9000920     	str	x0, [x9, #0x10]
    2458: aa0103e8     	mov	x8, x1
    245c: b9000d28     	str	w8, [x9, #0xc]
    2460: 140000c6     	b	0x2778 <__Z7findSVGv+0x3c8>
    2464: f94023e9     	ldr	x9, [sp, #0x40]
    2468: f9000920     	str	x0, [x9, #0x10]
    246c: aa0103e8     	mov	x8, x1
    2470: b9000d28     	str	w8, [x9, #0xc]
    2474: 1400008e     	b	0x26ac <__Z7findSVGv+0x2fc>
    2478: d10163a0     	sub	x0, x29, #0x58
    247c: 94000000     	bl	0x247c <__Z7findSVGv+0xcc>
    2480: f9001be0     	str	x0, [sp, #0x30]
    2484: 14000001     	b	0x2488 <__Z7findSVGv+0xd8>
    2488: f9401be8     	ldr	x8, [sp, #0x30]
    248c: f81983a8     	stur	x8, [x29, #-0x68]
    2490: d10203a0     	sub	x0, x29, #0x80
    2494: 90000001     	adrp	x1, 0x2000 <__Z8findHEICv+0x30>
    2498: 91000021     	add	x1, x1, #0x0
    249c: 94000000     	bl	0x249c <__Z7findSVGv+0xec>
    24a0: 14000001     	b	0x24a4 <__Z7findSVGv+0xf4>
    24a4: 910263e8     	add	x8, sp, #0x98
    24a8: d10203a0     	sub	x0, x29, #0x80
    24ac: 94000000     	bl	0x24ac <__Z7findSVGv+0xfc>
    24b0: 14000001     	b	0x24b4 <__Z7findSVGv+0x104>
    24b4: f85983a0     	ldur	x0, [x29, #-0x68]
    24b8: 910263e1     	add	x1, sp, #0x98
    24bc: d2800002     	mov	x2, #0x0                ; =0
    24c0: f90017e2     	str	x2, [sp, #0x28]
    24c4: 94000000     	bl	0x24c4 <__Z7findSVGv+0x114>
    24c8: f94017e2     	ldr	x2, [sp, #0x28]
    24cc: aa0003e8     	mov	x8, x0
    24d0: b90097e8     	str	w8, [sp, #0x94]
    24d4: f85983a0     	ldur	x0, [x29, #-0x68]
    24d8: d10203a1     	sub	x1, x29, #0x80
    24dc: 94000000     	bl	0x24dc <__Z7findSVGv+0x12c>
    24e0: aa0003e8     	mov	x8, x0
    24e4: b90093e8     	str	w8, [sp, #0x90]
    24e8: b98097e8     	ldrsw	x8, [sp, #0x94]
    24ec: b1000508     	adds	x8, x8, #0x1
    24f0: 1a9f17e8     	cset	w8, eq
    24f4: 5280002a     	mov	w10, #0x1               ; =1
    24f8: 52800009     	mov	w9, #0x0                ; =0
    24fc: 1200012b     	and	w11, w9, #0x1
    2500: 1200016b     	and	w11, w11, #0x1
    2504: 3901dfeb     	strb	w11, [sp, #0x77]
    2508: 12000129     	and	w9, w9, #0x1
    250c: 0a0a0129     	and	w9, w9, w10
    2510: 39015fe9     	strb	w9, [sp, #0x57]
    2514: 37000268     	tbnz	w8, #0x0, 0x2560 <__Z7findSVGv+0x1b0>
    2518: 14000001     	b	0x251c <__Z7findSVGv+0x16c>
    251c: f85983a0     	ldur	x0, [x29, #-0x68]
    2520: b98097e1     	ldrsw	x1, [sp, #0x94]
    2524: 9101e3e8     	add	x8, sp, #0x78
    2528: 92800002     	mov	x2, #-0x1               ; =-1
    252c: 94000000     	bl	0x252c <__Z7findSVGv+0x17c>
    2530: 14000001     	b	0x2534 <__Z7findSVGv+0x184>
    2534: 52800028     	mov	w8, #0x1                ; =1
    2538: 12000108     	and	w8, w8, #0x1
    253c: 12000108     	and	w8, w8, #0x1
    2540: 3901dfe8     	strb	w8, [sp, #0x77]
    2544: 9101e3e0     	add	x0, sp, #0x78
    2548: 910263e1     	add	x1, sp, #0x98
    254c: 94000000     	bl	0x254c <__Z7findSVGv+0x19c>
    2550: 52800028     	mov	w8, #0x1                ; =1
    2554: b90027e8     	str	w8, [sp, #0x24]
    2558: 37000360     	tbnz	w0, #0x0, 0x25c4 <__Z7findSVGv+0x214>
    255c: 14000001     	b	0x2560 <__Z7findSVGv+0x1b0>
    2560: b98093e8     	ldrsw	x8, [sp, #0x90]
    2564: b1000508     	adds	x8, x8, #0x1
    2568: 1a9f17e8     	cset	w8, eq
    256c: 52800000     	mov	w0, #0x0                ; =0
    2570: b90023e0     	str	w0, [sp, #0x20]
    2574: 37000228     	tbnz	w8, #0x0, 0x25b8 <__Z7findSVGv+0x208>
    2578: 14000001     	b	0x257c <__Z7findSVGv+0x1cc>
    257c: f85983a0     	ldur	x0, [x29, #-0x68]
    2580: b98093e1     	ldrsw	x1, [sp, #0x90]
    2584: 910163e8     	add	x8, sp, #0x58
    2588: 92800002     	mov	x2, #-0x1               ; =-1
    258c: 94000000     	bl	0x258c <__Z7findSVGv+0x1dc>
    2590: 14000001     	b	0x2594 <__Z7findSVGv+0x1e4>
    2594: 52800028     	mov	w8, #0x1                ; =1
    2598: 12000108     	and	w8, w8, #0x1
    259c: 12000108     	and	w8, w8, #0x1
    25a0: 39015fe8     	strb	w8, [sp, #0x57]
    25a4: 910163e0     	add	x0, sp, #0x58
    25a8: d10203a1     	sub	x1, x29, #0x80
    25ac: 94000000     	bl	0x25ac <__Z7findSVGv+0x1fc>
    25b0: b90023e0     	str	w0, [sp, #0x20]
    25b4: 14000001     	b	0x25b8 <__Z7findSVGv+0x208>
    25b8: b94023e8     	ldr	w8, [sp, #0x20]
    25bc: b90027e8     	str	w8, [sp, #0x24]
    25c0: 14000001     	b	0x25c4 <__Z7findSVGv+0x214>
    25c4: b94027e8     	ldr	w8, [sp, #0x24]
    25c8: b9001fe8     	str	w8, [sp, #0x1c]
    25cc: 39415fe8     	ldrb	w8, [sp, #0x57]
    25d0: 360000a8     	tbz	w8, #0x0, 0x25e4 <__Z7findSVGv+0x234>
    25d4: 14000001     	b	0x25d8 <__Z7findSVGv+0x228>
    25d8: 910163e0     	add	x0, sp, #0x58
    25dc: 94000000     	bl	0x25dc <__Z7findSVGv+0x22c>
    25e0: 14000001     	b	0x25e4 <__Z7findSVGv+0x234>
    25e4: 3941dfe8     	ldrb	w8, [sp, #0x77]
    25e8: 360000a8     	tbz	w8, #0x0, 0x25fc <__Z7findSVGv+0x24c>
    25ec: 14000001     	b	0x25f0 <__Z7findSVGv+0x240>
    25f0: 9101e3e0     	add	x0, sp, #0x78
    25f4: 94000000     	bl	0x25f4 <__Z7findSVGv+0x244>
    25f8: 14000001     	b	0x25fc <__Z7findSVGv+0x24c>
    25fc: b9401fe8     	ldr	w8, [sp, #0x1c]
    2600: 36000388     	tbz	w8, #0x0, 0x2670 <__Z7findSVGv+0x2c0>
    2604: 14000001     	b	0x2608 <__Z7findSVGv+0x258>
    2608: f94027e0     	ldr	x0, [sp, #0x48]
    260c: f85983a1     	ldur	x1, [x29, #-0x68]
    2610: 94000000     	bl	0x2610 <__Z7findSVGv+0x260>
    2614: 14000001     	b	0x2618 <__Z7findSVGv+0x268>
    2618: 14000016     	b	0x2670 <__Z7findSVGv+0x2c0>
    261c: f94023e9     	ldr	x9, [sp, #0x40]
    2620: f9000920     	str	x0, [x9, #0x10]
    2624: aa0103e8     	mov	x8, x1
    2628: b9000d28     	str	w8, [x9, #0xc]
    262c: 1400001d     	b	0x26a0 <__Z7findSVGv+0x2f0>
    2630: f94023e9     	ldr	x9, [sp, #0x40]
    2634: f9000920     	str	x0, [x9, #0x10]
    2638: aa0103e8     	mov	x8, x1
    263c: b9000d28     	str	w8, [x9, #0xc]
    2640: 14000015     	b	0x2694 <__Z7findSVGv+0x2e4>
    2644: f94023e9     	ldr	x9, [sp, #0x40]
    2648: f9000920     	str	x0, [x9, #0x10]
    264c: aa0103e8     	mov	x8, x1
    2650: b9000d28     	str	w8, [x9, #0xc]
    2654: 3941dfe8     	ldrb	w8, [sp, #0x77]
    2658: 360000a8     	tbz	w8, #0x0, 0x266c <__Z7findSVGv+0x2bc>
    265c: 14000001     	b	0x2660 <__Z7findSVGv+0x2b0>
    2660: 9101e3e0     	add	x0, sp, #0x78
    2664: 94000000     	bl	0x2664 <__Z7findSVGv+0x2b4>
    2668: 14000001     	b	0x266c <__Z7findSVGv+0x2bc>
    266c: 1400000a     	b	0x2694 <__Z7findSVGv+0x2e4>
    2670: 910263e0     	add	x0, sp, #0x98
    2674: 94000000     	bl	0x2674 <__Z7findSVGv+0x2c4>
    2678: d10203a0     	sub	x0, x29, #0x80
    267c: 94000000     	bl	0x267c <__Z7findSVGv+0x2cc>
    2680: 14000001     	b	0x2684 <__Z7findSVGv+0x2d4>
    2684: d10163a0     	sub	x0, x29, #0x58
    2688: 94000000     	bl	0x2688 <__Z7findSVGv+0x2d8>
    268c: 14000001     	b	0x2690 <__Z7findSVGv+0x2e0>
    2690: 17ffff65     	b	0x2424 <__Z7findSVGv+0x74>
    2694: 910263e0     	add	x0, sp, #0x98
    2698: 94000000     	bl	0x2698 <__Z7findSVGv+0x2e8>
    269c: 14000001     	b	0x26a0 <__Z7findSVGv+0x2f0>
    26a0: d10203a0     	sub	x0, x29, #0x80
    26a4: 94000000     	bl	0x26a4 <__Z7findSVGv+0x2f4>
    26a8: 14000001     	b	0x26ac <__Z7findSVGv+0x2fc>
    26ac: d10103a0     	sub	x0, x29, #0x40
    26b0: 94000000     	bl	0x26b0 <__Z7findSVGv+0x300>
    26b4: 14000031     	b	0x2778 <__Z7findSVGv+0x3c8>
    26b8: 90000000     	adrp	x0, 0x2000 <__Z8findHEICv+0x30>
    26bc: f9400000     	ldr	x0, [x0]
    26c0: 90000001     	adrp	x1, 0x2000 <__Z8findHEICv+0x30>
    26c4: 91000021     	add	x1, x1, #0x0
    26c8: 94000000     	bl	0x26c8 <__Z7findSVGv+0x318>
    26cc: f9000be0     	str	x0, [sp, #0x10]
    26d0: 14000001     	b	0x26d4 <__Z7findSVGv+0x324>
    26d4: f9400be0     	ldr	x0, [sp, #0x10]
    26d8: 90000001     	adrp	x1, 0x2000 <__Z8findHEICv+0x30>
    26dc: 91000021     	add	x1, x1, #0x0
    26e0: 94000000     	bl	0x26e0 <__Z7findSVGv+0x330>
    26e4: 14000001     	b	0x26e8 <__Z7findSVGv+0x338>
    26e8: 52800040     	mov	w0, #0x2                ; =2
    26ec: 94000000     	bl	0x26ec <__Z7findSVGv+0x33c>
    26f0: 14000001     	b	0x26f4 <__Z7findSVGv+0x344>
    26f4: f94027e0     	ldr	x0, [sp, #0x48]
    26f8: 94000000     	bl	0x26f8 <__Z7findSVGv+0x348>
    26fc: aa0003e1     	mov	x1, x0
    2700: 90000000     	adrp	x0, 0x2000 <__Z8findHEICv+0x30>
    2704: f9400000     	ldr	x0, [x0]
    2708: 94000000     	bl	0x2708 <__Z7findSVGv+0x358>
    270c: f90007e0     	str	x0, [sp, #0x8]
    2710: 14000001     	b	0x2714 <__Z7findSVGv+0x364>
    2714: f94007e0     	ldr	x0, [sp, #0x8]
    2718: 90000001     	adrp	x1, 0x2000 <__Z8findHEICv+0x30>
    271c: 91000021     	add	x1, x1, #0x0
    2720: 94000000     	bl	0x2720 <__Z7findSVGv+0x370>
    2724: f90003e0     	str	x0, [sp]
    2728: 14000001     	b	0x272c <__Z7findSVGv+0x37c>
    272c: f94003e0     	ldr	x0, [sp]
    2730: 90000001     	adrp	x1, 0x2000 <__Z8findHEICv+0x30>
    2734: 91000021     	add	x1, x1, #0x0
    2738: 94000000     	bl	0x2738 <__Z7findSVGv+0x388>
    273c: 14000001     	b	0x2740 <__Z7findSVGv+0x390>
    2740: 52800028     	mov	w8, #0x1                ; =1
    2744: 12000108     	and	w8, w8, #0x1
    2748: 12000108     	and	w8, w8, #0x1
    274c: 381e73a8     	sturb	w8, [x29, #-0x19]
    2750: 385e73a8     	ldurb	w8, [x29, #-0x19]
    2754: 370000a8     	tbnz	w8, #0x0, 0x2768 <__Z7findSVGv+0x3b8>
    2758: 14000001     	b	0x275c <__Z7findSVGv+0x3ac>
    275c: f94027e0     	ldr	x0, [sp, #0x48]
    2760: 94000000     	bl	0x2760 <__Z7findSVGv+0x3b0>
    2764: 14000001     	b	0x2768 <__Z7findSVGv+0x3b8>
    2768: a9537bfd     	ldp	x29, x30, [sp, #0x130]
    276c: a9526ffc     	ldp	x28, x27, [sp, #0x120]
    2770: 910503ff     	add	sp, sp, #0x140
    2774: d65f03c0     	ret
    2778: f94027e0     	ldr	x0, [sp, #0x48]
    277c: 94000000     	bl	0x277c <__Z7findSVGv+0x3cc>
    2780: 14000001     	b	0x2784 <__Z7findSVGv+0x3d4>
    2784: f94023e8     	ldr	x8, [sp, #0x40]
    2788: f9400900     	ldr	x0, [x8, #0x10]
    278c: 94000000     	bl	0x278c <__Z7findSVGv+0x3dc>

0000000000002790 <__Z7findDocv>:
    2790: d10703ff     	sub	sp, sp, #0x1c0
    2794: a91a6ffc     	stp	x28, x27, [sp, #0x1a0]
    2798: a91b7bfd     	stp	x29, x30, [sp, #0x1b0]
    279c: 9106c3fd     	add	x29, sp, #0x1b0
    27a0: d10343a9     	sub	x9, x29, #0xd0
    27a4: f90027e9     	str	x9, [sp, #0x48]
    27a8: aa0803e0     	mov	x0, x8
    27ac: f9002be0     	str	x0, [sp, #0x50]
    27b0: aa0003e8     	mov	x8, x0
    27b4: f9005d28     	str	x8, [x9, #0xb8]
    27b8: 52800008     	mov	w8, #0x0                ; =0
    27bc: 12000108     	and	w8, w8, #0x1
    27c0: 12000108     	and	w8, w8, #0x1
    27c4: 381e73a8     	sturb	w8, [x29, #-0x19]
    27c8: 94000000     	bl	0x27c8 <__Z7findDocv+0x38>
    27cc: d10103a8     	sub	x8, x29, #0x40
    27d0: 94000000     	bl	0x27d0 <__Z7findDocv+0x40>
    27d4: 14000001     	b	0x27d8 <__Z7findDocv+0x48>
    27d8: f94027e8     	ldr	x8, [sp, #0x48]
    27dc: d10103a9     	sub	x9, x29, #0x40
    27e0: f9005509     	str	x9, [x8, #0xa8]
    27e4: f9405500     	ldr	x0, [x8, #0xa8]
    27e8: 94000000     	bl	0x27e8 <__Z7findDocv+0x58>
    27ec: f94027e8     	ldr	x8, [sp, #0x48]
    27f0: f9003d00     	str	x0, [x8, #0x78]
    27f4: f9405500     	ldr	x0, [x8, #0xa8]
    27f8: 94000000     	bl	0x27f8 <__Z7findDocv+0x68>
    27fc: f94027e8     	ldr	x8, [sp, #0x48]
    2800: f9003900     	str	x0, [x8, #0x70]
    2804: 14000001     	b	0x2808 <__Z7findDocv+0x78>
    2808: d10163a0     	sub	x0, x29, #0x58
    280c: d10183a1     	sub	x1, x29, #0x60
    2810: 94000000     	bl	0x2810 <__Z7findDocv+0x80>
    2814: b90047e0     	str	w0, [sp, #0x44]
    2818: 14000001     	b	0x281c <__Z7findDocv+0x8c>
    281c: b94047e8     	ldr	w8, [sp, #0x44]
    2820: 370001e8     	tbnz	w8, #0x0, 0x285c <__Z7findDocv+0xcc>
    2824: 14000001     	b	0x2828 <__Z7findDocv+0x98>
    2828: d10103a0     	sub	x0, x29, #0x40
    282c: 94000000     	bl	0x282c <__Z7findDocv+0x9c>
    2830: 14000126     	b	0x2cc8 <__Z7findDocv+0x538>
    2834: f94027e9     	ldr	x9, [sp, #0x48]
    2838: f9004520     	str	x0, [x9, #0x88]
    283c: aa0103e8     	mov	x8, x1
    2840: b9008528     	str	w8, [x9, #0x84]
    2844: 14000151     	b	0x2d88 <__Z7findDocv+0x5f8>
    2848: f94027e9     	ldr	x9, [sp, #0x48]
    284c: f9004520     	str	x0, [x9, #0x88]
    2850: aa0103e8     	mov	x8, x1
    2854: b9008528     	str	w8, [x9, #0x84]
    2858: 14000119     	b	0x2cbc <__Z7findDocv+0x52c>
    285c: d10163a0     	sub	x0, x29, #0x58
    2860: 94000000     	bl	0x2860 <__Z7findDocv+0xd0>
    2864: f9001fe0     	str	x0, [sp, #0x38]
    2868: 14000001     	b	0x286c <__Z7findDocv+0xdc>
    286c: f94027e9     	ldr	x9, [sp, #0x48]
    2870: f9401fe8     	ldr	x8, [sp, #0x38]
    2874: f9003528     	str	x8, [x9, #0x68]
    2878: d10203a0     	sub	x0, x29, #0x80
    287c: 90000001     	adrp	x1, 0x2000 <__Z8findHEICv+0x30>
    2880: 91000021     	add	x1, x1, #0x0
    2884: 94000000     	bl	0x2884 <__Z7findDocv+0xf4>
    2888: 14000001     	b	0x288c <__Z7findDocv+0xfc>
    288c: d10263a0     	sub	x0, x29, #0x98
    2890: 90000001     	adrp	x1, 0x2000 <__Z8findHEICv+0x30>
    2894: 91000021     	add	x1, x1, #0x0
    2898: 94000000     	bl	0x2898 <__Z7findDocv+0x108>
    289c: 14000001     	b	0x28a0 <__Z7findDocv+0x110>
    28a0: d102c3a8     	sub	x8, x29, #0xb0
    28a4: d10203a0     	sub	x0, x29, #0x80
    28a8: 94000000     	bl	0x28a8 <__Z7findDocv+0x118>
    28ac: 14000001     	b	0x28b0 <__Z7findDocv+0x120>
    28b0: d10323a8     	sub	x8, x29, #0xc8
    28b4: d10263a0     	sub	x0, x29, #0x98
    28b8: 94000000     	bl	0x28b8 <__Z7findDocv+0x128>
    28bc: 14000001     	b	0x28c0 <__Z7findDocv+0x130>
    28c0: f94027e8     	ldr	x8, [sp, #0x48]
    28c4: f9403500     	ldr	x0, [x8, #0x68]
    28c8: d10203a1     	sub	x1, x29, #0x80
    28cc: d2800002     	mov	x2, #0x0                ; =0
    28d0: f9001be2     	str	x2, [sp, #0x30]
    28d4: 94000000     	bl	0x28d4 <__Z7findDocv+0x144>
    28d8: f9401be2     	ldr	x2, [sp, #0x30]
    28dc: f94027e8     	ldr	x8, [sp, #0x48]
    28e0: aa0003e9     	mov	x9, x0
    28e4: b9000509     	str	w9, [x8, #0x4]
    28e8: f9403500     	ldr	x0, [x8, #0x68]
    28ec: d102c3a1     	sub	x1, x29, #0xb0
    28f0: 94000000     	bl	0x28f0 <__Z7findDocv+0x160>
    28f4: f9401be2     	ldr	x2, [sp, #0x30]
    28f8: f94027e8     	ldr	x8, [sp, #0x48]
    28fc: aa0003e9     	mov	x9, x0
    2900: b9000109     	str	w9, [x8]
    2904: f9403500     	ldr	x0, [x8, #0x68]
    2908: d10263a1     	sub	x1, x29, #0x98
    290c: 94000000     	bl	0x290c <__Z7findDocv+0x17c>
    2910: f9401be2     	ldr	x2, [sp, #0x30]
    2914: f94027e8     	ldr	x8, [sp, #0x48]
    2918: aa0003e9     	mov	x9, x0
    291c: b812c3a9     	stur	w9, [x29, #-0xd4]
    2920: f9403500     	ldr	x0, [x8, #0x68]
    2924: d10323a1     	sub	x1, x29, #0xc8
    2928: 94000000     	bl	0x2928 <__Z7findDocv+0x198>
    292c: f94027e8     	ldr	x8, [sp, #0x48]
    2930: aa0003e9     	mov	x9, x0
    2934: b900dbe9     	str	w9, [sp, #0xd8]
    2938: b9800108     	ldrsw	x8, [x8]
    293c: b1000508     	adds	x8, x8, #0x1
    2940: 1a9f17e8     	cset	w8, eq
    2944: 5280002a     	mov	w10, #0x1               ; =1
    2948: 52800009     	mov	w9, #0x0                ; =0
    294c: 1200012b     	and	w11, w9, #0x1
    2950: 1200016b     	and	w11, w11, #0x1
    2954: 3902ffeb     	strb	w11, [sp, #0xbf]
    2958: 1200012b     	and	w11, w9, #0x1
    295c: 0a0a016b     	and	w11, w11, w10
    2960: 39027feb     	strb	w11, [sp, #0x9f]
    2964: 1200012b     	and	w11, w9, #0x1
    2968: 0a0a016b     	and	w11, w11, w10
    296c: 3901ffeb     	strb	w11, [sp, #0x7f]
    2970: 12000129     	and	w9, w9, #0x1
    2974: 0a0a0129     	and	w9, w9, w10
    2978: 39017fe9     	strb	w9, [sp, #0x5f]
    297c: 37000288     	tbnz	w8, #0x0, 0x29cc <__Z7findDocv+0x23c>
    2980: 14000001     	b	0x2984 <__Z7findDocv+0x1f4>
    2984: f94027e8     	ldr	x8, [sp, #0x48]
    2988: f9403500     	ldr	x0, [x8, #0x68]
    298c: b9800101     	ldrsw	x1, [x8]
    2990: 910303e8     	add	x8, sp, #0xc0
    2994: 92800002     	mov	x2, #-0x1               ; =-1
    2998: 94000000     	bl	0x2998 <__Z7findDocv+0x208>
    299c: 14000001     	b	0x29a0 <__Z7findDocv+0x210>
    29a0: 52800028     	mov	w8, #0x1                ; =1
    29a4: 12000108     	and	w8, w8, #0x1
    29a8: 12000108     	and	w8, w8, #0x1
    29ac: 3902ffe8     	strb	w8, [sp, #0xbf]
    29b0: 910303e0     	add	x0, sp, #0xc0
    29b4: d102c3a1     	sub	x1, x29, #0xb0
    29b8: 94000000     	bl	0x29b8 <__Z7findDocv+0x228>
    29bc: 52800028     	mov	w8, #0x1                ; =1
    29c0: b9002fe8     	str	w8, [sp, #0x2c]
    29c4: 37000960     	tbnz	w0, #0x0, 0x2af0 <__Z7findDocv+0x360>
    29c8: 14000001     	b	0x29cc <__Z7findDocv+0x23c>
    29cc: f94027e8     	ldr	x8, [sp, #0x48]
    29d0: b9800508     	ldrsw	x8, [x8, #0x4]
    29d4: b1000508     	adds	x8, x8, #0x1
    29d8: 1a9f17e8     	cset	w8, eq
    29dc: 37000288     	tbnz	w8, #0x0, 0x2a2c <__Z7findDocv+0x29c>
    29e0: 14000001     	b	0x29e4 <__Z7findDocv+0x254>
    29e4: f94027e8     	ldr	x8, [sp, #0x48]
    29e8: f9403500     	ldr	x0, [x8, #0x68]
    29ec: b9800501     	ldrsw	x1, [x8, #0x4]
    29f0: 910283e8     	add	x8, sp, #0xa0
    29f4: 92800002     	mov	x2, #-0x1               ; =-1
    29f8: 94000000     	bl	0x29f8 <__Z7findDocv+0x268>
    29fc: 14000001     	b	0x2a00 <__Z7findDocv+0x270>
    2a00: 52800028     	mov	w8, #0x1                ; =1
    2a04: 12000108     	and	w8, w8, #0x1
    2a08: 12000108     	and	w8, w8, #0x1
    2a0c: 39027fe8     	strb	w8, [sp, #0x9f]
    2a10: 910283e0     	add	x0, sp, #0xa0
    2a14: d10203a1     	sub	x1, x29, #0x80
    2a18: 94000000     	bl	0x2a18 <__Z7findDocv+0x288>
    2a1c: 52800028     	mov	w8, #0x1                ; =1
    2a20: b9002fe8     	str	w8, [sp, #0x2c]
    2a24: 37000660     	tbnz	w0, #0x0, 0x2af0 <__Z7findDocv+0x360>
    2a28: 14000001     	b	0x2a2c <__Z7findDocv+0x29c>
    2a2c: b892c3a8     	ldursw	x8, [x29, #-0xd4]
    2a30: b1000508     	adds	x8, x8, #0x1
    2a34: 1a9f17e8     	cset	w8, eq
    2a38: 37000288     	tbnz	w8, #0x0, 0x2a88 <__Z7findDocv+0x2f8>
    2a3c: 14000001     	b	0x2a40 <__Z7findDocv+0x2b0>
    2a40: f94027e8     	ldr	x8, [sp, #0x48]
    2a44: f9403500     	ldr	x0, [x8, #0x68]
    2a48: b892c3a1     	ldursw	x1, [x29, #-0xd4]
    2a4c: 910203e8     	add	x8, sp, #0x80
    2a50: 92800002     	mov	x2, #-0x1               ; =-1
    2a54: 94000000     	bl	0x2a54 <__Z7findDocv+0x2c4>
    2a58: 14000001     	b	0x2a5c <__Z7findDocv+0x2cc>
    2a5c: 52800028     	mov	w8, #0x1                ; =1
    2a60: 12000108     	and	w8, w8, #0x1
    2a64: 12000108     	and	w8, w8, #0x1
    2a68: 3901ffe8     	strb	w8, [sp, #0x7f]
    2a6c: 910203e0     	add	x0, sp, #0x80
    2a70: d10263a1     	sub	x1, x29, #0x98
    2a74: 94000000     	bl	0x2a74 <__Z7findDocv+0x2e4>
    2a78: 52800028     	mov	w8, #0x1                ; =1
    2a7c: b9002fe8     	str	w8, [sp, #0x2c]
    2a80: 37000380     	tbnz	w0, #0x0, 0x2af0 <__Z7findDocv+0x360>
    2a84: 14000001     	b	0x2a88 <__Z7findDocv+0x2f8>
    2a88: b980dbe8     	ldrsw	x8, [sp, #0xd8]
    2a8c: b1000508     	adds	x8, x8, #0x1
    2a90: 1a9f17e8     	cset	w8, eq
    2a94: 52800000     	mov	w0, #0x0                ; =0
    2a98: b9002be0     	str	w0, [sp, #0x28]
    2a9c: 37000248     	tbnz	w8, #0x0, 0x2ae4 <__Z7findDocv+0x354>
    2aa0: 14000001     	b	0x2aa4 <__Z7findDocv+0x314>
    2aa4: f94027e8     	ldr	x8, [sp, #0x48]
    2aa8: f9403500     	ldr	x0, [x8, #0x68]
    2aac: b980dbe1     	ldrsw	x1, [sp, #0xd8]
    2ab0: 910183e8     	add	x8, sp, #0x60
    2ab4: 92800002     	mov	x2, #-0x1               ; =-1
    2ab8: 94000000     	bl	0x2ab8 <__Z7findDocv+0x328>
    2abc: 14000001     	b	0x2ac0 <__Z7findDocv+0x330>
    2ac0: 52800028     	mov	w8, #0x1                ; =1
    2ac4: 12000108     	and	w8, w8, #0x1
    2ac8: 12000108     	and	w8, w8, #0x1
    2acc: 39017fe8     	strb	w8, [sp, #0x5f]
    2ad0: 910183e0     	add	x0, sp, #0x60
    2ad4: d10323a1     	sub	x1, x29, #0xc8
    2ad8: 94000000     	bl	0x2ad8 <__Z7findDocv+0x348>
    2adc: b9002be0     	str	w0, [sp, #0x28]
    2ae0: 14000001     	b	0x2ae4 <__Z7findDocv+0x354>
    2ae4: b9402be8     	ldr	w8, [sp, #0x28]
    2ae8: b9002fe8     	str	w8, [sp, #0x2c]
    2aec: 14000001     	b	0x2af0 <__Z7findDocv+0x360>
    2af0: b9402fe8     	ldr	w8, [sp, #0x2c]
    2af4: b90027e8     	str	w8, [sp, #0x24]
    2af8: 39417fe8     	ldrb	w8, [sp, #0x5f]
    2afc: 360000a8     	tbz	w8, #0x0, 0x2b10 <__Z7findDocv+0x380>
    2b00: 14000001     	b	0x2b04 <__Z7findDocv+0x374>
    2b04: 910183e0     	add	x0, sp, #0x60
    2b08: 94000000     	bl	0x2b08 <__Z7findDocv+0x378>
    2b0c: 14000001     	b	0x2b10 <__Z7findDocv+0x380>
    2b10: 3941ffe8     	ldrb	w8, [sp, #0x7f]
    2b14: 360000a8     	tbz	w8, #0x0, 0x2b28 <__Z7findDocv+0x398>
    2b18: 14000001     	b	0x2b1c <__Z7findDocv+0x38c>
    2b1c: 910203e0     	add	x0, sp, #0x80
    2b20: 94000000     	bl	0x2b20 <__Z7findDocv+0x390>
    2b24: 14000001     	b	0x2b28 <__Z7findDocv+0x398>
    2b28: 39427fe8     	ldrb	w8, [sp, #0x9f]
    2b2c: 360000a8     	tbz	w8, #0x0, 0x2b40 <__Z7findDocv+0x3b0>
    2b30: 14000001     	b	0x2b34 <__Z7findDocv+0x3a4>
    2b34: 910283e0     	add	x0, sp, #0xa0
    2b38: 94000000     	bl	0x2b38 <__Z7findDocv+0x3a8>
    2b3c: 14000001     	b	0x2b40 <__Z7findDocv+0x3b0>
    2b40: 3942ffe8     	ldrb	w8, [sp, #0xbf]
    2b44: 360000a8     	tbz	w8, #0x0, 0x2b58 <__Z7findDocv+0x3c8>
    2b48: 14000001     	b	0x2b4c <__Z7findDocv+0x3bc>
    2b4c: 910303e0     	add	x0, sp, #0xc0
    2b50: 94000000     	bl	0x2b50 <__Z7findDocv+0x3c0>
    2b54: 14000001     	b	0x2b58 <__Z7findDocv+0x3c8>
    2b58: b94027e8     	ldr	w8, [sp, #0x24]
    2b5c: 360007e8     	tbz	w8, #0x0, 0x2c58 <__Z7findDocv+0x4c8>
    2b60: 14000001     	b	0x2b64 <__Z7findDocv+0x3d4>
    2b64: f9402be0     	ldr	x0, [sp, #0x50]
    2b68: f94027e8     	ldr	x8, [sp, #0x48]
    2b6c: f9403501     	ldr	x1, [x8, #0x68]
    2b70: 94000000     	bl	0x2b70 <__Z7findDocv+0x3e0>
    2b74: 14000001     	b	0x2b78 <__Z7findDocv+0x3e8>
    2b78: 14000038     	b	0x2c58 <__Z7findDocv+0x4c8>
    2b7c: f94027e9     	ldr	x9, [sp, #0x48]
    2b80: f9004520     	str	x0, [x9, #0x88]
    2b84: aa0103e8     	mov	x8, x1
    2b88: b9008528     	str	w8, [x9, #0x84]
    2b8c: 14000049     	b	0x2cb0 <__Z7findDocv+0x520>
    2b90: f94027e9     	ldr	x9, [sp, #0x48]
    2b94: f9004520     	str	x0, [x9, #0x88]
    2b98: aa0103e8     	mov	x8, x1
    2b9c: b9008528     	str	w8, [x9, #0x84]
    2ba0: 14000041     	b	0x2ca4 <__Z7findDocv+0x514>
    2ba4: f94027e9     	ldr	x9, [sp, #0x48]
    2ba8: f9004520     	str	x0, [x9, #0x88]
    2bac: aa0103e8     	mov	x8, x1
    2bb0: b9008528     	str	w8, [x9, #0x84]
    2bb4: 14000039     	b	0x2c98 <__Z7findDocv+0x508>
    2bb8: f94027e9     	ldr	x9, [sp, #0x48]
    2bbc: f9004520     	str	x0, [x9, #0x88]
    2bc0: aa0103e8     	mov	x8, x1
    2bc4: b9008528     	str	w8, [x9, #0x84]
    2bc8: 14000031     	b	0x2c8c <__Z7findDocv+0x4fc>
    2bcc: f94027e9     	ldr	x9, [sp, #0x48]
    2bd0: f9004520     	str	x0, [x9, #0x88]
    2bd4: aa0103e8     	mov	x8, x1
    2bd8: b9008528     	str	w8, [x9, #0x84]
    2bdc: 14000018     	b	0x2c3c <__Z7findDocv+0x4ac>
    2be0: f94027e9     	ldr	x9, [sp, #0x48]
    2be4: f9004520     	str	x0, [x9, #0x88]
    2be8: aa0103e8     	mov	x8, x1
    2bec: b9008528     	str	w8, [x9, #0x84]
    2bf0: 1400000c     	b	0x2c20 <__Z7findDocv+0x490>
    2bf4: f94027e9     	ldr	x9, [sp, #0x48]
    2bf8: f9004520     	str	x0, [x9, #0x88]
    2bfc: aa0103e8     	mov	x8, x1
    2c00: b9008528     	str	w8, [x9, #0x84]
    2c04: 3941ffe8     	ldrb	w8, [sp, #0x7f]
    2c08: 360000a8     	tbz	w8, #0x0, 0x2c1c <__Z7findDocv+0x48c>
    2c0c: 14000001     	b	0x2c10 <__Z7findDocv+0x480>
    2c10: 910203e0     	add	x0, sp, #0x80
    2c14: 94000000     	bl	0x2c14 <__Z7findDocv+0x484>
    2c18: 14000001     	b	0x2c1c <__Z7findDocv+0x48c>
    2c1c: 14000001     	b	0x2c20 <__Z7findDocv+0x490>
    2c20: 39427fe8     	ldrb	w8, [sp, #0x9f]
    2c24: 360000a8     	tbz	w8, #0x0, 0x2c38 <__Z7findDocv+0x4a8>
    2c28: 14000001     	b	0x2c2c <__Z7findDocv+0x49c>
    2c2c: 910283e0     	add	x0, sp, #0xa0
    2c30: 94000000     	bl	0x2c30 <__Z7findDocv+0x4a0>
    2c34: 14000001     	b	0x2c38 <__Z7findDocv+0x4a8>
    2c38: 14000001     	b	0x2c3c <__Z7findDocv+0x4ac>
    2c3c: 3942ffe8     	ldrb	w8, [sp, #0xbf]
    2c40: 360000a8     	tbz	w8, #0x0, 0x2c54 <__Z7findDocv+0x4c4>
    2c44: 14000001     	b	0x2c48 <__Z7findDocv+0x4b8>
    2c48: 910303e0     	add	x0, sp, #0xc0
    2c4c: 94000000     	bl	0x2c4c <__Z7findDocv+0x4bc>
    2c50: 14000001     	b	0x2c54 <__Z7findDocv+0x4c4>
    2c54: 1400000e     	b	0x2c8c <__Z7findDocv+0x4fc>
    2c58: d10323a0     	sub	x0, x29, #0xc8
    2c5c: 94000000     	bl	0x2c5c <__Z7findDocv+0x4cc>
    2c60: d102c3a0     	sub	x0, x29, #0xb0
    2c64: 94000000     	bl	0x2c64 <__Z7findDocv+0x4d4>
    2c68: d10263a0     	sub	x0, x29, #0x98
    2c6c: 94000000     	bl	0x2c6c <__Z7findDocv+0x4dc>
    2c70: d10203a0     	sub	x0, x29, #0x80
    2c74: 94000000     	bl	0x2c74 <__Z7findDocv+0x4e4>
    2c78: 14000001     	b	0x2c7c <__Z7findDocv+0x4ec>
    2c7c: d10163a0     	sub	x0, x29, #0x58
    2c80: 94000000     	bl	0x2c80 <__Z7findDocv+0x4f0>
    2c84: 14000001     	b	0x2c88 <__Z7findDocv+0x4f8>
    2c88: 17fffee0     	b	0x2808 <__Z7findDocv+0x78>
    2c8c: d10323a0     	sub	x0, x29, #0xc8
    2c90: 94000000     	bl	0x2c90 <__Z7findDocv+0x500>
    2c94: 14000001     	b	0x2c98 <__Z7findDocv+0x508>
    2c98: d102c3a0     	sub	x0, x29, #0xb0
    2c9c: 94000000     	bl	0x2c9c <__Z7findDocv+0x50c>
    2ca0: 14000001     	b	0x2ca4 <__Z7findDocv+0x514>
    2ca4: d10263a0     	sub	x0, x29, #0x98
    2ca8: 94000000     	bl	0x2ca8 <__Z7findDocv+0x518>
    2cac: 14000001     	b	0x2cb0 <__Z7findDocv+0x520>
    2cb0: d10203a0     	sub	x0, x29, #0x80
    2cb4: 94000000     	bl	0x2cb4 <__Z7findDocv+0x524>
    2cb8: 14000001     	b	0x2cbc <__Z7findDocv+0x52c>
    2cbc: d10103a0     	sub	x0, x29, #0x40
    2cc0: 94000000     	bl	0x2cc0 <__Z7findDocv+0x530>
    2cc4: 14000031     	b	0x2d88 <__Z7findDocv+0x5f8>
    2cc8: 90000000     	adrp	x0, 0x2000 <__Z8findHEICv+0x30>
    2ccc: f9400000     	ldr	x0, [x0]
    2cd0: 90000001     	adrp	x1, 0x2000 <__Z8findHEICv+0x30>
    2cd4: 91000021     	add	x1, x1, #0x0
    2cd8: 94000000     	bl	0x2cd8 <__Z7findDocv+0x548>
    2cdc: f9000fe0     	str	x0, [sp, #0x18]
    2ce0: 14000001     	b	0x2ce4 <__Z7findDocv+0x554>
    2ce4: f9400fe0     	ldr	x0, [sp, #0x18]
    2ce8: 90000001     	adrp	x1, 0x2000 <__Z8findHEICv+0x30>
    2cec: 91000021     	add	x1, x1, #0x0
    2cf0: 94000000     	bl	0x2cf0 <__Z7findDocv+0x560>
    2cf4: 14000001     	b	0x2cf8 <__Z7findDocv+0x568>
    2cf8: 52800040     	mov	w0, #0x2                ; =2
    2cfc: 94000000     	bl	0x2cfc <__Z7findDocv+0x56c>
    2d00: 14000001     	b	0x2d04 <__Z7findDocv+0x574>
    2d04: f9402be0     	ldr	x0, [sp, #0x50]
    2d08: 94000000     	bl	0x2d08 <__Z7findDocv+0x578>
    2d0c: aa0003e1     	mov	x1, x0
    2d10: 90000000     	adrp	x0, 0x2000 <__Z8findHEICv+0x30>
    2d14: f9400000     	ldr	x0, [x0]
    2d18: 94000000     	bl	0x2d18 <__Z7findDocv+0x588>
    2d1c: f9000be0     	str	x0, [sp, #0x10]
    2d20: 14000001     	b	0x2d24 <__Z7findDocv+0x594>
    2d24: f9400be0     	ldr	x0, [sp, #0x10]
    2d28: 90000001     	adrp	x1, 0x2000 <__Z8findHEICv+0x30>
    2d2c: 91000021     	add	x1, x1, #0x0
    2d30: 94000000     	bl	0x2d30 <__Z7findDocv+0x5a0>
    2d34: f90007e0     	str	x0, [sp, #0x8]
    2d38: 14000001     	b	0x2d3c <__Z7findDocv+0x5ac>
    2d3c: f94007e0     	ldr	x0, [sp, #0x8]
    2d40: 90000001     	adrp	x1, 0x2000 <__Z8findHEICv+0x30>
    2d44: 91000021     	add	x1, x1, #0x0
    2d48: 94000000     	bl	0x2d48 <__Z7findDocv+0x5b8>
    2d4c: 14000001     	b	0x2d50 <__Z7findDocv+0x5c0>
    2d50: 52800028     	mov	w8, #0x1                ; =1
    2d54: 12000108     	and	w8, w8, #0x1
    2d58: 12000108     	and	w8, w8, #0x1
    2d5c: 381e73a8     	sturb	w8, [x29, #-0x19]
    2d60: 385e73a8     	ldurb	w8, [x29, #-0x19]
    2d64: 370000a8     	tbnz	w8, #0x0, 0x2d78 <__Z7findDocv+0x5e8>
    2d68: 14000001     	b	0x2d6c <__Z7findDocv+0x5dc>
    2d6c: f9402be0     	ldr	x0, [sp, #0x50]
    2d70: 94000000     	bl	0x2d70 <__Z7findDocv+0x5e0>
    2d74: 14000001     	b	0x2d78 <__Z7findDocv+0x5e8>
    2d78: a95b7bfd     	ldp	x29, x30, [sp, #0x1b0]
    2d7c: a95a6ffc     	ldp	x28, x27, [sp, #0x1a0]
    2d80: 910703ff     	add	sp, sp, #0x1c0
    2d84: d65f03c0     	ret
    2d88: f9402be0     	ldr	x0, [sp, #0x50]
    2d8c: 94000000     	bl	0x2d8c <__Z7findDocv+0x5fc>
    2d90: 14000001     	b	0x2d94 <__Z7findDocv+0x604>
    2d94: f94027e8     	ldr	x8, [sp, #0x48]
    2d98: f9404500     	ldr	x0, [x8, #0x88]
    2d9c: 94000000     	bl	0x2d9c <__Z7findDocv+0x60c>

0000000000002da0 <__Z7findPDFv>:
    2da0: d10503ff     	sub	sp, sp, #0x140
    2da4: a9126ffc     	stp	x28, x27, [sp, #0x120]
    2da8: a9137bfd     	stp	x29, x30, [sp, #0x130]
    2dac: 9104c3fd     	add	x29, sp, #0x130
    2db0: d10163a9     	sub	x9, x29, #0x58
    2db4: f90023e9     	str	x9, [sp, #0x40]
    2db8: aa0803e0     	mov	x0, x8
    2dbc: f90027e0     	str	x0, [sp, #0x48]
    2dc0: aa0003e8     	mov	x8, x0
    2dc4: f9002128     	str	x8, [x9, #0x40]
    2dc8: 52800008     	mov	w8, #0x0                ; =0
    2dcc: 12000108     	and	w8, w8, #0x1
    2dd0: 12000108     	and	w8, w8, #0x1
    2dd4: 381e73a8     	sturb	w8, [x29, #-0x19]
    2dd8: 94000000     	bl	0x2dd8 <__Z7findPDFv+0x38>
    2ddc: d10103a8     	sub	x8, x29, #0x40
    2de0: 94000000     	bl	0x2de0 <__Z7findPDFv+0x40>
    2de4: 14000001     	b	0x2de8 <__Z7findPDFv+0x48>
    2de8: f94023e8     	ldr	x8, [sp, #0x40]
    2dec: d10103a9     	sub	x9, x29, #0x40
    2df0: f9001909     	str	x9, [x8, #0x30]
    2df4: f9401900     	ldr	x0, [x8, #0x30]
    2df8: 94000000     	bl	0x2df8 <__Z7findPDFv+0x58>
    2dfc: f94023e8     	ldr	x8, [sp, #0x40]
    2e00: f9000100     	str	x0, [x8]
    2e04: f9401900     	ldr	x0, [x8, #0x30]
    2e08: 94000000     	bl	0x2e08 <__Z7findPDFv+0x68>
    2e0c: f81a03a0     	stur	x0, [x29, #-0x60]
    2e10: 14000001     	b	0x2e14 <__Z7findPDFv+0x74>
    2e14: d10163a0     	sub	x0, x29, #0x58
    2e18: d10183a1     	sub	x1, x29, #0x60
    2e1c: 94000000     	bl	0x2e1c <__Z7findPDFv+0x7c>
    2e20: b9003fe0     	str	w0, [sp, #0x3c]
    2e24: 14000001     	b	0x2e28 <__Z7findPDFv+0x88>
    2e28: b9403fe8     	ldr	w8, [sp, #0x3c]
    2e2c: 370001e8     	tbnz	w8, #0x0, 0x2e68 <__Z7findPDFv+0xc8>
    2e30: 14000001     	b	0x2e34 <__Z7findPDFv+0x94>
    2e34: d10103a0     	sub	x0, x29, #0x40
    2e38: 94000000     	bl	0x2e38 <__Z7findPDFv+0x98>
    2e3c: 1400009b     	b	0x30a8 <__Z7findPDFv+0x308>
    2e40: f94023e9     	ldr	x9, [sp, #0x40]
    2e44: f9000920     	str	x0, [x9, #0x10]
    2e48: aa0103e8     	mov	x8, x1
    2e4c: b9000d28     	str	w8, [x9, #0xc]
    2e50: 140000c6     	b	0x3168 <__Z7findPDFv+0x3c8>
    2e54: f94023e9     	ldr	x9, [sp, #0x40]
    2e58: f9000920     	str	x0, [x9, #0x10]
    2e5c: aa0103e8     	mov	x8, x1
    2e60: b9000d28     	str	w8, [x9, #0xc]
    2e64: 1400008e     	b	0x309c <__Z7findPDFv+0x2fc>
    2e68: d10163a0     	sub	x0, x29, #0x58
    2e6c: 94000000     	bl	0x2e6c <__Z7findPDFv+0xcc>
    2e70: f9001be0     	str	x0, [sp, #0x30]
    2e74: 14000001     	b	0x2e78 <__Z7findPDFv+0xd8>
    2e78: f9401be8     	ldr	x8, [sp, #0x30]
    2e7c: f81983a8     	stur	x8, [x29, #-0x68]
    2e80: d10203a0     	sub	x0, x29, #0x80
    2e84: 90000001     	adrp	x1, 0x2000 <__Z8findHEICv+0x30>
    2e88: 91000021     	add	x1, x1, #0x0
    2e8c: 94000000     	bl	0x2e8c <__Z7findPDFv+0xec>
    2e90: 14000001     	b	0x2e94 <__Z7findPDFv+0xf4>
    2e94: 910263e8     	add	x8, sp, #0x98
    2e98: d10203a0     	sub	x0, x29, #0x80
    2e9c: 94000000     	bl	0x2e9c <__Z7findPDFv+0xfc>
    2ea0: 14000001     	b	0x2ea4 <__Z7findPDFv+0x104>
    2ea4: f85983a0     	ldur	x0, [x29, #-0x68]
    2ea8: d10203a1     	sub	x1, x29, #0x80
    2eac: d2800002     	mov	x2, #0x0                ; =0
    2eb0: f90017e2     	str	x2, [sp, #0x28]
    2eb4: 94000000     	bl	0x2eb4 <__Z7findPDFv+0x114>
    2eb8: f94017e2     	ldr	x2, [sp, #0x28]
    2ebc: aa0003e8     	mov	x8, x0
    2ec0: b90097e8     	str	w8, [sp, #0x94]
    2ec4: f85983a0     	ldur	x0, [x29, #-0x68]
    2ec8: 910263e1     	add	x1, sp, #0x98
    2ecc: 94000000     	bl	0x2ecc <__Z7findPDFv+0x12c>
    2ed0: aa0003e8     	mov	x8, x0
    2ed4: b90093e8     	str	w8, [sp, #0x90]
    2ed8: b98097e8     	ldrsw	x8, [sp, #0x94]
    2edc: b1000508     	adds	x8, x8, #0x1
    2ee0: 1a9f17e8     	cset	w8, eq
    2ee4: 5280002a     	mov	w10, #0x1               ; =1
    2ee8: 52800009     	mov	w9, #0x0                ; =0
    2eec: 1200012b     	and	w11, w9, #0x1
    2ef0: 1200016b     	and	w11, w11, #0x1
    2ef4: 3901dfeb     	strb	w11, [sp, #0x77]
    2ef8: 12000129     	and	w9, w9, #0x1
    2efc: 0a0a0129     	and	w9, w9, w10
    2f00: 39015fe9     	strb	w9, [sp, #0x57]
    2f04: 37000268     	tbnz	w8, #0x0, 0x2f50 <__Z7findPDFv+0x1b0>
    2f08: 14000001     	b	0x2f0c <__Z7findPDFv+0x16c>
    2f0c: f85983a0     	ldur	x0, [x29, #-0x68]
    2f10: b98097e1     	ldrsw	x1, [sp, #0x94]
    2f14: 9101e3e8     	add	x8, sp, #0x78
    2f18: 92800002     	mov	x2, #-0x1               ; =-1
    2f1c: 94000000     	bl	0x2f1c <__Z7findPDFv+0x17c>
    2f20: 14000001     	b	0x2f24 <__Z7findPDFv+0x184>
    2f24: 52800028     	mov	w8, #0x1                ; =1
    2f28: 12000108     	and	w8, w8, #0x1
    2f2c: 12000108     	and	w8, w8, #0x1
    2f30: 3901dfe8     	strb	w8, [sp, #0x77]
    2f34: 9101e3e0     	add	x0, sp, #0x78
    2f38: d10203a1     	sub	x1, x29, #0x80
    2f3c: 94000000     	bl	0x2f3c <__Z7findPDFv+0x19c>
    2f40: 52800028     	mov	w8, #0x1                ; =1
    2f44: b90027e8     	str	w8, [sp, #0x24]
    2f48: 37000360     	tbnz	w0, #0x0, 0x2fb4 <__Z7findPDFv+0x214>
    2f4c: 14000001     	b	0x2f50 <__Z7findPDFv+0x1b0>
    2f50: b98093e8     	ldrsw	x8, [sp, #0x90]
    2f54: b1000508     	adds	x8, x8, #0x1
    2f58: 1a9f17e8     	cset	w8, eq
    2f5c: 52800000     	mov	w0, #0x0                ; =0
    2f60: b90023e0     	str	w0, [sp, #0x20]
    2f64: 37000228     	tbnz	w8, #0x0, 0x2fa8 <__Z7findPDFv+0x208>
    2f68: 14000001     	b	0x2f6c <__Z7findPDFv+0x1cc>
    2f6c: f85983a0     	ldur	x0, [x29, #-0x68]
    2f70: b98093e1     	ldrsw	x1, [sp, #0x90]
    2f74: 910163e8     	add	x8, sp, #0x58
    2f78: 92800002     	mov	x2, #-0x1               ; =-1
    2f7c: 94000000     	bl	0x2f7c <__Z7findPDFv+0x1dc>
    2f80: 14000001     	b	0x2f84 <__Z7findPDFv+0x1e4>
    2f84: 52800028     	mov	w8, #0x1                ; =1
    2f88: 12000108     	and	w8, w8, #0x1
    2f8c: 12000108     	and	w8, w8, #0x1
    2f90: 39015fe8     	strb	w8, [sp, #0x57]
    2f94: 910163e0     	add	x0, sp, #0x58
    2f98: 910263e1     	add	x1, sp, #0x98
    2f9c: 94000000     	bl	0x2f9c <__Z7findPDFv+0x1fc>
    2fa0: b90023e0     	str	w0, [sp, #0x20]
    2fa4: 14000001     	b	0x2fa8 <__Z7findPDFv+0x208>
    2fa8: b94023e8     	ldr	w8, [sp, #0x20]
    2fac: b90027e8     	str	w8, [sp, #0x24]
    2fb0: 14000001     	b	0x2fb4 <__Z7findPDFv+0x214>
    2fb4: b94027e8     	ldr	w8, [sp, #0x24]
    2fb8: b9001fe8     	str	w8, [sp, #0x1c]
    2fbc: 39415fe8     	ldrb	w8, [sp, #0x57]
    2fc0: 360000a8     	tbz	w8, #0x0, 0x2fd4 <__Z7findPDFv+0x234>
    2fc4: 14000001     	b	0x2fc8 <__Z7findPDFv+0x228>
    2fc8: 910163e0     	add	x0, sp, #0x58
    2fcc: 94000000     	bl	0x2fcc <__Z7findPDFv+0x22c>
    2fd0: 14000001     	b	0x2fd4 <__Z7findPDFv+0x234>
    2fd4: 3941dfe8     	ldrb	w8, [sp, #0x77]
    2fd8: 360000a8     	tbz	w8, #0x0, 0x2fec <__Z7findPDFv+0x24c>
    2fdc: 14000001     	b	0x2fe0 <__Z7findPDFv+0x240>
    2fe0: 9101e3e0     	add	x0, sp, #0x78
    2fe4: 94000000     	bl	0x2fe4 <__Z7findPDFv+0x244>
    2fe8: 14000001     	b	0x2fec <__Z7findPDFv+0x24c>
    2fec: b9401fe8     	ldr	w8, [sp, #0x1c]
    2ff0: 36000388     	tbz	w8, #0x0, 0x3060 <__Z7findPDFv+0x2c0>
    2ff4: 14000001     	b	0x2ff8 <__Z7findPDFv+0x258>
    2ff8: f94027e0     	ldr	x0, [sp, #0x48]
    2ffc: f85983a1     	ldur	x1, [x29, #-0x68]
    3000: 94000000     	bl	0x3000 <__Z7findPDFv+0x260>
    3004: 14000001     	b	0x3008 <__Z7findPDFv+0x268>
    3008: 14000016     	b	0x3060 <__Z7findPDFv+0x2c0>
    300c: f94023e9     	ldr	x9, [sp, #0x40]
    3010: f9000920     	str	x0, [x9, #0x10]
    3014: aa0103e8     	mov	x8, x1
    3018: b9000d28     	str	w8, [x9, #0xc]
    301c: 1400001d     	b	0x3090 <__Z7findPDFv+0x2f0>
    3020: f94023e9     	ldr	x9, [sp, #0x40]
    3024: f9000920     	str	x0, [x9, #0x10]
    3028: aa0103e8     	mov	x8, x1
    302c: b9000d28     	str	w8, [x9, #0xc]
    3030: 14000015     	b	0x3084 <__Z7findPDFv+0x2e4>
    3034: f94023e9     	ldr	x9, [sp, #0x40]
    3038: f9000920     	str	x0, [x9, #0x10]
    303c: aa0103e8     	mov	x8, x1
    3040: b9000d28     	str	w8, [x9, #0xc]
    3044: 3941dfe8     	ldrb	w8, [sp, #0x77]
    3048: 360000a8     	tbz	w8, #0x0, 0x305c <__Z7findPDFv+0x2bc>
    304c: 14000001     	b	0x3050 <__Z7findPDFv+0x2b0>
    3050: 9101e3e0     	add	x0, sp, #0x78
    3054: 94000000     	bl	0x3054 <__Z7findPDFv+0x2b4>
    3058: 14000001     	b	0x305c <__Z7findPDFv+0x2bc>
    305c: 1400000a     	b	0x3084 <__Z7findPDFv+0x2e4>
    3060: 910263e0     	add	x0, sp, #0x98
    3064: 94000000     	bl	0x3064 <__Z7findPDFv+0x2c4>
    3068: d10203a0     	sub	x0, x29, #0x80
    306c: 94000000     	bl	0x306c <__Z7findPDFv+0x2cc>
    3070: 14000001     	b	0x3074 <__Z7findPDFv+0x2d4>
    3074: d10163a0     	sub	x0, x29, #0x58
    3078: 94000000     	bl	0x3078 <__Z7findPDFv+0x2d8>
    307c: 14000001     	b	0x3080 <__Z7findPDFv+0x2e0>
    3080: 17ffff65     	b	0x2e14 <__Z7findPDFv+0x74>
    3084: 910263e0     	add	x0, sp, #0x98
    3088: 94000000     	bl	0x3088 <__Z7findPDFv+0x2e8>
    308c: 14000001     	b	0x3090 <__Z7findPDFv+0x2f0>
    3090: d10203a0     	sub	x0, x29, #0x80
    3094: 94000000     	bl	0x3094 <__Z7findPDFv+0x2f4>
    3098: 14000001     	b	0x309c <__Z7findPDFv+0x2fc>
    309c: d10103a0     	sub	x0, x29, #0x40
    30a0: 94000000     	bl	0x30a0 <__Z7findPDFv+0x300>
    30a4: 14000031     	b	0x3168 <__Z7findPDFv+0x3c8>
    30a8: 90000000     	adrp	x0, 0x3000 <__Z7findPDFv+0x260>
    30ac: f9400000     	ldr	x0, [x0]
    30b0: 90000001     	adrp	x1, 0x3000 <__Z7findPDFv+0x260>
    30b4: 91000021     	add	x1, x1, #0x0
    30b8: 94000000     	bl	0x30b8 <__Z7findPDFv+0x318>
    30bc: f9000be0     	str	x0, [sp, #0x10]
    30c0: 14000001     	b	0x30c4 <__Z7findPDFv+0x324>
    30c4: f9400be0     	ldr	x0, [sp, #0x10]
    30c8: 90000001     	adrp	x1, 0x3000 <__Z7findPDFv+0x260>
    30cc: 91000021     	add	x1, x1, #0x0
    30d0: 94000000     	bl	0x30d0 <__Z7findPDFv+0x330>
    30d4: 14000001     	b	0x30d8 <__Z7findPDFv+0x338>
    30d8: 52800040     	mov	w0, #0x2                ; =2
    30dc: 94000000     	bl	0x30dc <__Z7findPDFv+0x33c>
    30e0: 14000001     	b	0x30e4 <__Z7findPDFv+0x344>
    30e4: f94027e0     	ldr	x0, [sp, #0x48]
    30e8: 94000000     	bl	0x30e8 <__Z7findPDFv+0x348>
    30ec: aa0003e1     	mov	x1, x0
    30f0: 90000000     	adrp	x0, 0x3000 <__Z7findPDFv+0x260>
    30f4: f9400000     	ldr	x0, [x0]
    30f8: 94000000     	bl	0x30f8 <__Z7findPDFv+0x358>
    30fc: f90007e0     	str	x0, [sp, #0x8]
    3100: 14000001     	b	0x3104 <__Z7findPDFv+0x364>
    3104: f94007e0     	ldr	x0, [sp, #0x8]
    3108: 90000001     	adrp	x1, 0x3000 <__Z7findPDFv+0x260>
    310c: 91000021     	add	x1, x1, #0x0
    3110: 94000000     	bl	0x3110 <__Z7findPDFv+0x370>
    3114: f90003e0     	str	x0, [sp]
    3118: 14000001     	b	0x311c <__Z7findPDFv+0x37c>
    311c: f94003e0     	ldr	x0, [sp]
    3120: 90000001     	adrp	x1, 0x3000 <__Z7findPDFv+0x260>
    3124: 91000021     	add	x1, x1, #0x0
    3128: 94000000     	bl	0x3128 <__Z7findPDFv+0x388>
    312c: 14000001     	b	0x3130 <__Z7findPDFv+0x390>
    3130: 52800028     	mov	w8, #0x1                ; =1
    3134: 12000108     	and	w8, w8, #0x1
    3138: 12000108     	and	w8, w8, #0x1
    313c: 381e73a8     	sturb	w8, [x29, #-0x19]
    3140: 385e73a8     	ldurb	w8, [x29, #-0x19]
    3144: 370000a8     	tbnz	w8, #0x0, 0x3158 <__Z7findPDFv+0x3b8>
    3148: 14000001     	b	0x314c <__Z7findPDFv+0x3ac>
    314c: f94027e0     	ldr	x0, [sp, #0x48]
    3150: 94000000     	bl	0x3150 <__Z7findPDFv+0x3b0>
    3154: 14000001     	b	0x3158 <__Z7findPDFv+0x3b8>
    3158: a9537bfd     	ldp	x29, x30, [sp, #0x130]
    315c: a9526ffc     	ldp	x28, x27, [sp, #0x120]
    3160: 910503ff     	add	sp, sp, #0x140
    3164: d65f03c0     	ret
    3168: f94027e0     	ldr	x0, [sp, #0x48]
    316c: 94000000     	bl	0x316c <__Z7findPDFv+0x3cc>
    3170: 14000001     	b	0x3174 <__Z7findPDFv+0x3d4>
    3174: f94023e8     	ldr	x8, [sp, #0x40]
    3178: f9400900     	ldr	x0, [x8, #0x10]
    317c: 94000000     	bl	0x317c <__Z7findPDFv+0x3dc>

0000000000003180 <__Z7findTXTv>:
    3180: d10503ff     	sub	sp, sp, #0x140
    3184: a9126ffc     	stp	x28, x27, [sp, #0x120]
    3188: a9137bfd     	stp	x29, x30, [sp, #0x130]
    318c: 9104c3fd     	add	x29, sp, #0x130
    3190: d10163a9     	sub	x9, x29, #0x58
    3194: f90023e9     	str	x9, [sp, #0x40]
    3198: aa0803e0     	mov	x0, x8
    319c: f90027e0     	str	x0, [sp, #0x48]
    31a0: aa0003e8     	mov	x8, x0
    31a4: f9002128     	str	x8, [x9, #0x40]
    31a8: 52800008     	mov	w8, #0x0                ; =0
    31ac: 12000108     	and	w8, w8, #0x1
    31b0: 12000108     	and	w8, w8, #0x1
    31b4: 381e73a8     	sturb	w8, [x29, #-0x19]
    31b8: 94000000     	bl	0x31b8 <__Z7findTXTv+0x38>
    31bc: d10103a8     	sub	x8, x29, #0x40
    31c0: 94000000     	bl	0x31c0 <__Z7findTXTv+0x40>
    31c4: 14000001     	b	0x31c8 <__Z7findTXTv+0x48>
    31c8: f94023e8     	ldr	x8, [sp, #0x40]
    31cc: d10103a9     	sub	x9, x29, #0x40
    31d0: f9001909     	str	x9, [x8, #0x30]
    31d4: f9401900     	ldr	x0, [x8, #0x30]
    31d8: 94000000     	bl	0x31d8 <__Z7findTXTv+0x58>
    31dc: f94023e8     	ldr	x8, [sp, #0x40]
    31e0: f9000100     	str	x0, [x8]
    31e4: f9401900     	ldr	x0, [x8, #0x30]
    31e8: 94000000     	bl	0x31e8 <__Z7findTXTv+0x68>
    31ec: f81a03a0     	stur	x0, [x29, #-0x60]
    31f0: 14000001     	b	0x31f4 <__Z7findTXTv+0x74>
    31f4: d10163a0     	sub	x0, x29, #0x58
    31f8: d10183a1     	sub	x1, x29, #0x60
    31fc: 94000000     	bl	0x31fc <__Z7findTXTv+0x7c>
    3200: b9003fe0     	str	w0, [sp, #0x3c]
    3204: 14000001     	b	0x3208 <__Z7findTXTv+0x88>
    3208: b9403fe8     	ldr	w8, [sp, #0x3c]
    320c: 370001e8     	tbnz	w8, #0x0, 0x3248 <__Z7findTXTv+0xc8>
    3210: 14000001     	b	0x3214 <__Z7findTXTv+0x94>
    3214: d10103a0     	sub	x0, x29, #0x40
    3218: 94000000     	bl	0x3218 <__Z7findTXTv+0x98>
    321c: 1400009b     	b	0x3488 <__Z7findTXTv+0x308>
    3220: f94023e9     	ldr	x9, [sp, #0x40]
    3224: f9000920     	str	x0, [x9, #0x10]
    3228: aa0103e8     	mov	x8, x1
    322c: b9000d28     	str	w8, [x9, #0xc]
    3230: 140000c6     	b	0x3548 <__Z7findTXTv+0x3c8>
    3234: f94023e9     	ldr	x9, [sp, #0x40]
    3238: f9000920     	str	x0, [x9, #0x10]
    323c: aa0103e8     	mov	x8, x1
    3240: b9000d28     	str	w8, [x9, #0xc]
    3244: 1400008e     	b	0x347c <__Z7findTXTv+0x2fc>
    3248: d10163a0     	sub	x0, x29, #0x58
    324c: 94000000     	bl	0x324c <__Z7findTXTv+0xcc>
    3250: f9001be0     	str	x0, [sp, #0x30]
    3254: 14000001     	b	0x3258 <__Z7findTXTv+0xd8>
    3258: f9401be8     	ldr	x8, [sp, #0x30]
    325c: f81983a8     	stur	x8, [x29, #-0x68]
    3260: d10203a0     	sub	x0, x29, #0x80
    3264: 90000001     	adrp	x1, 0x3000 <__Z7findPDFv+0x260>
    3268: 91000021     	add	x1, x1, #0x0
    326c: 94000000     	bl	0x326c <__Z7findTXTv+0xec>
    3270: 14000001     	b	0x3274 <__Z7findTXTv+0xf4>
    3274: 910263e8     	add	x8, sp, #0x98
    3278: d10203a0     	sub	x0, x29, #0x80
    327c: 94000000     	bl	0x327c <__Z7findTXTv+0xfc>
    3280: 14000001     	b	0x3284 <__Z7findTXTv+0x104>
    3284: f85983a0     	ldur	x0, [x29, #-0x68]
    3288: d10203a1     	sub	x1, x29, #0x80
    328c: d2800002     	mov	x2, #0x0                ; =0
    3290: f90017e2     	str	x2, [sp, #0x28]
    3294: 94000000     	bl	0x3294 <__Z7findTXTv+0x114>
    3298: f94017e2     	ldr	x2, [sp, #0x28]
    329c: aa0003e8     	mov	x8, x0
    32a0: b90097e8     	str	w8, [sp, #0x94]
    32a4: f85983a0     	ldur	x0, [x29, #-0x68]
    32a8: 910263e1     	add	x1, sp, #0x98
    32ac: 94000000     	bl	0x32ac <__Z7findTXTv+0x12c>
    32b0: aa0003e8     	mov	x8, x0
    32b4: b90093e8     	str	w8, [sp, #0x90]
    32b8: b98097e8     	ldrsw	x8, [sp, #0x94]
    32bc: b1000508     	adds	x8, x8, #0x1
    32c0: 1a9f17e8     	cset	w8, eq
    32c4: 5280002a     	mov	w10, #0x1               ; =1
    32c8: 52800009     	mov	w9, #0x0                ; =0
    32cc: 1200012b     	and	w11, w9, #0x1
    32d0: 1200016b     	and	w11, w11, #0x1
    32d4: 3901dfeb     	strb	w11, [sp, #0x77]
    32d8: 12000129     	and	w9, w9, #0x1
    32dc: 0a0a0129     	and	w9, w9, w10
    32e0: 39015fe9     	strb	w9, [sp, #0x57]
    32e4: 37000268     	tbnz	w8, #0x0, 0x3330 <__Z7findTXTv+0x1b0>
    32e8: 14000001     	b	0x32ec <__Z7findTXTv+0x16c>
    32ec: f85983a0     	ldur	x0, [x29, #-0x68]
    32f0: b98097e1     	ldrsw	x1, [sp, #0x94]
    32f4: 9101e3e8     	add	x8, sp, #0x78
    32f8: 92800002     	mov	x2, #-0x1               ; =-1
    32fc: 94000000     	bl	0x32fc <__Z7findTXTv+0x17c>
    3300: 14000001     	b	0x3304 <__Z7findTXTv+0x184>
    3304: 52800028     	mov	w8, #0x1                ; =1
    3308: 12000108     	and	w8, w8, #0x1
    330c: 12000108     	and	w8, w8, #0x1
    3310: 3901dfe8     	strb	w8, [sp, #0x77]
    3314: 9101e3e0     	add	x0, sp, #0x78
    3318: d10203a1     	sub	x1, x29, #0x80
    331c: 94000000     	bl	0x331c <__Z7findTXTv+0x19c>
    3320: 52800028     	mov	w8, #0x1                ; =1
    3324: b90027e8     	str	w8, [sp, #0x24]
    3328: 37000360     	tbnz	w0, #0x0, 0x3394 <__Z7findTXTv+0x214>
    332c: 14000001     	b	0x3330 <__Z7findTXTv+0x1b0>
    3330: b98093e8     	ldrsw	x8, [sp, #0x90]
    3334: b1000508     	adds	x8, x8, #0x1
    3338: 1a9f17e8     	cset	w8, eq
    333c: 52800000     	mov	w0, #0x0                ; =0
    3340: b90023e0     	str	w0, [sp, #0x20]
    3344: 37000228     	tbnz	w8, #0x0, 0x3388 <__Z7findTXTv+0x208>
    3348: 14000001     	b	0x334c <__Z7findTXTv+0x1cc>
    334c: f85983a0     	ldur	x0, [x29, #-0x68]
    3350: b98093e1     	ldrsw	x1, [sp, #0x90]
    3354: 910163e8     	add	x8, sp, #0x58
    3358: 92800002     	mov	x2, #-0x1               ; =-1
    335c: 94000000     	bl	0x335c <__Z7findTXTv+0x1dc>
    3360: 14000001     	b	0x3364 <__Z7findTXTv+0x1e4>
    3364: 52800028     	mov	w8, #0x1                ; =1
    3368: 12000108     	and	w8, w8, #0x1
    336c: 12000108     	and	w8, w8, #0x1
    3370: 39015fe8     	strb	w8, [sp, #0x57]
    3374: 910163e0     	add	x0, sp, #0x58
    3378: 910263e1     	add	x1, sp, #0x98
    337c: 94000000     	bl	0x337c <__Z7findTXTv+0x1fc>
    3380: b90023e0     	str	w0, [sp, #0x20]
    3384: 14000001     	b	0x3388 <__Z7findTXTv+0x208>
    3388: b94023e8     	ldr	w8, [sp, #0x20]
    338c: b90027e8     	str	w8, [sp, #0x24]
    3390: 14000001     	b	0x3394 <__Z7findTXTv+0x214>
    3394: b94027e8     	ldr	w8, [sp, #0x24]
    3398: b9001fe8     	str	w8, [sp, #0x1c]
    339c: 39415fe8     	ldrb	w8, [sp, #0x57]
    33a0: 360000a8     	tbz	w8, #0x0, 0x33b4 <__Z7findTXTv+0x234>
    33a4: 14000001     	b	0x33a8 <__Z7findTXTv+0x228>
    33a8: 910163e0     	add	x0, sp, #0x58
    33ac: 94000000     	bl	0x33ac <__Z7findTXTv+0x22c>
    33b0: 14000001     	b	0x33b4 <__Z7findTXTv+0x234>
    33b4: 3941dfe8     	ldrb	w8, [sp, #0x77]
    33b8: 360000a8     	tbz	w8, #0x0, 0x33cc <__Z7findTXTv+0x24c>
    33bc: 14000001     	b	0x33c0 <__Z7findTXTv+0x240>
    33c0: 9101e3e0     	add	x0, sp, #0x78
    33c4: 94000000     	bl	0x33c4 <__Z7findTXTv+0x244>
    33c8: 14000001     	b	0x33cc <__Z7findTXTv+0x24c>
    33cc: b9401fe8     	ldr	w8, [sp, #0x1c]
    33d0: 36000388     	tbz	w8, #0x0, 0x3440 <__Z7findTXTv+0x2c0>
    33d4: 14000001     	b	0x33d8 <__Z7findTXTv+0x258>
    33d8: f94027e0     	ldr	x0, [sp, #0x48]
    33dc: f85983a1     	ldur	x1, [x29, #-0x68]
    33e0: 94000000     	bl	0x33e0 <__Z7findTXTv+0x260>
    33e4: 14000001     	b	0x33e8 <__Z7findTXTv+0x268>
    33e8: 14000016     	b	0x3440 <__Z7findTXTv+0x2c0>
    33ec: f94023e9     	ldr	x9, [sp, #0x40]
    33f0: f9000920     	str	x0, [x9, #0x10]
    33f4: aa0103e8     	mov	x8, x1
    33f8: b9000d28     	str	w8, [x9, #0xc]
    33fc: 1400001d     	b	0x3470 <__Z7findTXTv+0x2f0>
    3400: f94023e9     	ldr	x9, [sp, #0x40]
    3404: f9000920     	str	x0, [x9, #0x10]
    3408: aa0103e8     	mov	x8, x1
    340c: b9000d28     	str	w8, [x9, #0xc]
    3410: 14000015     	b	0x3464 <__Z7findTXTv+0x2e4>
    3414: f94023e9     	ldr	x9, [sp, #0x40]
    3418: f9000920     	str	x0, [x9, #0x10]
    341c: aa0103e8     	mov	x8, x1
    3420: b9000d28     	str	w8, [x9, #0xc]
    3424: 3941dfe8     	ldrb	w8, [sp, #0x77]
    3428: 360000a8     	tbz	w8, #0x0, 0x343c <__Z7findTXTv+0x2bc>
    342c: 14000001     	b	0x3430 <__Z7findTXTv+0x2b0>
    3430: 9101e3e0     	add	x0, sp, #0x78
    3434: 94000000     	bl	0x3434 <__Z7findTXTv+0x2b4>
    3438: 14000001     	b	0x343c <__Z7findTXTv+0x2bc>
    343c: 1400000a     	b	0x3464 <__Z7findTXTv+0x2e4>
    3440: 910263e0     	add	x0, sp, #0x98
    3444: 94000000     	bl	0x3444 <__Z7findTXTv+0x2c4>
    3448: d10203a0     	sub	x0, x29, #0x80
    344c: 94000000     	bl	0x344c <__Z7findTXTv+0x2cc>
    3450: 14000001     	b	0x3454 <__Z7findTXTv+0x2d4>
    3454: d10163a0     	sub	x0, x29, #0x58
    3458: 94000000     	bl	0x3458 <__Z7findTXTv+0x2d8>
    345c: 14000001     	b	0x3460 <__Z7findTXTv+0x2e0>
    3460: 17ffff65     	b	0x31f4 <__Z7findTXTv+0x74>
    3464: 910263e0     	add	x0, sp, #0x98
    3468: 94000000     	bl	0x3468 <__Z7findTXTv+0x2e8>
    346c: 14000001     	b	0x3470 <__Z7findTXTv+0x2f0>
    3470: d10203a0     	sub	x0, x29, #0x80
    3474: 94000000     	bl	0x3474 <__Z7findTXTv+0x2f4>
    3478: 14000001     	b	0x347c <__Z7findTXTv+0x2fc>
    347c: d10103a0     	sub	x0, x29, #0x40
    3480: 94000000     	bl	0x3480 <__Z7findTXTv+0x300>
    3484: 14000031     	b	0x3548 <__Z7findTXTv+0x3c8>
    3488: 90000000     	adrp	x0, 0x3000 <__Z7findPDFv+0x260>
    348c: f9400000     	ldr	x0, [x0]
    3490: 90000001     	adrp	x1, 0x3000 <__Z7findPDFv+0x260>
    3494: 91000021     	add	x1, x1, #0x0
    3498: 94000000     	bl	0x3498 <__Z7findTXTv+0x318>
    349c: f9000be0     	str	x0, [sp, #0x10]
    34a0: 14000001     	b	0x34a4 <__Z7findTXTv+0x324>
    34a4: f9400be0     	ldr	x0, [sp, #0x10]
    34a8: 90000001     	adrp	x1, 0x3000 <__Z7findPDFv+0x260>
    34ac: 91000021     	add	x1, x1, #0x0
    34b0: 94000000     	bl	0x34b0 <__Z7findTXTv+0x330>
    34b4: 14000001     	b	0x34b8 <__Z7findTXTv+0x338>
    34b8: 52800040     	mov	w0, #0x2                ; =2
    34bc: 94000000     	bl	0x34bc <__Z7findTXTv+0x33c>
    34c0: 14000001     	b	0x34c4 <__Z7findTXTv+0x344>
    34c4: f94027e0     	ldr	x0, [sp, #0x48]
    34c8: 94000000     	bl	0x34c8 <__Z7findTXTv+0x348>
    34cc: aa0003e1     	mov	x1, x0
    34d0: 90000000     	adrp	x0, 0x3000 <__Z7findPDFv+0x260>
    34d4: f9400000     	ldr	x0, [x0]
    34d8: 94000000     	bl	0x34d8 <__Z7findTXTv+0x358>
    34dc: f90007e0     	str	x0, [sp, #0x8]
    34e0: 14000001     	b	0x34e4 <__Z7findTXTv+0x364>
    34e4: f94007e0     	ldr	x0, [sp, #0x8]
    34e8: 90000001     	adrp	x1, 0x3000 <__Z7findPDFv+0x260>
    34ec: 91000021     	add	x1, x1, #0x0
    34f0: 94000000     	bl	0x34f0 <__Z7findTXTv+0x370>
    34f4: f90003e0     	str	x0, [sp]
    34f8: 14000001     	b	0x34fc <__Z7findTXTv+0x37c>
    34fc: f94003e0     	ldr	x0, [sp]
    3500: 90000001     	adrp	x1, 0x3000 <__Z7findPDFv+0x260>
    3504: 91000021     	add	x1, x1, #0x0
    3508: 94000000     	bl	0x3508 <__Z7findTXTv+0x388>
    350c: 14000001     	b	0x3510 <__Z7findTXTv+0x390>
    3510: 52800028     	mov	w8, #0x1                ; =1
    3514: 12000108     	and	w8, w8, #0x1
    3518: 12000108     	and	w8, w8, #0x1
    351c: 381e73a8     	sturb	w8, [x29, #-0x19]
    3520: 385e73a8     	ldurb	w8, [x29, #-0x19]
    3524: 370000a8     	tbnz	w8, #0x0, 0x3538 <__Z7findTXTv+0x3b8>
    3528: 14000001     	b	0x352c <__Z7findTXTv+0x3ac>
    352c: f94027e0     	ldr	x0, [sp, #0x48]
    3530: 94000000     	bl	0x3530 <__Z7findTXTv+0x3b0>
    3534: 14000001     	b	0x3538 <__Z7findTXTv+0x3b8>
    3538: a9537bfd     	ldp	x29, x30, [sp, #0x130]
    353c: a9526ffc     	ldp	x28, x27, [sp, #0x120]
    3540: 910503ff     	add	sp, sp, #0x140
    3544: d65f03c0     	ret
    3548: f94027e0     	ldr	x0, [sp, #0x48]
    354c: 94000000     	bl	0x354c <__Z7findTXTv+0x3cc>
    3550: 14000001     	b	0x3554 <__Z7findTXTv+0x3d4>
    3554: f94023e8     	ldr	x8, [sp, #0x40]
    3558: f9400900     	ldr	x0, [x8, #0x10]
    355c: 94000000     	bl	0x355c <__Z7findTXTv+0x3dc>

0000000000003560 <__Z7findMP4v>:
    3560: d10503ff     	sub	sp, sp, #0x140
    3564: a9126ffc     	stp	x28, x27, [sp, #0x120]
    3568: a9137bfd     	stp	x29, x30, [sp, #0x130]
    356c: 9104c3fd     	add	x29, sp, #0x130
    3570: d10163a9     	sub	x9, x29, #0x58
    3574: f90023e9     	str	x9, [sp, #0x40]
    3578: aa0803e0     	mov	x0, x8
    357c: f90027e0     	str	x0, [sp, #0x48]
    3580: aa0003e8     	mov	x8, x0
    3584: f9002128     	str	x8, [x9, #0x40]
    3588: 52800008     	mov	w8, #0x0                ; =0
    358c: 12000108     	and	w8, w8, #0x1
    3590: 12000108     	and	w8, w8, #0x1
    3594: 381e73a8     	sturb	w8, [x29, #-0x19]
    3598: 94000000     	bl	0x3598 <__Z7findMP4v+0x38>
    359c: d10103a8     	sub	x8, x29, #0x40
    35a0: 94000000     	bl	0x35a0 <__Z7findMP4v+0x40>
    35a4: 14000001     	b	0x35a8 <__Z7findMP4v+0x48>
    35a8: f94023e8     	ldr	x8, [sp, #0x40]
    35ac: d10103a9     	sub	x9, x29, #0x40
    35b0: f9001909     	str	x9, [x8, #0x30]
    35b4: f9401900     	ldr	x0, [x8, #0x30]
    35b8: 94000000     	bl	0x35b8 <__Z7findMP4v+0x58>
    35bc: f94023e8     	ldr	x8, [sp, #0x40]
    35c0: f9000100     	str	x0, [x8]
    35c4: f9401900     	ldr	x0, [x8, #0x30]
    35c8: 94000000     	bl	0x35c8 <__Z7findMP4v+0x68>
    35cc: f81a03a0     	stur	x0, [x29, #-0x60]
    35d0: 14000001     	b	0x35d4 <__Z7findMP4v+0x74>
    35d4: d10163a0     	sub	x0, x29, #0x58
    35d8: d10183a1     	sub	x1, x29, #0x60
    35dc: 94000000     	bl	0x35dc <__Z7findMP4v+0x7c>
    35e0: b9003fe0     	str	w0, [sp, #0x3c]
    35e4: 14000001     	b	0x35e8 <__Z7findMP4v+0x88>
    35e8: b9403fe8     	ldr	w8, [sp, #0x3c]
    35ec: 370001e8     	tbnz	w8, #0x0, 0x3628 <__Z7findMP4v+0xc8>
    35f0: 14000001     	b	0x35f4 <__Z7findMP4v+0x94>
    35f4: d10103a0     	sub	x0, x29, #0x40
    35f8: 94000000     	bl	0x35f8 <__Z7findMP4v+0x98>
    35fc: 1400009b     	b	0x3868 <__Z7findMP4v+0x308>
    3600: f94023e9     	ldr	x9, [sp, #0x40]
    3604: f9000920     	str	x0, [x9, #0x10]
    3608: aa0103e8     	mov	x8, x1
    360c: b9000d28     	str	w8, [x9, #0xc]
    3610: 140000c6     	b	0x3928 <__Z7findMP4v+0x3c8>
    3614: f94023e9     	ldr	x9, [sp, #0x40]
    3618: f9000920     	str	x0, [x9, #0x10]
    361c: aa0103e8     	mov	x8, x1
    3620: b9000d28     	str	w8, [x9, #0xc]
    3624: 1400008e     	b	0x385c <__Z7findMP4v+0x2fc>
    3628: d10163a0     	sub	x0, x29, #0x58
    362c: 94000000     	bl	0x362c <__Z7findMP4v+0xcc>
    3630: f9001be0     	str	x0, [sp, #0x30]
    3634: 14000001     	b	0x3638 <__Z7findMP4v+0xd8>
    3638: f9401be8     	ldr	x8, [sp, #0x30]
    363c: f81983a8     	stur	x8, [x29, #-0x68]
    3640: d10203a0     	sub	x0, x29, #0x80
    3644: 90000001     	adrp	x1, 0x3000 <__Z7findPDFv+0x260>
    3648: 91000021     	add	x1, x1, #0x0
    364c: 94000000     	bl	0x364c <__Z7findMP4v+0xec>
    3650: 14000001     	b	0x3654 <__Z7findMP4v+0xf4>
    3654: 910263e8     	add	x8, sp, #0x98
    3658: d10203a0     	sub	x0, x29, #0x80
    365c: 94000000     	bl	0x365c <__Z7findMP4v+0xfc>
    3660: 14000001     	b	0x3664 <__Z7findMP4v+0x104>
    3664: f85983a0     	ldur	x0, [x29, #-0x68]
    3668: d10203a1     	sub	x1, x29, #0x80
    366c: d2800002     	mov	x2, #0x0                ; =0
    3670: f90017e2     	str	x2, [sp, #0x28]
    3674: 94000000     	bl	0x3674 <__Z7findMP4v+0x114>
    3678: f94017e2     	ldr	x2, [sp, #0x28]
    367c: aa0003e8     	mov	x8, x0
    3680: b90097e8     	str	w8, [sp, #0x94]
    3684: f85983a0     	ldur	x0, [x29, #-0x68]
    3688: 910263e1     	add	x1, sp, #0x98
    368c: 94000000     	bl	0x368c <__Z7findMP4v+0x12c>
    3690: aa0003e8     	mov	x8, x0
    3694: b90093e8     	str	w8, [sp, #0x90]
    3698: b98097e8     	ldrsw	x8, [sp, #0x94]
    369c: b1000508     	adds	x8, x8, #0x1
    36a0: 1a9f17e8     	cset	w8, eq
    36a4: 5280002a     	mov	w10, #0x1               ; =1
    36a8: 52800009     	mov	w9, #0x0                ; =0
    36ac: 1200012b     	and	w11, w9, #0x1
    36b0: 1200016b     	and	w11, w11, #0x1
    36b4: 3901dfeb     	strb	w11, [sp, #0x77]
    36b8: 12000129     	and	w9, w9, #0x1
    36bc: 0a0a0129     	and	w9, w9, w10
    36c0: 39015fe9     	strb	w9, [sp, #0x57]
    36c4: 37000268     	tbnz	w8, #0x0, 0x3710 <__Z7findMP4v+0x1b0>
    36c8: 14000001     	b	0x36cc <__Z7findMP4v+0x16c>
    36cc: f85983a0     	ldur	x0, [x29, #-0x68]
    36d0: b98097e1     	ldrsw	x1, [sp, #0x94]
    36d4: 9101e3e8     	add	x8, sp, #0x78
    36d8: 92800002     	mov	x2, #-0x1               ; =-1
    36dc: 94000000     	bl	0x36dc <__Z7findMP4v+0x17c>
    36e0: 14000001     	b	0x36e4 <__Z7findMP4v+0x184>
    36e4: 52800028     	mov	w8, #0x1                ; =1
    36e8: 12000108     	and	w8, w8, #0x1
    36ec: 12000108     	and	w8, w8, #0x1
    36f0: 3901dfe8     	strb	w8, [sp, #0x77]
    36f4: 9101e3e0     	add	x0, sp, #0x78
    36f8: d10203a1     	sub	x1, x29, #0x80
    36fc: 94000000     	bl	0x36fc <__Z7findMP4v+0x19c>
    3700: 52800028     	mov	w8, #0x1                ; =1
    3704: b90027e8     	str	w8, [sp, #0x24]
    3708: 37000360     	tbnz	w0, #0x0, 0x3774 <__Z7findMP4v+0x214>
    370c: 14000001     	b	0x3710 <__Z7findMP4v+0x1b0>
    3710: b98093e8     	ldrsw	x8, [sp, #0x90]
    3714: b1000508     	adds	x8, x8, #0x1
    3718: 1a9f17e8     	cset	w8, eq
    371c: 52800000     	mov	w0, #0x0                ; =0
    3720: b90023e0     	str	w0, [sp, #0x20]
    3724: 37000228     	tbnz	w8, #0x0, 0x3768 <__Z7findMP4v+0x208>
    3728: 14000001     	b	0x372c <__Z7findMP4v+0x1cc>
    372c: f85983a0     	ldur	x0, [x29, #-0x68]
    3730: b98093e1     	ldrsw	x1, [sp, #0x90]
    3734: 910163e8     	add	x8, sp, #0x58
    3738: 92800002     	mov	x2, #-0x1               ; =-1
    373c: 94000000     	bl	0x373c <__Z7findMP4v+0x1dc>
    3740: 14000001     	b	0x3744 <__Z7findMP4v+0x1e4>
    3744: 52800028     	mov	w8, #0x1                ; =1
    3748: 12000108     	and	w8, w8, #0x1
    374c: 12000108     	and	w8, w8, #0x1
    3750: 39015fe8     	strb	w8, [sp, #0x57]
    3754: 910163e0     	add	x0, sp, #0x58
    3758: 910263e1     	add	x1, sp, #0x98
    375c: 94000000     	bl	0x375c <__Z7findMP4v+0x1fc>
    3760: b90023e0     	str	w0, [sp, #0x20]
    3764: 14000001     	b	0x3768 <__Z7findMP4v+0x208>
    3768: b94023e8     	ldr	w8, [sp, #0x20]
    376c: b90027e8     	str	w8, [sp, #0x24]
    3770: 14000001     	b	0x3774 <__Z7findMP4v+0x214>
    3774: b94027e8     	ldr	w8, [sp, #0x24]
    3778: b9001fe8     	str	w8, [sp, #0x1c]
    377c: 39415fe8     	ldrb	w8, [sp, #0x57]
    3780: 360000a8     	tbz	w8, #0x0, 0x3794 <__Z7findMP4v+0x234>
    3784: 14000001     	b	0x3788 <__Z7findMP4v+0x228>
    3788: 910163e0     	add	x0, sp, #0x58
    378c: 94000000     	bl	0x378c <__Z7findMP4v+0x22c>
    3790: 14000001     	b	0x3794 <__Z7findMP4v+0x234>
    3794: 3941dfe8     	ldrb	w8, [sp, #0x77]
    3798: 360000a8     	tbz	w8, #0x0, 0x37ac <__Z7findMP4v+0x24c>
    379c: 14000001     	b	0x37a0 <__Z7findMP4v+0x240>
    37a0: 9101e3e0     	add	x0, sp, #0x78
    37a4: 94000000     	bl	0x37a4 <__Z7findMP4v+0x244>
    37a8: 14000001     	b	0x37ac <__Z7findMP4v+0x24c>
    37ac: b9401fe8     	ldr	w8, [sp, #0x1c]
    37b0: 36000388     	tbz	w8, #0x0, 0x3820 <__Z7findMP4v+0x2c0>
    37b4: 14000001     	b	0x37b8 <__Z7findMP4v+0x258>
    37b8: f94027e0     	ldr	x0, [sp, #0x48]
    37bc: f85983a1     	ldur	x1, [x29, #-0x68]
    37c0: 94000000     	bl	0x37c0 <__Z7findMP4v+0x260>
    37c4: 14000001     	b	0x37c8 <__Z7findMP4v+0x268>
    37c8: 14000016     	b	0x3820 <__Z7findMP4v+0x2c0>
    37cc: f94023e9     	ldr	x9, [sp, #0x40]
    37d0: f9000920     	str	x0, [x9, #0x10]
    37d4: aa0103e8     	mov	x8, x1
    37d8: b9000d28     	str	w8, [x9, #0xc]
    37dc: 1400001d     	b	0x3850 <__Z7findMP4v+0x2f0>
    37e0: f94023e9     	ldr	x9, [sp, #0x40]
    37e4: f9000920     	str	x0, [x9, #0x10]
    37e8: aa0103e8     	mov	x8, x1
    37ec: b9000d28     	str	w8, [x9, #0xc]
    37f0: 14000015     	b	0x3844 <__Z7findMP4v+0x2e4>
    37f4: f94023e9     	ldr	x9, [sp, #0x40]
    37f8: f9000920     	str	x0, [x9, #0x10]
    37fc: aa0103e8     	mov	x8, x1
    3800: b9000d28     	str	w8, [x9, #0xc]
    3804: 3941dfe8     	ldrb	w8, [sp, #0x77]
    3808: 360000a8     	tbz	w8, #0x0, 0x381c <__Z7findMP4v+0x2bc>
    380c: 14000001     	b	0x3810 <__Z7findMP4v+0x2b0>
    3810: 9101e3e0     	add	x0, sp, #0x78
    3814: 94000000     	bl	0x3814 <__Z7findMP4v+0x2b4>
    3818: 14000001     	b	0x381c <__Z7findMP4v+0x2bc>
    381c: 1400000a     	b	0x3844 <__Z7findMP4v+0x2e4>
    3820: 910263e0     	add	x0, sp, #0x98
    3824: 94000000     	bl	0x3824 <__Z7findMP4v+0x2c4>
    3828: d10203a0     	sub	x0, x29, #0x80
    382c: 94000000     	bl	0x382c <__Z7findMP4v+0x2cc>
    3830: 14000001     	b	0x3834 <__Z7findMP4v+0x2d4>
    3834: d10163a0     	sub	x0, x29, #0x58
    3838: 94000000     	bl	0x3838 <__Z7findMP4v+0x2d8>
    383c: 14000001     	b	0x3840 <__Z7findMP4v+0x2e0>
    3840: 17ffff65     	b	0x35d4 <__Z7findMP4v+0x74>
    3844: 910263e0     	add	x0, sp, #0x98
    3848: 94000000     	bl	0x3848 <__Z7findMP4v+0x2e8>
    384c: 14000001     	b	0x3850 <__Z7findMP4v+0x2f0>
    3850: d10203a0     	sub	x0, x29, #0x80
    3854: 94000000     	bl	0x3854 <__Z7findMP4v+0x2f4>
    3858: 14000001     	b	0x385c <__Z7findMP4v+0x2fc>
    385c: d10103a0     	sub	x0, x29, #0x40
    3860: 94000000     	bl	0x3860 <__Z7findMP4v+0x300>
    3864: 14000031     	b	0x3928 <__Z7findMP4v+0x3c8>
    3868: 90000000     	adrp	x0, 0x3000 <__Z7findPDFv+0x260>
    386c: f9400000     	ldr	x0, [x0]
    3870: 90000001     	adrp	x1, 0x3000 <__Z7findPDFv+0x260>
    3874: 91000021     	add	x1, x1, #0x0
    3878: 94000000     	bl	0x3878 <__Z7findMP4v+0x318>
    387c: f9000be0     	str	x0, [sp, #0x10]
    3880: 14000001     	b	0x3884 <__Z7findMP4v+0x324>
    3884: f9400be0     	ldr	x0, [sp, #0x10]
    3888: 90000001     	adrp	x1, 0x3000 <__Z7findPDFv+0x260>
    388c: 91000021     	add	x1, x1, #0x0
    3890: 94000000     	bl	0x3890 <__Z7findMP4v+0x330>
    3894: 14000001     	b	0x3898 <__Z7findMP4v+0x338>
    3898: 52800040     	mov	w0, #0x2                ; =2
    389c: 94000000     	bl	0x389c <__Z7findMP4v+0x33c>
    38a0: 14000001     	b	0x38a4 <__Z7findMP4v+0x344>
    38a4: f94027e0     	ldr	x0, [sp, #0x48]
    38a8: 94000000     	bl	0x38a8 <__Z7findMP4v+0x348>
    38ac: aa0003e1     	mov	x1, x0
    38b0: 90000000     	adrp	x0, 0x3000 <__Z7findPDFv+0x260>
    38b4: f9400000     	ldr	x0, [x0]
    38b8: 94000000     	bl	0x38b8 <__Z7findMP4v+0x358>
    38bc: f90007e0     	str	x0, [sp, #0x8]
    38c0: 14000001     	b	0x38c4 <__Z7findMP4v+0x364>
    38c4: f94007e0     	ldr	x0, [sp, #0x8]
    38c8: 90000001     	adrp	x1, 0x3000 <__Z7findPDFv+0x260>
    38cc: 91000021     	add	x1, x1, #0x0
    38d0: 94000000     	bl	0x38d0 <__Z7findMP4v+0x370>
    38d4: f90003e0     	str	x0, [sp]
    38d8: 14000001     	b	0x38dc <__Z7findMP4v+0x37c>
    38dc: f94003e0     	ldr	x0, [sp]
    38e0: 90000001     	adrp	x1, 0x3000 <__Z7findPDFv+0x260>
    38e4: 91000021     	add	x1, x1, #0x0
    38e8: 94000000     	bl	0x38e8 <__Z7findMP4v+0x388>
    38ec: 14000001     	b	0x38f0 <__Z7findMP4v+0x390>
    38f0: 52800028     	mov	w8, #0x1                ; =1
    38f4: 12000108     	and	w8, w8, #0x1
    38f8: 12000108     	and	w8, w8, #0x1
    38fc: 381e73a8     	sturb	w8, [x29, #-0x19]
    3900: 385e73a8     	ldurb	w8, [x29, #-0x19]
    3904: 370000a8     	tbnz	w8, #0x0, 0x3918 <__Z7findMP4v+0x3b8>
    3908: 14000001     	b	0x390c <__Z7findMP4v+0x3ac>
    390c: f94027e0     	ldr	x0, [sp, #0x48]
    3910: 94000000     	bl	0x3910 <__Z7findMP4v+0x3b0>
    3914: 14000001     	b	0x3918 <__Z7findMP4v+0x3b8>
    3918: a9537bfd     	ldp	x29, x30, [sp, #0x130]
    391c: a9526ffc     	ldp	x28, x27, [sp, #0x120]
    3920: 910503ff     	add	sp, sp, #0x140
    3924: d65f03c0     	ret
    3928: f94027e0     	ldr	x0, [sp, #0x48]
    392c: 94000000     	bl	0x392c <__Z7findMP4v+0x3cc>
    3930: 14000001     	b	0x3934 <__Z7findMP4v+0x3d4>
    3934: f94023e8     	ldr	x8, [sp, #0x40]
    3938: f9400900     	ldr	x0, [x8, #0x10]
    393c: 94000000     	bl	0x393c <__Z7findMP4v+0x3dc>

0000000000003940 <__Z7findMOVv>:
    3940: d10503ff     	sub	sp, sp, #0x140
    3944: a9126ffc     	stp	x28, x27, [sp, #0x120]
    3948: a9137bfd     	stp	x29, x30, [sp, #0x130]
    394c: 9104c3fd     	add	x29, sp, #0x130
    3950: d10163a9     	sub	x9, x29, #0x58
    3954: f90023e9     	str	x9, [sp, #0x40]
    3958: aa0803e0     	mov	x0, x8
    395c: f90027e0     	str	x0, [sp, #0x48]
    3960: aa0003e8     	mov	x8, x0
    3964: f9002128     	str	x8, [x9, #0x40]
    3968: 52800008     	mov	w8, #0x0                ; =0
    396c: 12000108     	and	w8, w8, #0x1
    3970: 12000108     	and	w8, w8, #0x1
    3974: 381e73a8     	sturb	w8, [x29, #-0x19]
    3978: 94000000     	bl	0x3978 <__Z7findMOVv+0x38>
    397c: d10103a8     	sub	x8, x29, #0x40
    3980: 94000000     	bl	0x3980 <__Z7findMOVv+0x40>
    3984: 14000001     	b	0x3988 <__Z7findMOVv+0x48>
    3988: f94023e8     	ldr	x8, [sp, #0x40]
    398c: d10103a9     	sub	x9, x29, #0x40
    3990: f9001909     	str	x9, [x8, #0x30]
    3994: f9401900     	ldr	x0, [x8, #0x30]
    3998: 94000000     	bl	0x3998 <__Z7findMOVv+0x58>
    399c: f94023e8     	ldr	x8, [sp, #0x40]
    39a0: f9000100     	str	x0, [x8]
    39a4: f9401900     	ldr	x0, [x8, #0x30]
    39a8: 94000000     	bl	0x39a8 <__Z7findMOVv+0x68>
    39ac: f81a03a0     	stur	x0, [x29, #-0x60]
    39b0: 14000001     	b	0x39b4 <__Z7findMOVv+0x74>
    39b4: d10163a0     	sub	x0, x29, #0x58
    39b8: d10183a1     	sub	x1, x29, #0x60
    39bc: 94000000     	bl	0x39bc <__Z7findMOVv+0x7c>
    39c0: b9003fe0     	str	w0, [sp, #0x3c]
    39c4: 14000001     	b	0x39c8 <__Z7findMOVv+0x88>
    39c8: b9403fe8     	ldr	w8, [sp, #0x3c]
    39cc: 370001e8     	tbnz	w8, #0x0, 0x3a08 <__Z7findMOVv+0xc8>
    39d0: 14000001     	b	0x39d4 <__Z7findMOVv+0x94>
    39d4: d10103a0     	sub	x0, x29, #0x40
    39d8: 94000000     	bl	0x39d8 <__Z7findMOVv+0x98>
    39dc: 1400009b     	b	0x3c48 <__Z7findMOVv+0x308>
    39e0: f94023e9     	ldr	x9, [sp, #0x40]
    39e4: f9000920     	str	x0, [x9, #0x10]
    39e8: aa0103e8     	mov	x8, x1
    39ec: b9000d28     	str	w8, [x9, #0xc]
    39f0: 140000c6     	b	0x3d08 <__Z7findMOVv+0x3c8>
    39f4: f94023e9     	ldr	x9, [sp, #0x40]
    39f8: f9000920     	str	x0, [x9, #0x10]
    39fc: aa0103e8     	mov	x8, x1
    3a00: b9000d28     	str	w8, [x9, #0xc]
    3a04: 1400008e     	b	0x3c3c <__Z7findMOVv+0x2fc>
    3a08: d10163a0     	sub	x0, x29, #0x58
    3a0c: 94000000     	bl	0x3a0c <__Z7findMOVv+0xcc>
    3a10: f9001be0     	str	x0, [sp, #0x30]
    3a14: 14000001     	b	0x3a18 <__Z7findMOVv+0xd8>
    3a18: f9401be8     	ldr	x8, [sp, #0x30]
    3a1c: f81983a8     	stur	x8, [x29, #-0x68]
    3a20: d10203a0     	sub	x0, x29, #0x80
    3a24: 90000001     	adrp	x1, 0x3000 <__Z7findPDFv+0x260>
    3a28: 91000021     	add	x1, x1, #0x0
    3a2c: 94000000     	bl	0x3a2c <__Z7findMOVv+0xec>
    3a30: 14000001     	b	0x3a34 <__Z7findMOVv+0xf4>
    3a34: 910263e8     	add	x8, sp, #0x98
    3a38: d10203a0     	sub	x0, x29, #0x80
    3a3c: 94000000     	bl	0x3a3c <__Z7findMOVv+0xfc>
    3a40: 14000001     	b	0x3a44 <__Z7findMOVv+0x104>
    3a44: f85983a0     	ldur	x0, [x29, #-0x68]
    3a48: d10203a1     	sub	x1, x29, #0x80
    3a4c: d2800002     	mov	x2, #0x0                ; =0
    3a50: f90017e2     	str	x2, [sp, #0x28]
    3a54: 94000000     	bl	0x3a54 <__Z7findMOVv+0x114>
    3a58: f94017e2     	ldr	x2, [sp, #0x28]
    3a5c: aa0003e8     	mov	x8, x0
    3a60: b90097e8     	str	w8, [sp, #0x94]
    3a64: f85983a0     	ldur	x0, [x29, #-0x68]
    3a68: 910263e1     	add	x1, sp, #0x98
    3a6c: 94000000     	bl	0x3a6c <__Z7findMOVv+0x12c>
    3a70: aa0003e8     	mov	x8, x0
    3a74: b90093e8     	str	w8, [sp, #0x90]
    3a78: b98097e8     	ldrsw	x8, [sp, #0x94]
    3a7c: b1000508     	adds	x8, x8, #0x1
    3a80: 1a9f17e8     	cset	w8, eq
    3a84: 5280002a     	mov	w10, #0x1               ; =1
    3a88: 52800009     	mov	w9, #0x0                ; =0
    3a8c: 1200012b     	and	w11, w9, #0x1
    3a90: 1200016b     	and	w11, w11, #0x1
    3a94: 3901dfeb     	strb	w11, [sp, #0x77]
    3a98: 12000129     	and	w9, w9, #0x1
    3a9c: 0a0a0129     	and	w9, w9, w10
    3aa0: 39015fe9     	strb	w9, [sp, #0x57]
    3aa4: 37000268     	tbnz	w8, #0x0, 0x3af0 <__Z7findMOVv+0x1b0>
    3aa8: 14000001     	b	0x3aac <__Z7findMOVv+0x16c>
    3aac: f85983a0     	ldur	x0, [x29, #-0x68]
    3ab0: b98097e1     	ldrsw	x1, [sp, #0x94]
    3ab4: 9101e3e8     	add	x8, sp, #0x78
    3ab8: 92800002     	mov	x2, #-0x1               ; =-1
    3abc: 94000000     	bl	0x3abc <__Z7findMOVv+0x17c>
    3ac0: 14000001     	b	0x3ac4 <__Z7findMOVv+0x184>
    3ac4: 52800028     	mov	w8, #0x1                ; =1
    3ac8: 12000108     	and	w8, w8, #0x1
    3acc: 12000108     	and	w8, w8, #0x1
    3ad0: 3901dfe8     	strb	w8, [sp, #0x77]
    3ad4: 9101e3e0     	add	x0, sp, #0x78
    3ad8: d10203a1     	sub	x1, x29, #0x80
    3adc: 94000000     	bl	0x3adc <__Z7findMOVv+0x19c>
    3ae0: 52800028     	mov	w8, #0x1                ; =1
    3ae4: b90027e8     	str	w8, [sp, #0x24]
    3ae8: 37000360     	tbnz	w0, #0x0, 0x3b54 <__Z7findMOVv+0x214>
    3aec: 14000001     	b	0x3af0 <__Z7findMOVv+0x1b0>
    3af0: b98093e8     	ldrsw	x8, [sp, #0x90]
    3af4: b1000508     	adds	x8, x8, #0x1
    3af8: 1a9f17e8     	cset	w8, eq
    3afc: 52800000     	mov	w0, #0x0                ; =0
    3b00: b90023e0     	str	w0, [sp, #0x20]
    3b04: 37000228     	tbnz	w8, #0x0, 0x3b48 <__Z7findMOVv+0x208>
    3b08: 14000001     	b	0x3b0c <__Z7findMOVv+0x1cc>
    3b0c: f85983a0     	ldur	x0, [x29, #-0x68]
    3b10: b98093e1     	ldrsw	x1, [sp, #0x90]
    3b14: 910163e8     	add	x8, sp, #0x58
    3b18: 92800002     	mov	x2, #-0x1               ; =-1
    3b1c: 94000000     	bl	0x3b1c <__Z7findMOVv+0x1dc>
    3b20: 14000001     	b	0x3b24 <__Z7findMOVv+0x1e4>
    3b24: 52800028     	mov	w8, #0x1                ; =1
    3b28: 12000108     	and	w8, w8, #0x1
    3b2c: 12000108     	and	w8, w8, #0x1
    3b30: 39015fe8     	strb	w8, [sp, #0x57]
    3b34: 910163e0     	add	x0, sp, #0x58
    3b38: 910263e1     	add	x1, sp, #0x98
    3b3c: 94000000     	bl	0x3b3c <__Z7findMOVv+0x1fc>
    3b40: b90023e0     	str	w0, [sp, #0x20]
    3b44: 14000001     	b	0x3b48 <__Z7findMOVv+0x208>
    3b48: b94023e8     	ldr	w8, [sp, #0x20]
    3b4c: b90027e8     	str	w8, [sp, #0x24]
    3b50: 14000001     	b	0x3b54 <__Z7findMOVv+0x214>
    3b54: b94027e8     	ldr	w8, [sp, #0x24]
    3b58: b9001fe8     	str	w8, [sp, #0x1c]
    3b5c: 39415fe8     	ldrb	w8, [sp, #0x57]
    3b60: 360000a8     	tbz	w8, #0x0, 0x3b74 <__Z7findMOVv+0x234>
    3b64: 14000001     	b	0x3b68 <__Z7findMOVv+0x228>
    3b68: 910163e0     	add	x0, sp, #0x58
    3b6c: 94000000     	bl	0x3b6c <__Z7findMOVv+0x22c>
    3b70: 14000001     	b	0x3b74 <__Z7findMOVv+0x234>
    3b74: 3941dfe8     	ldrb	w8, [sp, #0x77]
    3b78: 360000a8     	tbz	w8, #0x0, 0x3b8c <__Z7findMOVv+0x24c>
    3b7c: 14000001     	b	0x3b80 <__Z7findMOVv+0x240>
    3b80: 9101e3e0     	add	x0, sp, #0x78
    3b84: 94000000     	bl	0x3b84 <__Z7findMOVv+0x244>
    3b88: 14000001     	b	0x3b8c <__Z7findMOVv+0x24c>
    3b8c: b9401fe8     	ldr	w8, [sp, #0x1c]
    3b90: 36000388     	tbz	w8, #0x0, 0x3c00 <__Z7findMOVv+0x2c0>
    3b94: 14000001     	b	0x3b98 <__Z7findMOVv+0x258>
    3b98: f94027e0     	ldr	x0, [sp, #0x48]
    3b9c: f85983a1     	ldur	x1, [x29, #-0x68]
    3ba0: 94000000     	bl	0x3ba0 <__Z7findMOVv+0x260>
    3ba4: 14000001     	b	0x3ba8 <__Z7findMOVv+0x268>
    3ba8: 14000016     	b	0x3c00 <__Z7findMOVv+0x2c0>
    3bac: f94023e9     	ldr	x9, [sp, #0x40]
    3bb0: f9000920     	str	x0, [x9, #0x10]
    3bb4: aa0103e8     	mov	x8, x1
    3bb8: b9000d28     	str	w8, [x9, #0xc]
    3bbc: 1400001d     	b	0x3c30 <__Z7findMOVv+0x2f0>
    3bc0: f94023e9     	ldr	x9, [sp, #0x40]
    3bc4: f9000920     	str	x0, [x9, #0x10]
    3bc8: aa0103e8     	mov	x8, x1
    3bcc: b9000d28     	str	w8, [x9, #0xc]
    3bd0: 14000015     	b	0x3c24 <__Z7findMOVv+0x2e4>
    3bd4: f94023e9     	ldr	x9, [sp, #0x40]
    3bd8: f9000920     	str	x0, [x9, #0x10]
    3bdc: aa0103e8     	mov	x8, x1
    3be0: b9000d28     	str	w8, [x9, #0xc]
    3be4: 3941dfe8     	ldrb	w8, [sp, #0x77]
    3be8: 360000a8     	tbz	w8, #0x0, 0x3bfc <__Z7findMOVv+0x2bc>
    3bec: 14000001     	b	0x3bf0 <__Z7findMOVv+0x2b0>
    3bf0: 9101e3e0     	add	x0, sp, #0x78
    3bf4: 94000000     	bl	0x3bf4 <__Z7findMOVv+0x2b4>
    3bf8: 14000001     	b	0x3bfc <__Z7findMOVv+0x2bc>
    3bfc: 1400000a     	b	0x3c24 <__Z7findMOVv+0x2e4>
    3c00: 910263e0     	add	x0, sp, #0x98
    3c04: 94000000     	bl	0x3c04 <__Z7findMOVv+0x2c4>
    3c08: d10203a0     	sub	x0, x29, #0x80
    3c0c: 94000000     	bl	0x3c0c <__Z7findMOVv+0x2cc>
    3c10: 14000001     	b	0x3c14 <__Z7findMOVv+0x2d4>
    3c14: d10163a0     	sub	x0, x29, #0x58
    3c18: 94000000     	bl	0x3c18 <__Z7findMOVv+0x2d8>
    3c1c: 14000001     	b	0x3c20 <__Z7findMOVv+0x2e0>
    3c20: 17ffff65     	b	0x39b4 <__Z7findMOVv+0x74>
    3c24: 910263e0     	add	x0, sp, #0x98
    3c28: 94000000     	bl	0x3c28 <__Z7findMOVv+0x2e8>
    3c2c: 14000001     	b	0x3c30 <__Z7findMOVv+0x2f0>
    3c30: d10203a0     	sub	x0, x29, #0x80
    3c34: 94000000     	bl	0x3c34 <__Z7findMOVv+0x2f4>
    3c38: 14000001     	b	0x3c3c <__Z7findMOVv+0x2fc>
    3c3c: d10103a0     	sub	x0, x29, #0x40
    3c40: 94000000     	bl	0x3c40 <__Z7findMOVv+0x300>
    3c44: 14000031     	b	0x3d08 <__Z7findMOVv+0x3c8>
    3c48: 90000000     	adrp	x0, 0x3000 <__Z7findPDFv+0x260>
    3c4c: f9400000     	ldr	x0, [x0]
    3c50: 90000001     	adrp	x1, 0x3000 <__Z7findPDFv+0x260>
    3c54: 91000021     	add	x1, x1, #0x0
    3c58: 94000000     	bl	0x3c58 <__Z7findMOVv+0x318>
    3c5c: f9000be0     	str	x0, [sp, #0x10]
    3c60: 14000001     	b	0x3c64 <__Z7findMOVv+0x324>
    3c64: f9400be0     	ldr	x0, [sp, #0x10]
    3c68: 90000001     	adrp	x1, 0x3000 <__Z7findPDFv+0x260>
    3c6c: 91000021     	add	x1, x1, #0x0
    3c70: 94000000     	bl	0x3c70 <__Z7findMOVv+0x330>
    3c74: 14000001     	b	0x3c78 <__Z7findMOVv+0x338>
    3c78: 52800040     	mov	w0, #0x2                ; =2
    3c7c: 94000000     	bl	0x3c7c <__Z7findMOVv+0x33c>
    3c80: 14000001     	b	0x3c84 <__Z7findMOVv+0x344>
    3c84: f94027e0     	ldr	x0, [sp, #0x48]
    3c88: 94000000     	bl	0x3c88 <__Z7findMOVv+0x348>
    3c8c: aa0003e1     	mov	x1, x0
    3c90: 90000000     	adrp	x0, 0x3000 <__Z7findPDFv+0x260>
    3c94: f9400000     	ldr	x0, [x0]
    3c98: 94000000     	bl	0x3c98 <__Z7findMOVv+0x358>
    3c9c: f90007e0     	str	x0, [sp, #0x8]
    3ca0: 14000001     	b	0x3ca4 <__Z7findMOVv+0x364>
    3ca4: f94007e0     	ldr	x0, [sp, #0x8]
    3ca8: 90000001     	adrp	x1, 0x3000 <__Z7findPDFv+0x260>
    3cac: 91000021     	add	x1, x1, #0x0
    3cb0: 94000000     	bl	0x3cb0 <__Z7findMOVv+0x370>
    3cb4: f90003e0     	str	x0, [sp]
    3cb8: 14000001     	b	0x3cbc <__Z7findMOVv+0x37c>
    3cbc: f94003e0     	ldr	x0, [sp]
    3cc0: 90000001     	adrp	x1, 0x3000 <__Z7findPDFv+0x260>
    3cc4: 91000021     	add	x1, x1, #0x0
    3cc8: 94000000     	bl	0x3cc8 <__Z7findMOVv+0x388>
    3ccc: 14000001     	b	0x3cd0 <__Z7findMOVv+0x390>
    3cd0: 52800028     	mov	w8, #0x1                ; =1
    3cd4: 12000108     	and	w8, w8, #0x1
    3cd8: 12000108     	and	w8, w8, #0x1
    3cdc: 381e73a8     	sturb	w8, [x29, #-0x19]
    3ce0: 385e73a8     	ldurb	w8, [x29, #-0x19]
    3ce4: 370000a8     	tbnz	w8, #0x0, 0x3cf8 <__Z7findMOVv+0x3b8>
    3ce8: 14000001     	b	0x3cec <__Z7findMOVv+0x3ac>
    3cec: f94027e0     	ldr	x0, [sp, #0x48]
    3cf0: 94000000     	bl	0x3cf0 <__Z7findMOVv+0x3b0>
    3cf4: 14000001     	b	0x3cf8 <__Z7findMOVv+0x3b8>
    3cf8: a9537bfd     	ldp	x29, x30, [sp, #0x130]
    3cfc: a9526ffc     	ldp	x28, x27, [sp, #0x120]
    3d00: 910503ff     	add	sp, sp, #0x140
    3d04: d65f03c0     	ret
    3d08: f94027e0     	ldr	x0, [sp, #0x48]
    3d0c: 94000000     	bl	0x3d0c <__Z7findMOVv+0x3cc>
    3d10: 14000001     	b	0x3d14 <__Z7findMOVv+0x3d4>
    3d14: f94023e8     	ldr	x8, [sp, #0x40]
    3d18: f9400900     	ldr	x0, [x8, #0x10]
    3d1c: 94000000     	bl	0x3d1c <__Z7findMOVv+0x3dc>

0000000000003d20 <__Z7findMP3v>:
    3d20: d10503ff     	sub	sp, sp, #0x140
    3d24: a9126ffc     	stp	x28, x27, [sp, #0x120]
    3d28: a9137bfd     	stp	x29, x30, [sp, #0x130]
    3d2c: 9104c3fd     	add	x29, sp, #0x130
    3d30: d10163a9     	sub	x9, x29, #0x58
    3d34: f90023e9     	str	x9, [sp, #0x40]
    3d38: aa0803e0     	mov	x0, x8
    3d3c: f90027e0     	str	x0, [sp, #0x48]
    3d40: aa0003e8     	mov	x8, x0
    3d44: f9002128     	str	x8, [x9, #0x40]
    3d48: 52800008     	mov	w8, #0x0                ; =0
    3d4c: 12000108     	and	w8, w8, #0x1
    3d50: 12000108     	and	w8, w8, #0x1
    3d54: 381e73a8     	sturb	w8, [x29, #-0x19]
    3d58: 94000000     	bl	0x3d58 <__Z7findMP3v+0x38>
    3d5c: d10103a8     	sub	x8, x29, #0x40
    3d60: 94000000     	bl	0x3d60 <__Z7findMP3v+0x40>
    3d64: 14000001     	b	0x3d68 <__Z7findMP3v+0x48>
    3d68: f94023e8     	ldr	x8, [sp, #0x40]
    3d6c: d10103a9     	sub	x9, x29, #0x40
    3d70: f9001909     	str	x9, [x8, #0x30]
    3d74: f9401900     	ldr	x0, [x8, #0x30]
    3d78: 94000000     	bl	0x3d78 <__Z7findMP3v+0x58>
    3d7c: f94023e8     	ldr	x8, [sp, #0x40]
    3d80: f9000100     	str	x0, [x8]
    3d84: f9401900     	ldr	x0, [x8, #0x30]
    3d88: 94000000     	bl	0x3d88 <__Z7findMP3v+0x68>
    3d8c: f81a03a0     	stur	x0, [x29, #-0x60]
    3d90: 14000001     	b	0x3d94 <__Z7findMP3v+0x74>
    3d94: d10163a0     	sub	x0, x29, #0x58
    3d98: d10183a1     	sub	x1, x29, #0x60
    3d9c: 94000000     	bl	0x3d9c <__Z7findMP3v+0x7c>
    3da0: b9003fe0     	str	w0, [sp, #0x3c]
    3da4: 14000001     	b	0x3da8 <__Z7findMP3v+0x88>
    3da8: b9403fe8     	ldr	w8, [sp, #0x3c]
    3dac: 370001e8     	tbnz	w8, #0x0, 0x3de8 <__Z7findMP3v+0xc8>
    3db0: 14000001     	b	0x3db4 <__Z7findMP3v+0x94>
    3db4: d10103a0     	sub	x0, x29, #0x40
    3db8: 94000000     	bl	0x3db8 <__Z7findMP3v+0x98>
    3dbc: 1400009b     	b	0x4028 <__Z7findMP3v+0x308>
    3dc0: f94023e9     	ldr	x9, [sp, #0x40]
    3dc4: f9000920     	str	x0, [x9, #0x10]
    3dc8: aa0103e8     	mov	x8, x1
    3dcc: b9000d28     	str	w8, [x9, #0xc]
    3dd0: 140000c6     	b	0x40e8 <__Z7findMP3v+0x3c8>
    3dd4: f94023e9     	ldr	x9, [sp, #0x40]
    3dd8: f9000920     	str	x0, [x9, #0x10]
    3ddc: aa0103e8     	mov	x8, x1
    3de0: b9000d28     	str	w8, [x9, #0xc]
    3de4: 1400008e     	b	0x401c <__Z7findMP3v+0x2fc>
    3de8: d10163a0     	sub	x0, x29, #0x58
    3dec: 94000000     	bl	0x3dec <__Z7findMP3v+0xcc>
    3df0: f9001be0     	str	x0, [sp, #0x30]
    3df4: 14000001     	b	0x3df8 <__Z7findMP3v+0xd8>
    3df8: f9401be8     	ldr	x8, [sp, #0x30]
    3dfc: f81983a8     	stur	x8, [x29, #-0x68]
    3e00: d10203a0     	sub	x0, x29, #0x80
    3e04: 90000001     	adrp	x1, 0x3000 <__Z7findPDFv+0x260>
    3e08: 91000021     	add	x1, x1, #0x0
    3e0c: 94000000     	bl	0x3e0c <__Z7findMP3v+0xec>
    3e10: 14000001     	b	0x3e14 <__Z7findMP3v+0xf4>
    3e14: 910263e8     	add	x8, sp, #0x98
    3e18: d10203a0     	sub	x0, x29, #0x80
    3e1c: 94000000     	bl	0x3e1c <__Z7findMP3v+0xfc>
    3e20: 14000001     	b	0x3e24 <__Z7findMP3v+0x104>
    3e24: f85983a0     	ldur	x0, [x29, #-0x68]
    3e28: d10203a1     	sub	x1, x29, #0x80
    3e2c: d2800002     	mov	x2, #0x0                ; =0
    3e30: f90017e2     	str	x2, [sp, #0x28]
    3e34: 94000000     	bl	0x3e34 <__Z7findMP3v+0x114>
    3e38: f94017e2     	ldr	x2, [sp, #0x28]
    3e3c: aa0003e8     	mov	x8, x0
    3e40: b90097e8     	str	w8, [sp, #0x94]
    3e44: f85983a0     	ldur	x0, [x29, #-0x68]
    3e48: 910263e1     	add	x1, sp, #0x98
    3e4c: 94000000     	bl	0x3e4c <__Z7findMP3v+0x12c>
    3e50: aa0003e8     	mov	x8, x0
    3e54: b90093e8     	str	w8, [sp, #0x90]
    3e58: b98097e8     	ldrsw	x8, [sp, #0x94]
    3e5c: b1000508     	adds	x8, x8, #0x1
    3e60: 1a9f17e8     	cset	w8, eq
    3e64: 5280002a     	mov	w10, #0x1               ; =1
    3e68: 52800009     	mov	w9, #0x0                ; =0
    3e6c: 1200012b     	and	w11, w9, #0x1
    3e70: 1200016b     	and	w11, w11, #0x1
    3e74: 3901dfeb     	strb	w11, [sp, #0x77]
    3e78: 12000129     	and	w9, w9, #0x1
    3e7c: 0a0a0129     	and	w9, w9, w10
    3e80: 39015fe9     	strb	w9, [sp, #0x57]
    3e84: 37000268     	tbnz	w8, #0x0, 0x3ed0 <__Z7findMP3v+0x1b0>
    3e88: 14000001     	b	0x3e8c <__Z7findMP3v+0x16c>
    3e8c: f85983a0     	ldur	x0, [x29, #-0x68]
    3e90: b98097e1     	ldrsw	x1, [sp, #0x94]
    3e94: 9101e3e8     	add	x8, sp, #0x78
    3e98: 92800002     	mov	x2, #-0x1               ; =-1
    3e9c: 94000000     	bl	0x3e9c <__Z7findMP3v+0x17c>
    3ea0: 14000001     	b	0x3ea4 <__Z7findMP3v+0x184>
    3ea4: 52800028     	mov	w8, #0x1                ; =1
    3ea8: 12000108     	and	w8, w8, #0x1
    3eac: 12000108     	and	w8, w8, #0x1
    3eb0: 3901dfe8     	strb	w8, [sp, #0x77]
    3eb4: 9101e3e0     	add	x0, sp, #0x78
    3eb8: d10203a1     	sub	x1, x29, #0x80
    3ebc: 94000000     	bl	0x3ebc <__Z7findMP3v+0x19c>
    3ec0: 52800028     	mov	w8, #0x1                ; =1
    3ec4: b90027e8     	str	w8, [sp, #0x24]
    3ec8: 37000360     	tbnz	w0, #0x0, 0x3f34 <__Z7findMP3v+0x214>
    3ecc: 14000001     	b	0x3ed0 <__Z7findMP3v+0x1b0>
    3ed0: b98093e8     	ldrsw	x8, [sp, #0x90]
    3ed4: b1000508     	adds	x8, x8, #0x1
    3ed8: 1a9f17e8     	cset	w8, eq
    3edc: 52800000     	mov	w0, #0x0                ; =0
    3ee0: b90023e0     	str	w0, [sp, #0x20]
    3ee4: 37000228     	tbnz	w8, #0x0, 0x3f28 <__Z7findMP3v+0x208>
    3ee8: 14000001     	b	0x3eec <__Z7findMP3v+0x1cc>
    3eec: f85983a0     	ldur	x0, [x29, #-0x68]
    3ef0: b98093e1     	ldrsw	x1, [sp, #0x90]
    3ef4: 910163e8     	add	x8, sp, #0x58
    3ef8: 92800002     	mov	x2, #-0x1               ; =-1
    3efc: 94000000     	bl	0x3efc <__Z7findMP3v+0x1dc>
    3f00: 14000001     	b	0x3f04 <__Z7findMP3v+0x1e4>
    3f04: 52800028     	mov	w8, #0x1                ; =1
    3f08: 12000108     	and	w8, w8, #0x1
    3f0c: 12000108     	and	w8, w8, #0x1
    3f10: 39015fe8     	strb	w8, [sp, #0x57]
    3f14: 910163e0     	add	x0, sp, #0x58
    3f18: 910263e1     	add	x1, sp, #0x98
    3f1c: 94000000     	bl	0x3f1c <__Z7findMP3v+0x1fc>
    3f20: b90023e0     	str	w0, [sp, #0x20]
    3f24: 14000001     	b	0x3f28 <__Z7findMP3v+0x208>
    3f28: b94023e8     	ldr	w8, [sp, #0x20]
    3f2c: b90027e8     	str	w8, [sp, #0x24]
    3f30: 14000001     	b	0x3f34 <__Z7findMP3v+0x214>
    3f34: b94027e8     	ldr	w8, [sp, #0x24]
    3f38: b9001fe8     	str	w8, [sp, #0x1c]
    3f3c: 39415fe8     	ldrb	w8, [sp, #0x57]
    3f40: 360000a8     	tbz	w8, #0x0, 0x3f54 <__Z7findMP3v+0x234>
    3f44: 14000001     	b	0x3f48 <__Z7findMP3v+0x228>
    3f48: 910163e0     	add	x0, sp, #0x58
    3f4c: 94000000     	bl	0x3f4c <__Z7findMP3v+0x22c>
    3f50: 14000001     	b	0x3f54 <__Z7findMP3v+0x234>
    3f54: 3941dfe8     	ldrb	w8, [sp, #0x77]
    3f58: 360000a8     	tbz	w8, #0x0, 0x3f6c <__Z7findMP3v+0x24c>
    3f5c: 14000001     	b	0x3f60 <__Z7findMP3v+0x240>
    3f60: 9101e3e0     	add	x0, sp, #0x78
    3f64: 94000000     	bl	0x3f64 <__Z7findMP3v+0x244>
    3f68: 14000001     	b	0x3f6c <__Z7findMP3v+0x24c>
    3f6c: b9401fe8     	ldr	w8, [sp, #0x1c]
    3f70: 36000388     	tbz	w8, #0x0, 0x3fe0 <__Z7findMP3v+0x2c0>
    3f74: 14000001     	b	0x3f78 <__Z7findMP3v+0x258>
    3f78: f94027e0     	ldr	x0, [sp, #0x48]
    3f7c: f85983a1     	ldur	x1, [x29, #-0x68]
    3f80: 94000000     	bl	0x3f80 <__Z7findMP3v+0x260>
    3f84: 14000001     	b	0x3f88 <__Z7findMP3v+0x268>
    3f88: 14000016     	b	0x3fe0 <__Z7findMP3v+0x2c0>
    3f8c: f94023e9     	ldr	x9, [sp, #0x40]
    3f90: f9000920     	str	x0, [x9, #0x10]
    3f94: aa0103e8     	mov	x8, x1
    3f98: b9000d28     	str	w8, [x9, #0xc]
    3f9c: 1400001d     	b	0x4010 <__Z7findMP3v+0x2f0>
    3fa0: f94023e9     	ldr	x9, [sp, #0x40]
    3fa4: f9000920     	str	x0, [x9, #0x10]
    3fa8: aa0103e8     	mov	x8, x1
    3fac: b9000d28     	str	w8, [x9, #0xc]
    3fb0: 14000015     	b	0x4004 <__Z7findMP3v+0x2e4>
    3fb4: f94023e9     	ldr	x9, [sp, #0x40]
    3fb8: f9000920     	str	x0, [x9, #0x10]
    3fbc: aa0103e8     	mov	x8, x1
    3fc0: b9000d28     	str	w8, [x9, #0xc]
    3fc4: 3941dfe8     	ldrb	w8, [sp, #0x77]
    3fc8: 360000a8     	tbz	w8, #0x0, 0x3fdc <__Z7findMP3v+0x2bc>
    3fcc: 14000001     	b	0x3fd0 <__Z7findMP3v+0x2b0>
    3fd0: 9101e3e0     	add	x0, sp, #0x78
    3fd4: 94000000     	bl	0x3fd4 <__Z7findMP3v+0x2b4>
    3fd8: 14000001     	b	0x3fdc <__Z7findMP3v+0x2bc>
    3fdc: 1400000a     	b	0x4004 <__Z7findMP3v+0x2e4>
    3fe0: 910263e0     	add	x0, sp, #0x98
    3fe4: 94000000     	bl	0x3fe4 <__Z7findMP3v+0x2c4>
    3fe8: d10203a0     	sub	x0, x29, #0x80
    3fec: 94000000     	bl	0x3fec <__Z7findMP3v+0x2cc>
    3ff0: 14000001     	b	0x3ff4 <__Z7findMP3v+0x2d4>
    3ff4: d10163a0     	sub	x0, x29, #0x58
    3ff8: 94000000     	bl	0x3ff8 <__Z7findMP3v+0x2d8>
    3ffc: 14000001     	b	0x4000 <__Z7findMP3v+0x2e0>
    4000: 17ffff65     	b	0x3d94 <__Z7findMP3v+0x74>
    4004: 910263e0     	add	x0, sp, #0x98
    4008: 94000000     	bl	0x4008 <__Z7findMP3v+0x2e8>
    400c: 14000001     	b	0x4010 <__Z7findMP3v+0x2f0>
    4010: d10203a0     	sub	x0, x29, #0x80
    4014: 94000000     	bl	0x4014 <__Z7findMP3v+0x2f4>
    4018: 14000001     	b	0x401c <__Z7findMP3v+0x2fc>
    401c: d10103a0     	sub	x0, x29, #0x40
    4020: 94000000     	bl	0x4020 <__Z7findMP3v+0x300>
    4024: 14000031     	b	0x40e8 <__Z7findMP3v+0x3c8>
    4028: 90000000     	adrp	x0, 0x4000 <__Z7findMP3v+0x2e0>
    402c: f9400000     	ldr	x0, [x0]
    4030: 90000001     	adrp	x1, 0x4000 <__Z7findMP3v+0x2e0>
    4034: 91000021     	add	x1, x1, #0x0
    4038: 94000000     	bl	0x4038 <__Z7findMP3v+0x318>
    403c: f9000be0     	str	x0, [sp, #0x10]
    4040: 14000001     	b	0x4044 <__Z7findMP3v+0x324>
    4044: f9400be0     	ldr	x0, [sp, #0x10]
    4048: 90000001     	adrp	x1, 0x4000 <__Z7findMP3v+0x2e0>
    404c: 91000021     	add	x1, x1, #0x0
    4050: 94000000     	bl	0x4050 <__Z7findMP3v+0x330>
    4054: 14000001     	b	0x4058 <__Z7findMP3v+0x338>
    4058: 52800040     	mov	w0, #0x2                ; =2
    405c: 94000000     	bl	0x405c <__Z7findMP3v+0x33c>
    4060: 14000001     	b	0x4064 <__Z7findMP3v+0x344>
    4064: f94027e0     	ldr	x0, [sp, #0x48]
    4068: 94000000     	bl	0x4068 <__Z7findMP3v+0x348>
    406c: aa0003e1     	mov	x1, x0
    4070: 90000000     	adrp	x0, 0x4000 <__Z7findMP3v+0x2e0>
    4074: f9400000     	ldr	x0, [x0]
    4078: 94000000     	bl	0x4078 <__Z7findMP3v+0x358>
    407c: f90007e0     	str	x0, [sp, #0x8]
    4080: 14000001     	b	0x4084 <__Z7findMP3v+0x364>
    4084: f94007e0     	ldr	x0, [sp, #0x8]
    4088: 90000001     	adrp	x1, 0x4000 <__Z7findMP3v+0x2e0>
    408c: 91000021     	add	x1, x1, #0x0
    4090: 94000000     	bl	0x4090 <__Z7findMP3v+0x370>
    4094: f90003e0     	str	x0, [sp]
    4098: 14000001     	b	0x409c <__Z7findMP3v+0x37c>
    409c: f94003e0     	ldr	x0, [sp]
    40a0: 90000001     	adrp	x1, 0x4000 <__Z7findMP3v+0x2e0>
    40a4: 91000021     	add	x1, x1, #0x0
    40a8: 94000000     	bl	0x40a8 <__Z7findMP3v+0x388>
    40ac: 14000001     	b	0x40b0 <__Z7findMP3v+0x390>
    40b0: 52800028     	mov	w8, #0x1                ; =1
    40b4: 12000108     	and	w8, w8, #0x1
    40b8: 12000108     	and	w8, w8, #0x1
    40bc: 381e73a8     	sturb	w8, [x29, #-0x19]
    40c0: 385e73a8     	ldurb	w8, [x29, #-0x19]
    40c4: 370000a8     	tbnz	w8, #0x0, 0x40d8 <__Z7findMP3v+0x3b8>
    40c8: 14000001     	b	0x40cc <__Z7findMP3v+0x3ac>
    40cc: f94027e0     	ldr	x0, [sp, #0x48]
    40d0: 94000000     	bl	0x40d0 <__Z7findMP3v+0x3b0>
    40d4: 14000001     	b	0x40d8 <__Z7findMP3v+0x3b8>
    40d8: a9537bfd     	ldp	x29, x30, [sp, #0x130]
    40dc: a9526ffc     	ldp	x28, x27, [sp, #0x120]
    40e0: 910503ff     	add	sp, sp, #0x140
    40e4: d65f03c0     	ret
    40e8: f94027e0     	ldr	x0, [sp, #0x48]
    40ec: 94000000     	bl	0x40ec <__Z7findMP3v+0x3cc>
    40f0: 14000001     	b	0x40f4 <__Z7findMP3v+0x3d4>
    40f4: f94023e8     	ldr	x8, [sp, #0x40]
    40f8: f9400900     	ldr	x0, [x8, #0x10]
    40fc: 94000000     	bl	0x40fc <__Z7findMP3v+0x3dc>

0000000000004100 <__Z7findWAVv>:
    4100: d10503ff     	sub	sp, sp, #0x140
    4104: a9126ffc     	stp	x28, x27, [sp, #0x120]
    4108: a9137bfd     	stp	x29, x30, [sp, #0x130]
    410c: 9104c3fd     	add	x29, sp, #0x130
    4110: d10163a9     	sub	x9, x29, #0x58
    4114: f90023e9     	str	x9, [sp, #0x40]
    4118: aa0803e0     	mov	x0, x8
    411c: f90027e0     	str	x0, [sp, #0x48]
    4120: aa0003e8     	mov	x8, x0
    4124: f9002128     	str	x8, [x9, #0x40]
    4128: 52800008     	mov	w8, #0x0                ; =0
    412c: 12000108     	and	w8, w8, #0x1
    4130: 12000108     	and	w8, w8, #0x1
    4134: 381e73a8     	sturb	w8, [x29, #-0x19]
    4138: 94000000     	bl	0x4138 <__Z7findWAVv+0x38>
    413c: d10103a8     	sub	x8, x29, #0x40
    4140: 94000000     	bl	0x4140 <__Z7findWAVv+0x40>
    4144: 14000001     	b	0x4148 <__Z7findWAVv+0x48>
    4148: f94023e8     	ldr	x8, [sp, #0x40]
    414c: d10103a9     	sub	x9, x29, #0x40
    4150: f9001909     	str	x9, [x8, #0x30]
    4154: f9401900     	ldr	x0, [x8, #0x30]
    4158: 94000000     	bl	0x4158 <__Z7findWAVv+0x58>
    415c: f94023e8     	ldr	x8, [sp, #0x40]
    4160: f9000100     	str	x0, [x8]
    4164: f9401900     	ldr	x0, [x8, #0x30]
    4168: 94000000     	bl	0x4168 <__Z7findWAVv+0x68>
    416c: f81a03a0     	stur	x0, [x29, #-0x60]
    4170: 14000001     	b	0x4174 <__Z7findWAVv+0x74>
    4174: d10163a0     	sub	x0, x29, #0x58
    4178: d10183a1     	sub	x1, x29, #0x60
    417c: 94000000     	bl	0x417c <__Z7findWAVv+0x7c>
    4180: b9003fe0     	str	w0, [sp, #0x3c]
    4184: 14000001     	b	0x4188 <__Z7findWAVv+0x88>
    4188: b9403fe8     	ldr	w8, [sp, #0x3c]
    418c: 370001e8     	tbnz	w8, #0x0, 0x41c8 <__Z7findWAVv+0xc8>
    4190: 14000001     	b	0x4194 <__Z7findWAVv+0x94>
    4194: d10103a0     	sub	x0, x29, #0x40
    4198: 94000000     	bl	0x4198 <__Z7findWAVv+0x98>
    419c: 1400009b     	b	0x4408 <__Z7findWAVv+0x308>
    41a0: f94023e9     	ldr	x9, [sp, #0x40]
    41a4: f9000920     	str	x0, [x9, #0x10]
    41a8: aa0103e8     	mov	x8, x1
    41ac: b9000d28     	str	w8, [x9, #0xc]
    41b0: 140000c6     	b	0x44c8 <__Z7findWAVv+0x3c8>
    41b4: f94023e9     	ldr	x9, [sp, #0x40]
    41b8: f9000920     	str	x0, [x9, #0x10]
    41bc: aa0103e8     	mov	x8, x1
    41c0: b9000d28     	str	w8, [x9, #0xc]
    41c4: 1400008e     	b	0x43fc <__Z7findWAVv+0x2fc>
    41c8: d10163a0     	sub	x0, x29, #0x58
    41cc: 94000000     	bl	0x41cc <__Z7findWAVv+0xcc>
    41d0: f9001be0     	str	x0, [sp, #0x30]
    41d4: 14000001     	b	0x41d8 <__Z7findWAVv+0xd8>
    41d8: f9401be8     	ldr	x8, [sp, #0x30]
    41dc: f81983a8     	stur	x8, [x29, #-0x68]
    41e0: d10203a0     	sub	x0, x29, #0x80
    41e4: 90000001     	adrp	x1, 0x4000 <__Z7findMP3v+0x2e0>
    41e8: 91000021     	add	x1, x1, #0x0
    41ec: 94000000     	bl	0x41ec <__Z7findWAVv+0xec>
    41f0: 14000001     	b	0x41f4 <__Z7findWAVv+0xf4>
    41f4: 910263e8     	add	x8, sp, #0x98
    41f8: d10203a0     	sub	x0, x29, #0x80
    41fc: 94000000     	bl	0x41fc <__Z7findWAVv+0xfc>
    4200: 14000001     	b	0x4204 <__Z7findWAVv+0x104>
    4204: f85983a0     	ldur	x0, [x29, #-0x68]
    4208: d10203a1     	sub	x1, x29, #0x80
    420c: d2800002     	mov	x2, #0x0                ; =0
    4210: f90017e2     	str	x2, [sp, #0x28]
    4214: 94000000     	bl	0x4214 <__Z7findWAVv+0x114>
    4218: f94017e2     	ldr	x2, [sp, #0x28]
    421c: aa0003e8     	mov	x8, x0
    4220: b90097e8     	str	w8, [sp, #0x94]
    4224: f85983a0     	ldur	x0, [x29, #-0x68]
    4228: 910263e1     	add	x1, sp, #0x98
    422c: 94000000     	bl	0x422c <__Z7findWAVv+0x12c>
    4230: aa0003e8     	mov	x8, x0
    4234: b90093e8     	str	w8, [sp, #0x90]
    4238: b98097e8     	ldrsw	x8, [sp, #0x94]
    423c: b1000508     	adds	x8, x8, #0x1
    4240: 1a9f17e8     	cset	w8, eq
    4244: 5280002a     	mov	w10, #0x1               ; =1
    4248: 52800009     	mov	w9, #0x0                ; =0
    424c: 1200012b     	and	w11, w9, #0x1
    4250: 1200016b     	and	w11, w11, #0x1
    4254: 3901dfeb     	strb	w11, [sp, #0x77]
    4258: 12000129     	and	w9, w9, #0x1
    425c: 0a0a0129     	and	w9, w9, w10
    4260: 39015fe9     	strb	w9, [sp, #0x57]
    4264: 37000268     	tbnz	w8, #0x0, 0x42b0 <__Z7findWAVv+0x1b0>
    4268: 14000001     	b	0x426c <__Z7findWAVv+0x16c>
    426c: f85983a0     	ldur	x0, [x29, #-0x68]
    4270: b98097e1     	ldrsw	x1, [sp, #0x94]
    4274: 9101e3e8     	add	x8, sp, #0x78
    4278: 92800002     	mov	x2, #-0x1               ; =-1
    427c: 94000000     	bl	0x427c <__Z7findWAVv+0x17c>
    4280: 14000001     	b	0x4284 <__Z7findWAVv+0x184>
    4284: 52800028     	mov	w8, #0x1                ; =1
    4288: 12000108     	and	w8, w8, #0x1
    428c: 12000108     	and	w8, w8, #0x1
    4290: 3901dfe8     	strb	w8, [sp, #0x77]
    4294: 9101e3e0     	add	x0, sp, #0x78
    4298: d10203a1     	sub	x1, x29, #0x80
    429c: 94000000     	bl	0x429c <__Z7findWAVv+0x19c>
    42a0: 52800028     	mov	w8, #0x1                ; =1
    42a4: b90027e8     	str	w8, [sp, #0x24]
    42a8: 37000360     	tbnz	w0, #0x0, 0x4314 <__Z7findWAVv+0x214>
    42ac: 14000001     	b	0x42b0 <__Z7findWAVv+0x1b0>
    42b0: b98093e8     	ldrsw	x8, [sp, #0x90]
    42b4: b1000508     	adds	x8, x8, #0x1
    42b8: 1a9f17e8     	cset	w8, eq
    42bc: 52800000     	mov	w0, #0x0                ; =0
    42c0: b90023e0     	str	w0, [sp, #0x20]
    42c4: 37000228     	tbnz	w8, #0x0, 0x4308 <__Z7findWAVv+0x208>
    42c8: 14000001     	b	0x42cc <__Z7findWAVv+0x1cc>
    42cc: f85983a0     	ldur	x0, [x29, #-0x68]
    42d0: b98093e1     	ldrsw	x1, [sp, #0x90]
    42d4: 910163e8     	add	x8, sp, #0x58
    42d8: 92800002     	mov	x2, #-0x1               ; =-1
    42dc: 94000000     	bl	0x42dc <__Z7findWAVv+0x1dc>
    42e0: 14000001     	b	0x42e4 <__Z7findWAVv+0x1e4>
    42e4: 52800028     	mov	w8, #0x1                ; =1
    42e8: 12000108     	and	w8, w8, #0x1
    42ec: 12000108     	and	w8, w8, #0x1
    42f0: 39015fe8     	strb	w8, [sp, #0x57]
    42f4: 910163e0     	add	x0, sp, #0x58
    42f8: 910263e1     	add	x1, sp, #0x98
    42fc: 94000000     	bl	0x42fc <__Z7findWAVv+0x1fc>
    4300: b90023e0     	str	w0, [sp, #0x20]
    4304: 14000001     	b	0x4308 <__Z7findWAVv+0x208>
    4308: b94023e8     	ldr	w8, [sp, #0x20]
    430c: b90027e8     	str	w8, [sp, #0x24]
    4310: 14000001     	b	0x4314 <__Z7findWAVv+0x214>
    4314: b94027e8     	ldr	w8, [sp, #0x24]
    4318: b9001fe8     	str	w8, [sp, #0x1c]
    431c: 39415fe8     	ldrb	w8, [sp, #0x57]
    4320: 360000a8     	tbz	w8, #0x0, 0x4334 <__Z7findWAVv+0x234>
    4324: 14000001     	b	0x4328 <__Z7findWAVv+0x228>
    4328: 910163e0     	add	x0, sp, #0x58
    432c: 94000000     	bl	0x432c <__Z7findWAVv+0x22c>
    4330: 14000001     	b	0x4334 <__Z7findWAVv+0x234>
    4334: 3941dfe8     	ldrb	w8, [sp, #0x77]
    4338: 360000a8     	tbz	w8, #0x0, 0x434c <__Z7findWAVv+0x24c>
    433c: 14000001     	b	0x4340 <__Z7findWAVv+0x240>
    4340: 9101e3e0     	add	x0, sp, #0x78
    4344: 94000000     	bl	0x4344 <__Z7findWAVv+0x244>
    4348: 14000001     	b	0x434c <__Z7findWAVv+0x24c>
    434c: b9401fe8     	ldr	w8, [sp, #0x1c]
    4350: 36000388     	tbz	w8, #0x0, 0x43c0 <__Z7findWAVv+0x2c0>
    4354: 14000001     	b	0x4358 <__Z7findWAVv+0x258>
    4358: f94027e0     	ldr	x0, [sp, #0x48]
    435c: f85983a1     	ldur	x1, [x29, #-0x68]
    4360: 94000000     	bl	0x4360 <__Z7findWAVv+0x260>
    4364: 14000001     	b	0x4368 <__Z7findWAVv+0x268>
    4368: 14000016     	b	0x43c0 <__Z7findWAVv+0x2c0>
    436c: f94023e9     	ldr	x9, [sp, #0x40]
    4370: f9000920     	str	x0, [x9, #0x10]
    4374: aa0103e8     	mov	x8, x1
    4378: b9000d28     	str	w8, [x9, #0xc]
    437c: 1400001d     	b	0x43f0 <__Z7findWAVv+0x2f0>
    4380: f94023e9     	ldr	x9, [sp, #0x40]
    4384: f9000920     	str	x0, [x9, #0x10]
    4388: aa0103e8     	mov	x8, x1
    438c: b9000d28     	str	w8, [x9, #0xc]
    4390: 14000015     	b	0x43e4 <__Z7findWAVv+0x2e4>
    4394: f94023e9     	ldr	x9, [sp, #0x40]
    4398: f9000920     	str	x0, [x9, #0x10]
    439c: aa0103e8     	mov	x8, x1
    43a0: b9000d28     	str	w8, [x9, #0xc]
    43a4: 3941dfe8     	ldrb	w8, [sp, #0x77]
    43a8: 360000a8     	tbz	w8, #0x0, 0x43bc <__Z7findWAVv+0x2bc>
    43ac: 14000001     	b	0x43b0 <__Z7findWAVv+0x2b0>
    43b0: 9101e3e0     	add	x0, sp, #0x78
    43b4: 94000000     	bl	0x43b4 <__Z7findWAVv+0x2b4>
    43b8: 14000001     	b	0x43bc <__Z7findWAVv+0x2bc>
    43bc: 1400000a     	b	0x43e4 <__Z7findWAVv+0x2e4>
    43c0: 910263e0     	add	x0, sp, #0x98
    43c4: 94000000     	bl	0x43c4 <__Z7findWAVv+0x2c4>
    43c8: d10203a0     	sub	x0, x29, #0x80
    43cc: 94000000     	bl	0x43cc <__Z7findWAVv+0x2cc>
    43d0: 14000001     	b	0x43d4 <__Z7findWAVv+0x2d4>
    43d4: d10163a0     	sub	x0, x29, #0x58
    43d8: 94000000     	bl	0x43d8 <__Z7findWAVv+0x2d8>
    43dc: 14000001     	b	0x43e0 <__Z7findWAVv+0x2e0>
    43e0: 17ffff65     	b	0x4174 <__Z7findWAVv+0x74>
    43e4: 910263e0     	add	x0, sp, #0x98
    43e8: 94000000     	bl	0x43e8 <__Z7findWAVv+0x2e8>
    43ec: 14000001     	b	0x43f0 <__Z7findWAVv+0x2f0>
    43f0: d10203a0     	sub	x0, x29, #0x80
    43f4: 94000000     	bl	0x43f4 <__Z7findWAVv+0x2f4>
    43f8: 14000001     	b	0x43fc <__Z7findWAVv+0x2fc>
    43fc: d10103a0     	sub	x0, x29, #0x40
    4400: 94000000     	bl	0x4400 <__Z7findWAVv+0x300>
    4404: 14000031     	b	0x44c8 <__Z7findWAVv+0x3c8>
    4408: 90000000     	adrp	x0, 0x4000 <__Z7findMP3v+0x2e0>
    440c: f9400000     	ldr	x0, [x0]
    4410: 90000001     	adrp	x1, 0x4000 <__Z7findMP3v+0x2e0>
    4414: 91000021     	add	x1, x1, #0x0
    4418: 94000000     	bl	0x4418 <__Z7findWAVv+0x318>
    441c: f9000be0     	str	x0, [sp, #0x10]
    4420: 14000001     	b	0x4424 <__Z7findWAVv+0x324>
    4424: f9400be0     	ldr	x0, [sp, #0x10]
    4428: 90000001     	adrp	x1, 0x4000 <__Z7findMP3v+0x2e0>
    442c: 91000021     	add	x1, x1, #0x0
    4430: 94000000     	bl	0x4430 <__Z7findWAVv+0x330>
    4434: 14000001     	b	0x4438 <__Z7findWAVv+0x338>
    4438: 52800040     	mov	w0, #0x2                ; =2
    443c: 94000000     	bl	0x443c <__Z7findWAVv+0x33c>
    4440: 14000001     	b	0x4444 <__Z7findWAVv+0x344>
    4444: f94027e0     	ldr	x0, [sp, #0x48]
    4448: 94000000     	bl	0x4448 <__Z7findWAVv+0x348>
    444c: aa0003e1     	mov	x1, x0
    4450: 90000000     	adrp	x0, 0x4000 <__Z7findMP3v+0x2e0>
    4454: f9400000     	ldr	x0, [x0]
    4458: 94000000     	bl	0x4458 <__Z7findWAVv+0x358>
    445c: f90007e0     	str	x0, [sp, #0x8]
    4460: 14000001     	b	0x4464 <__Z7findWAVv+0x364>
    4464: f94007e0     	ldr	x0, [sp, #0x8]
    4468: 90000001     	adrp	x1, 0x4000 <__Z7findMP3v+0x2e0>
    446c: 91000021     	add	x1, x1, #0x0
    4470: 94000000     	bl	0x4470 <__Z7findWAVv+0x370>
    4474: f90003e0     	str	x0, [sp]
    4478: 14000001     	b	0x447c <__Z7findWAVv+0x37c>
    447c: f94003e0     	ldr	x0, [sp]
    4480: 90000001     	adrp	x1, 0x4000 <__Z7findMP3v+0x2e0>
    4484: 91000021     	add	x1, x1, #0x0
    4488: 94000000     	bl	0x4488 <__Z7findWAVv+0x388>
    448c: 14000001     	b	0x4490 <__Z7findWAVv+0x390>
    4490: 52800028     	mov	w8, #0x1                ; =1
    4494: 12000108     	and	w8, w8, #0x1
    4498: 12000108     	and	w8, w8, #0x1
    449c: 381e73a8     	sturb	w8, [x29, #-0x19]
    44a0: 385e73a8     	ldurb	w8, [x29, #-0x19]
    44a4: 370000a8     	tbnz	w8, #0x0, 0x44b8 <__Z7findWAVv+0x3b8>
    44a8: 14000001     	b	0x44ac <__Z7findWAVv+0x3ac>
    44ac: f94027e0     	ldr	x0, [sp, #0x48]
    44b0: 94000000     	bl	0x44b0 <__Z7findWAVv+0x3b0>
    44b4: 14000001     	b	0x44b8 <__Z7findWAVv+0x3b8>
    44b8: a9537bfd     	ldp	x29, x30, [sp, #0x130]
    44bc: a9526ffc     	ldp	x28, x27, [sp, #0x120]
    44c0: 910503ff     	add	sp, sp, #0x140
    44c4: d65f03c0     	ret
    44c8: f94027e0     	ldr	x0, [sp, #0x48]
    44cc: 94000000     	bl	0x44cc <__Z7findWAVv+0x3cc>
    44d0: 14000001     	b	0x44d4 <__Z7findWAVv+0x3d4>
    44d4: f94023e8     	ldr	x8, [sp, #0x40]
    44d8: f9400900     	ldr	x0, [x8, #0x10]
    44dc: 94000000     	bl	0x44dc <__Z7findWAVv+0x3dc>

00000000000044e0 <__Z11displayMenuv>:
    44e0: d10083ff     	sub	sp, sp, #0x20
    44e4: a9017bfd     	stp	x29, x30, [sp, #0x10]
    44e8: 910043fd     	add	x29, sp, #0x10
    44ec: 90000000     	adrp	x0, 0x4000 <__Z7findMP3v+0x2e0>
    44f0: f9400000     	ldr	x0, [x0]
    44f4: f90007e0     	str	x0, [sp, #0x8]
    44f8: 90000001     	adrp	x1, 0x4000 <__Z7findMP3v+0x2e0>
    44fc: 91000021     	add	x1, x1, #0x0
    4500: 94000000     	bl	0x4500 <__Z11displayMenuv+0x20>
    4504: f94007e0     	ldr	x0, [sp, #0x8]
    4508: 90000001     	adrp	x1, 0x4000 <__Z7findMP3v+0x2e0>
    450c: 91000021     	add	x1, x1, #0x0
    4510: 94000000     	bl	0x4510 <__Z11displayMenuv+0x30>
    4514: f94007e0     	ldr	x0, [sp, #0x8]
    4518: 90000001     	adrp	x1, 0x4000 <__Z7findMP3v+0x2e0>
    451c: 91000021     	add	x1, x1, #0x0
    4520: 94000000     	bl	0x4520 <__Z11displayMenuv+0x40>
    4524: f94007e0     	ldr	x0, [sp, #0x8]
    4528: 90000001     	adrp	x1, 0x4000 <__Z7findMP3v+0x2e0>
    452c: 91000021     	add	x1, x1, #0x0
    4530: 94000000     	bl	0x4530 <__Z11displayMenuv+0x50>
    4534: a9417bfd     	ldp	x29, x30, [sp, #0x10]
    4538: 910083ff     	add	sp, sp, #0x20
    453c: d65f03c0     	ret

0000000000004540 <_main>:
    4540: a9be6ffc     	stp	x28, x27, [sp, #-0x20]!
    4544: a9017bfd     	stp	x29, x30, [sp, #0x10]
    4548: 910043fd     	add	x29, sp, #0x10
    454c: d10c43ff     	sub	sp, sp, #0x310
    4550: d10163a8     	sub	x8, x29, #0x58
    4554: f900a7e8     	str	x8, [sp, #0x148]
    4558: b81ec3bf     	stur	wzr, [x29, #-0x14]
    455c: 90000000     	adrp	x0, 0x4000 <__Z7findMP3v+0x2e0>
    4560: f9400000     	ldr	x0, [x0]
    4564: f900abe0     	str	x0, [sp, #0x150]
    4568: 90000001     	adrp	x1, 0x4000 <__Z7findMP3v+0x2e0>
    456c: 91000021     	add	x1, x1, #0x0
    4570: 94000000     	bl	0x4570 <_main+0x30>
    4574: 90000001     	adrp	x1, 0x4000 <__Z7findMP3v+0x2e0>
    4578: 91000021     	add	x1, x1, #0x0
    457c: f900afe1     	str	x1, [sp, #0x158]
    4580: 94000000     	bl	0x4580 <_main+0x40>
    4584: f940abe0     	ldr	x0, [sp, #0x150]
    4588: 90000001     	adrp	x1, 0x4000 <__Z7findMP3v+0x2e0>
    458c: 91000021     	add	x1, x1, #0x0
    4590: 94000000     	bl	0x4590 <_main+0x50>
    4594: f940afe1     	ldr	x1, [sp, #0x158]
    4598: 94000000     	bl	0x4598 <_main+0x58>
    459c: 94000000     	bl	0x459c <_main+0x5c>
    45a0: 14000001     	b	0x45a4 <_main+0x64>
    45a4: 90000000     	adrp	x0, 0x4000 <__Z7findMP3v+0x2e0>
    45a8: f9400000     	ldr	x0, [x0]
    45ac: d10063a1     	sub	x1, x29, #0x18
    45b0: 94000000     	bl	0x45b0 <_main+0x70>
    45b4: f9400008     	ldr	x8, [x0]
    45b8: f85e8108     	ldur	x8, [x8, #-0x18]
    45bc: 8b080000     	add	x0, x0, x8
    45c0: 94000000     	bl	0x45c0 <_main+0x80>
    45c4: 360002a0     	tbz	w0, #0x0, 0x4618 <_main+0xd8>
    45c8: 14000001     	b	0x45cc <_main+0x8c>
    45cc: 90000000     	adrp	x0, 0x4000 <__Z7findMP3v+0x2e0>
    45d0: f9400000     	ldr	x0, [x0]
    45d4: 90000001     	adrp	x1, 0x4000 <__Z7findMP3v+0x2e0>
    45d8: 91000021     	add	x1, x1, #0x0
    45dc: 94000000     	bl	0x45dc <_main+0x9c>
    45e0: 90000008     	adrp	x8, 0x4000 <__Z7findMP3v+0x2e0>
    45e4: f9400108     	ldr	x8, [x8]
    45e8: f900a3e8     	str	x8, [sp, #0x140]
    45ec: f9400109     	ldr	x9, [x8]
    45f0: f85e8129     	ldur	x9, [x9, #-0x18]
    45f4: 8b090100     	add	x0, x8, x9
    45f8: 52800001     	mov	w1, #0x0                ; =0
    45fc: 94000000     	bl	0x45fc <_main+0xbc>
    4600: 94000000     	bl	0x4600 <_main+0xc0>
    4604: aa0003e1     	mov	x1, x0
    4608: f940a3e0     	ldr	x0, [sp, #0x140]
    460c: 52800142     	mov	w2, #0xa                ; =10
    4610: 94000000     	bl	0x4610 <_main+0xd0>
    4614: 17ffffe4     	b	0x45a4 <_main+0x64>
    4618: b85e83a8     	ldur	w8, [x29, #-0x18]
    461c: b9013fe8     	str	w8, [sp, #0x13c]
    4620: 71000508     	subs	w8, w8, #0x1
    4624: 1a9f17e8     	cset	w8, eq
    4628: 370000e8     	tbnz	w8, #0x0, 0x4644 <_main+0x104>
    462c: 14000001     	b	0x4630 <_main+0xf0>
    4630: b9413fe8     	ldr	w8, [sp, #0x13c]
    4634: 71001108     	subs	w8, w8, #0x4
    4638: 1a9f17e8     	cset	w8, eq
    463c: 370041e8     	tbnz	w8, #0x0, 0x4e78 <_main+0x938>
    4640: 14000215     	b	0x4e94 <_main+0x954>
    4644: d100e3a8     	sub	x8, x29, #0x38
    4648: f90097e8     	str	x8, [sp, #0x128]
    464c: 94000000     	bl	0x464c <_main+0x10c>
    4650: f94097e0     	ldr	x0, [sp, #0x128]
    4654: 94000000     	bl	0x4654 <_main+0x114>
    4658: aa0003e8     	mov	x8, x0
    465c: f94097e0     	ldr	x0, [sp, #0x128]
    4660: f9009be8     	str	x8, [sp, #0x130]
    4664: 94000000     	bl	0x4664 <_main+0x124>
    4668: f9409be0     	ldr	x0, [sp, #0x130]
    466c: aa0003e8     	mov	x8, x0
    4670: b81e43a8     	stur	w8, [x29, #-0x1c]
    4674: b85e43a8     	ldur	w8, [x29, #-0x1c]
    4678: 71000508     	subs	w8, w8, #0x1
    467c: 1a9fb7e8     	cset	w8, ge
    4680: 370002a8     	tbnz	w8, #0x0, 0x46d4 <_main+0x194>
    4684: 14000001     	b	0x4688 <_main+0x148>
    4688: 90000000     	adrp	x0, 0x4000 <__Z7findMP3v+0x2e0>
    468c: f9400000     	ldr	x0, [x0]
    4690: f9008fe0     	str	x0, [sp, #0x118]
    4694: 90000001     	adrp	x1, 0x4000 <__Z7findMP3v+0x2e0>
    4698: 91000021     	add	x1, x1, #0x0
    469c: 94000000     	bl	0x469c <_main+0x15c>
    46a0: 90000001     	adrp	x1, 0x4000 <__Z7findMP3v+0x2e0>
    46a4: 91000021     	add	x1, x1, #0x0
    46a8: f90093e1     	str	x1, [sp, #0x120]
    46ac: 94000000     	bl	0x46ac <_main+0x16c>
    46b0: f9408fe0     	ldr	x0, [sp, #0x118]
    46b4: 90000001     	adrp	x1, 0x4000 <__Z7findMP3v+0x2e0>
    46b8: 91000021     	add	x1, x1, #0x0
    46bc: 94000000     	bl	0x46bc <_main+0x17c>
    46c0: f94093e1     	ldr	x1, [sp, #0x120]
    46c4: 94000000     	bl	0x46c4 <_main+0x184>
    46c8: 52800020     	mov	w0, #0x1                ; =1
    46cc: 94000000     	bl	0x46cc <_main+0x18c>
    46d0: 140001f7     	b	0x4eac <_main+0x96c>
    46d4: d10143a0     	sub	x0, x29, #0x50
    46d8: 94000000     	bl	0x46d8 <_main+0x198>
    46dc: 14000001     	b	0x46e0 <_main+0x1a0>
    46e0: 14000001     	b	0x46e4 <_main+0x1a4>
    46e4: 90000000     	adrp	x0, 0x4000 <__Z7findMP3v+0x2e0>
    46e8: f9400000     	ldr	x0, [x0]
    46ec: 90000001     	adrp	x1, 0x4000 <__Z7findMP3v+0x2e0>
    46f0: 91000021     	add	x1, x1, #0x0
    46f4: 94000000     	bl	0x46f4 <_main+0x1b4>
    46f8: f9008be0     	str	x0, [sp, #0x110]
    46fc: 14000001     	b	0x4700 <_main+0x1c0>
    4700: f9408be0     	ldr	x0, [sp, #0x110]
    4704: 90000001     	adrp	x1, 0x4000 <__Z7findMP3v+0x2e0>
    4708: 91000021     	add	x1, x1, #0x0
    470c: 94000000     	bl	0x470c <_main+0x1cc>
    4710: 14000001     	b	0x4714 <_main+0x1d4>
    4714: 90000000     	adrp	x0, 0x4000 <__Z7findMP3v+0x2e0>
    4718: f9400000     	ldr	x0, [x0]
    471c: 90000001     	adrp	x1, 0x4000 <__Z7findMP3v+0x2e0>
    4720: 91000021     	add	x1, x1, #0x0
    4724: 94000000     	bl	0x4724 <_main+0x1e4>
    4728: f90087e0     	str	x0, [sp, #0x108]
    472c: 14000001     	b	0x4730 <_main+0x1f0>
    4730: f94087e0     	ldr	x0, [sp, #0x108]
    4734: 90000001     	adrp	x1, 0x4000 <__Z7findMP3v+0x2e0>
    4738: 91000021     	add	x1, x1, #0x0
    473c: 94000000     	bl	0x473c <_main+0x1fc>
    4740: 14000001     	b	0x4744 <_main+0x204>
    4744: 90000000     	adrp	x0, 0x4000 <__Z7findMP3v+0x2e0>
    4748: f9400000     	ldr	x0, [x0]
    474c: d10143a1     	sub	x1, x29, #0x50
    4750: 94000000     	bl	0x4750 <_main+0x210>
    4754: f90083e0     	str	x0, [sp, #0x100]
    4758: 14000001     	b	0x475c <_main+0x21c>
    475c: f94083e8     	ldr	x8, [sp, #0x100]
    4760: f9400109     	ldr	x9, [x8]
    4764: f85e8129     	ldur	x9, [x9, #-0x18]
    4768: 8b090100     	add	x0, x8, x9
    476c: 94000000     	bl	0x476c <_main+0x22c>
    4770: b900ffe0     	str	w0, [sp, #0xfc]
    4774: 14000001     	b	0x4778 <_main+0x238>
    4778: b940ffe8     	ldr	w8, [sp, #0xfc]
    477c: 36003408     	tbz	w8, #0x0, 0x4dfc <_main+0x8bc>
    4780: 14000001     	b	0x4784 <_main+0x244>
    4784: d101e3a8     	sub	x8, x29, #0x78
    4788: d10143a0     	sub	x0, x29, #0x50
    478c: 94000000     	bl	0x478c <_main+0x24c>
    4790: 14000001     	b	0x4794 <_main+0x254>
    4794: d101e3a0     	sub	x0, x29, #0x78
    4798: 90000001     	adrp	x1, 0x4000 <__Z7findMP3v+0x2e0>
    479c: 91000021     	add	x1, x1, #0x0
    47a0: 94000000     	bl	0x47a0 <_main+0x260>
    47a4: 36002e20     	tbz	w0, #0x0, 0x4d68 <_main+0x828>
    47a8: 14000001     	b	0x47ac <_main+0x26c>
    47ac: b85e43a1     	ldur	w1, [x29, #-0x1c]
    47b0: 90000000     	adrp	x0, 0x4000 <__Z7findMP3v+0x2e0>
    47b4: f9400000     	ldr	x0, [x0]
    47b8: 94000000     	bl	0x47b8 <_main+0x278>
    47bc: f9007be0     	str	x0, [sp, #0xf0]
    47c0: 14000001     	b	0x47c4 <_main+0x284>
    47c4: f9407be0     	ldr	x0, [sp, #0xf0]
    47c8: 90000001     	adrp	x1, 0x4000 <__Z7findMP3v+0x2e0>
    47cc: 91000021     	add	x1, x1, #0x0
    47d0: 94000000     	bl	0x47d0 <_main+0x290>
    47d4: f90077e0     	str	x0, [sp, #0xe8]
    47d8: 14000001     	b	0x47dc <_main+0x29c>
    47dc: f94077e0     	ldr	x0, [sp, #0xe8]
    47e0: 90000001     	adrp	x1, 0x4000 <__Z7findMP3v+0x2e0>
    47e4: 91000021     	add	x1, x1, #0x0
    47e8: 94000000     	bl	0x47e8 <_main+0x2a8>
    47ec: 14000001     	b	0x47f0 <_main+0x2b0>
    47f0: 52800020     	mov	w0, #0x1                ; =1
    47f4: 94000000     	bl	0x47f4 <_main+0x2b4>
    47f8: 14000001     	b	0x47fc <_main+0x2bc>
    47fc: 90000000     	adrp	x0, 0x4000 <__Z7findMP3v+0x2e0>
    4800: f9400000     	ldr	x0, [x0]
    4804: 90000001     	adrp	x1, 0x4000 <__Z7findMP3v+0x2e0>
    4808: 91000021     	add	x1, x1, #0x0
    480c: 94000000     	bl	0x480c <_main+0x2cc>
    4810: f90073e0     	str	x0, [sp, #0xe0]
    4814: 14000001     	b	0x4818 <_main+0x2d8>
    4818: f94073e0     	ldr	x0, [sp, #0xe0]
    481c: 90000001     	adrp	x1, 0x4000 <__Z7findMP3v+0x2e0>
    4820: 91000021     	add	x1, x1, #0x0
    4824: 94000000     	bl	0x4824 <_main+0x2e4>
    4828: 14000001     	b	0x482c <_main+0x2ec>
    482c: d10263a8     	sub	x8, x29, #0x98
    4830: 94000000     	bl	0x4830 <_main+0x2f0>
    4834: 14000001     	b	0x4838 <_main+0x2f8>
    4838: d10263a0     	sub	x0, x29, #0x98
    483c: 94000000     	bl	0x483c <_main+0x2fc>
    4840: f9006fe0     	str	x0, [sp, #0xd8]
    4844: d102c3a8     	sub	x8, x29, #0xb0
    4848: 94000000     	bl	0x4848 <_main+0x308>
    484c: 14000001     	b	0x4850 <_main+0x310>
    4850: d102c3a0     	sub	x0, x29, #0xb0
    4854: 94000000     	bl	0x4854 <_main+0x314>
    4858: f9406fe8     	ldr	x8, [sp, #0xd8]
    485c: 8b000108     	add	x8, x8, x0
    4860: f9006be8     	str	x8, [sp, #0xd0]
    4864: d10323a8     	sub	x8, x29, #0xc8
    4868: 94000000     	bl	0x4868 <_main+0x328>
    486c: 14000001     	b	0x4870 <_main+0x330>
    4870: d10323a0     	sub	x0, x29, #0xc8
    4874: 94000000     	bl	0x4874 <_main+0x334>
    4878: f9406be8     	ldr	x8, [sp, #0xd0]
    487c: 8b000108     	add	x8, x8, x0
    4880: f90067e8     	str	x8, [sp, #0xc8]
    4884: d10383a8     	sub	x8, x29, #0xe0
    4888: 94000000     	bl	0x4888 <_main+0x348>
    488c: 14000001     	b	0x4890 <_main+0x350>
    4890: d10383a0     	sub	x0, x29, #0xe0
    4894: 94000000     	bl	0x4894 <_main+0x354>
    4898: f94067e8     	ldr	x8, [sp, #0xc8]
    489c: 8b000108     	add	x8, x8, x0
    48a0: f90063e8     	str	x8, [sp, #0xc0]
    48a4: d103e3a8     	sub	x8, x29, #0xf8
    48a8: 94000000     	bl	0x48a8 <_main+0x368>
    48ac: 14000001     	b	0x48b0 <_main+0x370>
    48b0: d103e3a0     	sub	x0, x29, #0xf8
    48b4: f90057e0     	str	x0, [sp, #0xa8]
    48b8: 94000000     	bl	0x48b8 <_main+0x378>
    48bc: f94063e8     	ldr	x8, [sp, #0xc0]
    48c0: aa0003e9     	mov	x9, x0
    48c4: f94057e0     	ldr	x0, [sp, #0xa8]
    48c8: 8b090108     	add	x8, x8, x9
    48cc: f9005be8     	str	x8, [sp, #0xb0]
    48d0: 94000000     	bl	0x48d0 <_main+0x390>
    48d4: d10383a0     	sub	x0, x29, #0xe0
    48d8: 94000000     	bl	0x48d8 <_main+0x398>
    48dc: d10323a0     	sub	x0, x29, #0xc8
    48e0: 94000000     	bl	0x48e0 <_main+0x3a0>
    48e4: d102c3a0     	sub	x0, x29, #0xb0
    48e8: 94000000     	bl	0x48e8 <_main+0x3a8>
    48ec: d10263a0     	sub	x0, x29, #0x98
    48f0: 94000000     	bl	0x48f0 <_main+0x3b0>
    48f4: f9405be8     	ldr	x8, [sp, #0xb0]
    48f8: b81843a8     	stur	w8, [x29, #-0x7c]
    48fc: b85843a1     	ldur	w1, [x29, #-0x7c]
    4900: 90000000     	adrp	x0, 0x4000 <__Z7findMP3v+0x2e0>
    4904: f9400000     	ldr	x0, [x0]
    4908: 94000000     	bl	0x4908 <_main+0x3c8>
    490c: f9005fe0     	str	x0, [sp, #0xb8]
    4910: 14000001     	b	0x4914 <_main+0x3d4>
    4914: f9405fe0     	ldr	x0, [sp, #0xb8]
    4918: 90000001     	adrp	x1, 0x4000 <__Z7findMP3v+0x2e0>
    491c: 91000021     	add	x1, x1, #0x0
    4920: 94000000     	bl	0x4920 <_main+0x3e0>
    4924: f90053e0     	str	x0, [sp, #0xa0]
    4928: 14000001     	b	0x492c <_main+0x3ec>
    492c: f94053e0     	ldr	x0, [sp, #0xa0]
    4930: 90000001     	adrp	x1, 0x4000 <__Z7findMP3v+0x2e0>
    4934: 91000021     	add	x1, x1, #0x0
    4938: 94000000     	bl	0x4938 <_main+0x3f8>
    493c: 14000001     	b	0x4940 <_main+0x400>
    4940: 90000000     	adrp	x0, 0x4000 <__Z7findMP3v+0x2e0>
    4944: f9400000     	ldr	x0, [x0]
    4948: 90000001     	adrp	x1, 0x4000 <__Z7findMP3v+0x2e0>
    494c: 91000021     	add	x1, x1, #0x0
    4950: 94000000     	bl	0x4950 <_main+0x410>
    4954: 14000001     	b	0x4958 <_main+0x418>
    4958: 90000000     	adrp	x0, 0x4000 <__Z7findMP3v+0x2e0>
    495c: f9400000     	ldr	x0, [x0]
    4960: 90000001     	adrp	x1, 0x4000 <__Z7findMP3v+0x2e0>
    4964: 91000021     	add	x1, x1, #0x0
    4968: 94000000     	bl	0x4968 <_main+0x428>
    496c: f9004fe0     	str	x0, [sp, #0x98]
    4970: 14000001     	b	0x4974 <_main+0x434>
    4974: f9404fe0     	ldr	x0, [sp, #0x98]
    4978: 90000001     	adrp	x1, 0x4000 <__Z7findMP3v+0x2e0>
    497c: 91000021     	add	x1, x1, #0x0
    4980: 94000000     	bl	0x4980 <_main+0x440>
    4984: 14000001     	b	0x4988 <_main+0x448>
    4988: 910823e8     	add	x8, sp, #0x208
    498c: 94000000     	bl	0x498c <_main+0x44c>
    4990: 14000001     	b	0x4994 <_main+0x454>
    4994: 910823e0     	add	x0, sp, #0x208
    4998: 94000000     	bl	0x4998 <_main+0x458>
    499c: f9004be0     	str	x0, [sp, #0x90]
    49a0: 9107c3e8     	add	x8, sp, #0x1f0
    49a4: 94000000     	bl	0x49a4 <_main+0x464>
    49a8: 14000001     	b	0x49ac <_main+0x46c>
    49ac: 9107c3e0     	add	x0, sp, #0x1f0
    49b0: 94000000     	bl	0x49b0 <_main+0x470>
    49b4: f9404be8     	ldr	x8, [sp, #0x90]
    49b8: 8b000108     	add	x8, x8, x0
    49bc: f90047e8     	str	x8, [sp, #0x88]
    49c0: 910763e8     	add	x8, sp, #0x1d8
    49c4: 94000000     	bl	0x49c4 <_main+0x484>
    49c8: 14000001     	b	0x49cc <_main+0x48c>
    49cc: 910763e0     	add	x0, sp, #0x1d8
    49d0: f9003be0     	str	x0, [sp, #0x70]
    49d4: 94000000     	bl	0x49d4 <_main+0x494>
    49d8: f94047e8     	ldr	x8, [sp, #0x88]
    49dc: aa0003e9     	mov	x9, x0
    49e0: f9403be0     	ldr	x0, [sp, #0x70]
    49e4: 8b090108     	add	x8, x8, x9
    49e8: f9003fe8     	str	x8, [sp, #0x78]
    49ec: 94000000     	bl	0x49ec <_main+0x4ac>
    49f0: 9107c3e0     	add	x0, sp, #0x1f0
    49f4: 94000000     	bl	0x49f4 <_main+0x4b4>
    49f8: 910823e0     	add	x0, sp, #0x208
    49fc: 94000000     	bl	0x49fc <_main+0x4bc>
    4a00: f9403fe8     	ldr	x8, [sp, #0x78]
    4a04: b81043a8     	stur	w8, [x29, #-0xfc]
    4a08: b85043a1     	ldur	w1, [x29, #-0xfc]
    4a0c: 90000000     	adrp	x0, 0x4000 <__Z7findMP3v+0x2e0>
    4a10: f9400000     	ldr	x0, [x0]
    4a14: 94000000     	bl	0x4a14 <_main+0x4d4>
    4a18: f90043e0     	str	x0, [sp, #0x80]
    4a1c: 14000001     	b	0x4a20 <_main+0x4e0>
    4a20: f94043e0     	ldr	x0, [sp, #0x80]
    4a24: 90000001     	adrp	x1, 0x4000 <__Z7findMP3v+0x2e0>
    4a28: 91000021     	add	x1, x1, #0x0
    4a2c: 94000000     	bl	0x4a2c <_main+0x4ec>
    4a30: f90037e0     	str	x0, [sp, #0x68]
    4a34: 14000001     	b	0x4a38 <_main+0x4f8>
    4a38: f94037e0     	ldr	x0, [sp, #0x68]
    4a3c: 90000001     	adrp	x1, 0x4000 <__Z7findMP3v+0x2e0>
    4a40: 91000021     	add	x1, x1, #0x0
    4a44: 94000000     	bl	0x4a44 <_main+0x504>
    4a48: 14000001     	b	0x4a4c <_main+0x50c>
    4a4c: 90000000     	adrp	x0, 0x4000 <__Z7findMP3v+0x2e0>
    4a50: f9400000     	ldr	x0, [x0]
    4a54: 90000001     	adrp	x1, 0x4000 <__Z7findMP3v+0x2e0>
    4a58: 91000021     	add	x1, x1, #0x0
    4a5c: 94000000     	bl	0x4a5c <_main+0x51c>
    4a60: 14000001     	b	0x4a64 <_main+0x524>
    4a64: 90000000     	adrp	x0, 0x4000 <__Z7findMP3v+0x2e0>
    4a68: f9400000     	ldr	x0, [x0]
    4a6c: 90000001     	adrp	x1, 0x4000 <__Z7findMP3v+0x2e0>
    4a70: 91000021     	add	x1, x1, #0x0
    4a74: 94000000     	bl	0x4a74 <_main+0x534>
    4a78: f90033e0     	str	x0, [sp, #0x60]
    4a7c: 14000001     	b	0x4a80 <_main+0x540>
    4a80: f94033e0     	ldr	x0, [sp, #0x60]
    4a84: 90000001     	adrp	x1, 0x4000 <__Z7findMP3v+0x2e0>
    4a88: 91000021     	add	x1, x1, #0x0
    4a8c: 94000000     	bl	0x4a8c <_main+0x54c>
    4a90: 14000001     	b	0x4a94 <_main+0x554>
    4a94: 9106e3e8     	add	x8, sp, #0x1b8
    4a98: 94000000     	bl	0x4a98 <_main+0x558>
    4a9c: 14000001     	b	0x4aa0 <_main+0x560>
    4aa0: 9106e3e0     	add	x0, sp, #0x1b8
    4aa4: 94000000     	bl	0x4aa4 <_main+0x564>
    4aa8: f9002fe0     	str	x0, [sp, #0x58]
    4aac: 910683e8     	add	x8, sp, #0x1a0
    4ab0: 94000000     	bl	0x4ab0 <_main+0x570>
    4ab4: 14000001     	b	0x4ab8 <_main+0x578>
    4ab8: 910683e0     	add	x0, sp, #0x1a0
    4abc: f90023e0     	str	x0, [sp, #0x40]
    4ac0: 94000000     	bl	0x4ac0 <_main+0x580>
    4ac4: f9402fe8     	ldr	x8, [sp, #0x58]
    4ac8: aa0003e9     	mov	x9, x0
    4acc: f94023e0     	ldr	x0, [sp, #0x40]
    4ad0: 8b090108     	add	x8, x8, x9
    4ad4: f90027e8     	str	x8, [sp, #0x48]
    4ad8: 94000000     	bl	0x4ad8 <_main+0x598>
    4adc: 9106e3e0     	add	x0, sp, #0x1b8
    4ae0: 94000000     	bl	0x4ae0 <_main+0x5a0>
    4ae4: f94027e8     	ldr	x8, [sp, #0x48]
    4ae8: b901d7e8     	str	w8, [sp, #0x1d4]
    4aec: b941d7e1     	ldr	w1, [sp, #0x1d4]
    4af0: 90000000     	adrp	x0, 0x4000 <__Z7findMP3v+0x2e0>
    4af4: f9400000     	ldr	x0, [x0]
    4af8: 94000000     	bl	0x4af8 <_main+0x5b8>
    4afc: f9002be0     	str	x0, [sp, #0x50]
    4b00: 14000001     	b	0x4b04 <_main+0x5c4>
    4b04: f9402be0     	ldr	x0, [sp, #0x50]
    4b08: 90000001     	adrp	x1, 0x4000 <__Z7findMP3v+0x2e0>
    4b0c: 91000021     	add	x1, x1, #0x0
    4b10: 94000000     	bl	0x4b10 <_main+0x5d0>
    4b14: f9001fe0     	str	x0, [sp, #0x38]
    4b18: 14000001     	b	0x4b1c <_main+0x5dc>
    4b1c: f9401fe0     	ldr	x0, [sp, #0x38]
    4b20: 90000001     	adrp	x1, 0x4000 <__Z7findMP3v+0x2e0>
    4b24: 91000021     	add	x1, x1, #0x0
    4b28: 94000000     	bl	0x4b28 <_main+0x5e8>
    4b2c: 14000001     	b	0x4b30 <_main+0x5f0>
    4b30: 90000000     	adrp	x0, 0x4000 <__Z7findMP3v+0x2e0>
    4b34: f9400000     	ldr	x0, [x0]
    4b38: 90000001     	adrp	x1, 0x4000 <__Z7findMP3v+0x2e0>
    4b3c: 91000021     	add	x1, x1, #0x0
    4b40: 94000000     	bl	0x4b40 <_main+0x600>
    4b44: 14000001     	b	0x4b48 <_main+0x608>
    4b48: 90000000     	adrp	x0, 0x4000 <__Z7findMP3v+0x2e0>
    4b4c: f9400000     	ldr	x0, [x0]
    4b50: 90000001     	adrp	x1, 0x4000 <__Z7findMP3v+0x2e0>
    4b54: 91000021     	add	x1, x1, #0x0
    4b58: 94000000     	bl	0x4b58 <_main+0x618>
    4b5c: f9001be0     	str	x0, [sp, #0x30]
    4b60: 14000001     	b	0x4b64 <_main+0x624>
    4b64: f9401be0     	ldr	x0, [sp, #0x30]
    4b68: 90000001     	adrp	x1, 0x4000 <__Z7findMP3v+0x2e0>
    4b6c: 91000021     	add	x1, x1, #0x0
    4b70: 94000000     	bl	0x4b70 <_main+0x630>
    4b74: 14000001     	b	0x4b78 <_main+0x638>
    4b78: 910603e8     	add	x8, sp, #0x180
    4b7c: 94000000     	bl	0x4b7c <_main+0x63c>
    4b80: 14000001     	b	0x4b84 <_main+0x644>
    4b84: 910603e0     	add	x0, sp, #0x180
    4b88: 94000000     	bl	0x4b88 <_main+0x648>
    4b8c: f90017e0     	str	x0, [sp, #0x28]
    4b90: 9105a3e8     	add	x8, sp, #0x168
    4b94: 94000000     	bl	0x4b94 <_main+0x654>
    4b98: 14000001     	b	0x4b9c <_main+0x65c>
    4b9c: 9105a3e0     	add	x0, sp, #0x168
    4ba0: f9000be0     	str	x0, [sp, #0x10]
    4ba4: 94000000     	bl	0x4ba4 <_main+0x664>
    4ba8: f94017e8     	ldr	x8, [sp, #0x28]
    4bac: aa0003e9     	mov	x9, x0
    4bb0: f9400be0     	ldr	x0, [sp, #0x10]
    4bb4: 8b090108     	add	x8, x8, x9
    4bb8: f9000fe8     	str	x8, [sp, #0x18]
    4bbc: 94000000     	bl	0x4bbc <_main+0x67c>
    4bc0: 910603e0     	add	x0, sp, #0x180
    4bc4: 94000000     	bl	0x4bc4 <_main+0x684>
    4bc8: f9400fe8     	ldr	x8, [sp, #0x18]
    4bcc: b9019fe8     	str	w8, [sp, #0x19c]
    4bd0: b9419fe1     	ldr	w1, [sp, #0x19c]
    4bd4: 90000000     	adrp	x0, 0x4000 <__Z7findMP3v+0x2e0>
    4bd8: f9400000     	ldr	x0, [x0]
    4bdc: 94000000     	bl	0x4bdc <_main+0x69c>
    4be0: f90013e0     	str	x0, [sp, #0x20]
    4be4: 14000001     	b	0x4be8 <_main+0x6a8>
    4be8: f94013e0     	ldr	x0, [sp, #0x20]
    4bec: 90000001     	adrp	x1, 0x4000 <__Z7findMP3v+0x2e0>
    4bf0: 91000021     	add	x1, x1, #0x0
    4bf4: 94000000     	bl	0x4bf4 <_main+0x6b4>
    4bf8: f90007e0     	str	x0, [sp, #0x8]
    4bfc: 14000001     	b	0x4c00 <_main+0x6c0>
    4c00: f94007e0     	ldr	x0, [sp, #0x8]
    4c04: 90000001     	adrp	x1, 0x4000 <__Z7findMP3v+0x2e0>
    4c08: 91000021     	add	x1, x1, #0x0
    4c0c: 94000000     	bl	0x4c0c <_main+0x6cc>
    4c10: 14000001     	b	0x4c14 <_main+0x6d4>
    4c14: 90000000     	adrp	x0, 0x4000 <__Z7findMP3v+0x2e0>
    4c18: f9400000     	ldr	x0, [x0]
    4c1c: 90000001     	adrp	x1, 0x4000 <__Z7findMP3v+0x2e0>
    4c20: 91000021     	add	x1, x1, #0x0
    4c24: 94000000     	bl	0x4c24 <_main+0x6e4>
    4c28: 14000001     	b	0x4c2c <_main+0x6ec>
    4c2c: 90000000     	adrp	x0, 0x4000 <__Z7findMP3v+0x2e0>
    4c30: f9400000     	ldr	x0, [x0]
    4c34: 90000001     	adrp	x1, 0x4000 <__Z7findMP3v+0x2e0>
    4c38: 91000021     	add	x1, x1, #0x0
    4c3c: 94000000     	bl	0x4c3c <_main+0x6fc>
    4c40: 14000001     	b	0x4c44 <_main+0x704>
    4c44: 528000c8     	mov	w8, #0x6                ; =6
    4c48: b90167e8     	str	w8, [sp, #0x164]
    4c4c: 14000060     	b	0x4dcc <_main+0x88c>
    4c50: f940a7e8     	ldr	x8, [sp, #0x148]
    4c54: f9000100     	str	x0, [x8]
    4c58: aa0103e8     	mov	x8, x1
    4c5c: b81a43a8     	stur	w8, [x29, #-0x5c]
    4c60: 14000083     	b	0x4e6c <_main+0x92c>
    4c64: f940a7e8     	ldr	x8, [sp, #0x148]
    4c68: f9000100     	str	x0, [x8]
    4c6c: aa0103e8     	mov	x8, x1
    4c70: b81a43a8     	stur	w8, [x29, #-0x5c]
    4c74: 1400005f     	b	0x4df0 <_main+0x8b0>
    4c78: f940a7e8     	ldr	x8, [sp, #0x148]
    4c7c: f9000100     	str	x0, [x8]
    4c80: aa0103e8     	mov	x8, x1
    4c84: b81a43a8     	stur	w8, [x29, #-0x5c]
    4c88: 14000018     	b	0x4ce8 <_main+0x7a8>
    4c8c: f940a7e8     	ldr	x8, [sp, #0x148]
    4c90: f9000100     	str	x0, [x8]
    4c94: aa0103e8     	mov	x8, x1
    4c98: b81a43a8     	stur	w8, [x29, #-0x5c]
    4c9c: 14000010     	b	0x4cdc <_main+0x79c>
    4ca0: f940a7e8     	ldr	x8, [sp, #0x148]
    4ca4: f9000100     	str	x0, [x8]
    4ca8: aa0103e8     	mov	x8, x1
    4cac: b81a43a8     	stur	w8, [x29, #-0x5c]
    4cb0: 14000008     	b	0x4cd0 <_main+0x790>
    4cb4: f940a7e8     	ldr	x8, [sp, #0x148]
    4cb8: f9000100     	str	x0, [x8]
    4cbc: aa0103e8     	mov	x8, x1
    4cc0: b81a43a8     	stur	w8, [x29, #-0x5c]
    4cc4: d10383a0     	sub	x0, x29, #0xe0
    4cc8: 94000000     	bl	0x4cc8 <_main+0x788>
    4ccc: 14000001     	b	0x4cd0 <_main+0x790>
    4cd0: d10323a0     	sub	x0, x29, #0xc8
    4cd4: 94000000     	bl	0x4cd4 <_main+0x794>
    4cd8: 14000001     	b	0x4cdc <_main+0x79c>
    4cdc: d102c3a0     	sub	x0, x29, #0xb0
    4ce0: 94000000     	bl	0x4ce0 <_main+0x7a0>
    4ce4: 14000001     	b	0x4ce8 <_main+0x7a8>
    4ce8: d10263a0     	sub	x0, x29, #0x98
    4cec: 94000000     	bl	0x4cec <_main+0x7ac>
    4cf0: 14000040     	b	0x4df0 <_main+0x8b0>
    4cf4: f940a7e8     	ldr	x8, [sp, #0x148]
    4cf8: f9000100     	str	x0, [x8]
    4cfc: aa0103e8     	mov	x8, x1
    4d00: b81a43a8     	stur	w8, [x29, #-0x5c]
    4d04: 14000008     	b	0x4d24 <_main+0x7e4>
    4d08: f940a7e8     	ldr	x8, [sp, #0x148]
    4d0c: f9000100     	str	x0, [x8]
    4d10: aa0103e8     	mov	x8, x1
    4d14: b81a43a8     	stur	w8, [x29, #-0x5c]
    4d18: 9107c3e0     	add	x0, sp, #0x1f0
    4d1c: 94000000     	bl	0x4d1c <_main+0x7dc>
    4d20: 14000001     	b	0x4d24 <_main+0x7e4>
    4d24: 910823e0     	add	x0, sp, #0x208
    4d28: 94000000     	bl	0x4d28 <_main+0x7e8>
    4d2c: 14000031     	b	0x4df0 <_main+0x8b0>
    4d30: f940a7e8     	ldr	x8, [sp, #0x148]
    4d34: f9000100     	str	x0, [x8]
    4d38: aa0103e8     	mov	x8, x1
    4d3c: b81a43a8     	stur	w8, [x29, #-0x5c]
    4d40: 9106e3e0     	add	x0, sp, #0x1b8
    4d44: 94000000     	bl	0x4d44 <_main+0x804>
    4d48: 1400002a     	b	0x4df0 <_main+0x8b0>
    4d4c: f940a7e8     	ldr	x8, [sp, #0x148]
    4d50: f9000100     	str	x0, [x8]
    4d54: aa0103e8     	mov	x8, x1
    4d58: b81a43a8     	stur	w8, [x29, #-0x5c]
    4d5c: 910603e0     	add	x0, sp, #0x180
    4d60: 94000000     	bl	0x4d60 <_main+0x820>
    4d64: 14000023     	b	0x4df0 <_main+0x8b0>
    4d68: d101e3a0     	sub	x0, x29, #0x78
    4d6c: 90000001     	adrp	x1, 0x4000 <__Z7findMP3v+0x2e0>
    4d70: 91000021     	add	x1, x1, #0x0
    4d74: 94000000     	bl	0x4d74 <_main+0x834>
    4d78: 36000160     	tbz	w0, #0x0, 0x4da4 <_main+0x864>
    4d7c: 14000001     	b	0x4d80 <_main+0x840>
    4d80: 90000000     	adrp	x0, 0x4000 <__Z7findMP3v+0x2e0>
    4d84: f9400000     	ldr	x0, [x0]
    4d88: 90000001     	adrp	x1, 0x4000 <__Z7findMP3v+0x2e0>
    4d8c: 91000021     	add	x1, x1, #0x0
    4d90: 94000000     	bl	0x4d90 <_main+0x850>
    4d94: 14000001     	b	0x4d98 <_main+0x858>
    4d98: 528000c8     	mov	w8, #0x6                ; =6
    4d9c: b90167e8     	str	w8, [sp, #0x164]
    4da0: 1400000b     	b	0x4dcc <_main+0x88c>
    4da4: 90000000     	adrp	x0, 0x4000 <__Z7findMP3v+0x2e0>
    4da8: f9400000     	ldr	x0, [x0]
    4dac: 90000001     	adrp	x1, 0x4000 <__Z7findMP3v+0x2e0>
    4db0: 91000021     	add	x1, x1, #0x0
    4db4: 94000000     	bl	0x4db4 <_main+0x874>
    4db8: 14000001     	b	0x4dbc <_main+0x87c>
    4dbc: 14000001     	b	0x4dc0 <_main+0x880>
    4dc0: 14000001     	b	0x4dc4 <_main+0x884>
    4dc4: b90167ff     	str	wzr, [sp, #0x164]
    4dc8: 14000001     	b	0x4dcc <_main+0x88c>
    4dcc: d101e3a0     	sub	x0, x29, #0x78
    4dd0: 94000000     	bl	0x4dd0 <_main+0x890>
    4dd4: b94167e8     	ldr	w8, [sp, #0x164]
    4dd8: 71000108     	subs	w8, w8, #0x0
    4ddc: 1a9f17e8     	cset	w8, eq
    4de0: 37000068     	tbnz	w8, #0x0, 0x4dec <_main+0x8ac>
    4de4: 14000001     	b	0x4de8 <_main+0x8a8>
    4de8: 1400001c     	b	0x4e58 <_main+0x918>
    4dec: 1400001a     	b	0x4e54 <_main+0x914>
    4df0: d101e3a0     	sub	x0, x29, #0x78
    4df4: 94000000     	bl	0x4df4 <_main+0x8b4>
    4df8: 1400001d     	b	0x4e6c <_main+0x92c>
    4dfc: 90000000     	adrp	x0, 0x4000 <__Z7findMP3v+0x2e0>
    4e00: f9400000     	ldr	x0, [x0]
    4e04: 90000001     	adrp	x1, 0x4000 <__Z7findMP3v+0x2e0>
    4e08: 91000021     	add	x1, x1, #0x0
    4e0c: 94000000     	bl	0x4e0c <_main+0x8cc>
    4e10: 14000001     	b	0x4e14 <_main+0x8d4>
    4e14: 90000008     	adrp	x8, 0x4000 <__Z7findMP3v+0x2e0>
    4e18: f9400108     	ldr	x8, [x8]
    4e1c: f9400109     	ldr	x9, [x8]
    4e20: f85e8129     	ldur	x9, [x9, #-0x18]
    4e24: 8b090100     	add	x0, x8, x9
    4e28: 52800001     	mov	w1, #0x0                ; =0
    4e2c: 94000000     	bl	0x4e2c <_main+0x8ec>
    4e30: 14000001     	b	0x4e34 <_main+0x8f4>
    4e34: 94000000     	bl	0x4e34 <_main+0x8f4>
    4e38: aa0003e1     	mov	x1, x0
    4e3c: 90000000     	adrp	x0, 0x4000 <__Z7findMP3v+0x2e0>
    4e40: f9400000     	ldr	x0, [x0]
    4e44: 52800142     	mov	w2, #0xa                ; =10
    4e48: 94000000     	bl	0x4e48 <_main+0x908>
    4e4c: 14000001     	b	0x4e50 <_main+0x910>
    4e50: 14000001     	b	0x4e54 <_main+0x914>
    4e54: 17fffe23     	b	0x46e0 <_main+0x1a0>
    4e58: 52800088     	mov	w8, #0x4                ; =4
    4e5c: b90167e8     	str	w8, [sp, #0x164]
    4e60: d10143a0     	sub	x0, x29, #0x50
    4e64: 94000000     	bl	0x4e64 <_main+0x924>
    4e68: 14000011     	b	0x4eac <_main+0x96c>
    4e6c: d10143a0     	sub	x0, x29, #0x50
    4e70: 94000000     	bl	0x4e70 <_main+0x930>
    4e74: 1400001a     	b	0x4edc <_main+0x99c>
    4e78: 90000000     	adrp	x0, 0x4000 <__Z7findMP3v+0x2e0>
    4e7c: f9400000     	ldr	x0, [x0]
    4e80: 90000001     	adrp	x1, 0x4000 <__Z7findMP3v+0x2e0>
    4e84: 91000021     	add	x1, x1, #0x0
    4e88: 94000000     	bl	0x4e88 <_main+0x948>
    4e8c: 52800000     	mov	w0, #0x0                ; =0
    4e90: 94000000     	bl	0x4e90 <_main+0x950>
    4e94: 90000000     	adrp	x0, 0x4000 <__Z7findMP3v+0x2e0>
    4e98: f9400000     	ldr	x0, [x0]
    4e9c: 90000001     	adrp	x1, 0x4000 <__Z7findMP3v+0x2e0>
    4ea0: 91000021     	add	x1, x1, #0x0
    4ea4: 94000000     	bl	0x4ea4 <_main+0x964>
    4ea8: 14000001     	b	0x4eac <_main+0x96c>
    4eac: 90000008     	adrp	x8, 0x4000 <__Z7findMP3v+0x2e0>
    4eb0: f9400108     	ldr	x8, [x8]
    4eb4: f9400109     	ldr	x9, [x8]
    4eb8: f85e8129     	ldur	x9, [x9, #-0x18]
    4ebc: 8b090100     	add	x0, x8, x9
    4ec0: 52800001     	mov	w1, #0x0                ; =0
    4ec4: 94000000     	bl	0x4ec4 <_main+0x984>
    4ec8: b85ec3a0     	ldur	w0, [x29, #-0x14]
    4ecc: 910c43ff     	add	sp, sp, #0x310
    4ed0: a9417bfd     	ldp	x29, x30, [sp, #0x10]
    4ed4: a8c26ffc     	ldp	x28, x27, [sp], #0x20
    4ed8: d65f03c0     	ret
    4edc: f940a7e8     	ldr	x8, [sp, #0x148]
    4ee0: f9400100     	ldr	x0, [x8]
    4ee4: 94000000     	bl	0x4ee4 <_main+0x9a4>

0000000000004ee8 <__ZNKSt3__19basic_iosIcNS_11char_traitsIcEEEntB8ne180100Ev>:
    4ee8: d10083ff     	sub	sp, sp, #0x20
    4eec: a9017bfd     	stp	x29, x30, [sp, #0x10]
    4ef0: 910043fd     	add	x29, sp, #0x10
    4ef4: f90007e0     	str	x0, [sp, #0x8]
    4ef8: f94007e0     	ldr	x0, [sp, #0x8]
    4efc: 94000000     	bl	0x4efc <__ZNKSt3__19basic_iosIcNS_11char_traitsIcEEEntB8ne180100Ev+0x14>
    4f00: 12000000     	and	w0, w0, #0x1
    4f04: a9417bfd     	ldp	x29, x30, [sp, #0x10]
    4f08: 910083ff     	add	sp, sp, #0x20
    4f0c: d65f03c0     	ret

0000000000004f10 <__ZNSt3__19basic_iosIcNS_11char_traitsIcEEE5clearB8ne180100Ej>:
    4f10: d10083ff     	sub	sp, sp, #0x20
    4f14: a9017bfd     	stp	x29, x30, [sp, #0x10]
    4f18: 910043fd     	add	x29, sp, #0x10
    4f1c: f90007e0     	str	x0, [sp, #0x8]
    4f20: b90007e1     	str	w1, [sp, #0x4]
    4f24: f94007e0     	ldr	x0, [sp, #0x8]
    4f28: b94007e1     	ldr	w1, [sp, #0x4]
    4f2c: 94000000     	bl	0x4f2c <__ZNSt3__19basic_iosIcNS_11char_traitsIcEEE5clearB8ne180100Ej+0x1c>
    4f30: a9417bfd     	ldp	x29, x30, [sp, #0x10]
    4f34: 910083ff     	add	sp, sp, #0x20
    4f38: d65f03c0     	ret

0000000000004f3c <__ZNSt3__114numeric_limitsIlE3maxB8ne180100Ev>:
    4f3c: a9bf7bfd     	stp	x29, x30, [sp, #-0x10]!
    4f40: 910003fd     	mov	x29, sp
    4f44: 94000000     	bl	0x4f44 <__ZNSt3__114numeric_limitsIlE3maxB8ne180100Ev+0x8>
    4f48: a8c17bfd     	ldp	x29, x30, [sp], #0x10
    4f4c: d65f03c0     	ret

0000000000004f50 <__ZNSt3__112basic_stringIcNS_11char_traitsIcEENS_9allocatorIcEEEC1B8ne180100Ev>:
    4f50: d10083ff     	sub	sp, sp, #0x20
    4f54: a9017bfd     	stp	x29, x30, [sp, #0x10]
    4f58: 910043fd     	add	x29, sp, #0x10
    4f5c: f90007e0     	str	x0, [sp, #0x8]
    4f60: f94007e0     	ldr	x0, [sp, #0x8]
    4f64: f90003e0     	str	x0, [sp]
    4f68: 94000000     	bl	0x4f68 <__ZNSt3__112basic_stringIcNS_11char_traitsIcEENS_9allocatorIcEEEC1B8ne180100Ev+0x18>
    4f6c: f94003e0     	ldr	x0, [sp]
    4f70: a9417bfd     	ldp	x29, x30, [sp, #0x10]
    4f74: 910083ff     	add	sp, sp, #0x20
    4f78: d65f03c0     	ret

0000000000004f7c <__ZNSt3__1rsB8ne180100IcNS_11char_traitsIcEENS_9allocatorIcEEEERNS_13basic_istreamIT_T0_EES9_RNS_12basic_stringIS6_S7_T1_EE>:
    4f7c: d10243ff     	sub	sp, sp, #0x90
    4f80: a9087bfd     	stp	x29, x30, [sp, #0x80]
    4f84: 910203fd     	add	x29, sp, #0x80
    4f88: f81f83a0     	stur	x0, [x29, #-0x8]
    4f8c: f81f03a1     	stur	x1, [x29, #-0x10]
    4f90: 52800008     	mov	w8, #0x0                ; =0
    4f94: b81ec3bf     	stur	wzr, [x29, #-0x14]
    4f98: f85f83a1     	ldur	x1, [x29, #-0x8]
    4f9c: d10057a0     	sub	x0, x29, #0x15
    4fa0: f90017e0     	str	x0, [sp, #0x28]
    4fa4: 12000102     	and	w2, w8, #0x1
    4fa8: 94000000     	bl	0x4fa8 <__ZNSt3__1rsB8ne180100IcNS_11char_traitsIcEENS_9allocatorIcEEEERNS_13basic_istreamIT_T0_EES9_RNS_12basic_stringIS6_S7_T1_EE+0x2c>
    4fac: f94017e0     	ldr	x0, [sp, #0x28]
    4fb0: 94000000     	bl	0x4fb0 <__ZNSt3__1rsB8ne180100IcNS_11char_traitsIcEENS_9allocatorIcEEEERNS_13basic_istreamIT_T0_EES9_RNS_12basic_stringIS6_S7_T1_EE+0x34>
    4fb4: 360015a0     	tbz	w0, #0x0, 0x5268 <__ZNSt3__1rsB8ne180100IcNS_11char_traitsIcEENS_9allocatorIcEEEERNS_13basic_istreamIT_T0_EES9_RNS_12basic_stringIS6_S7_T1_EE+0x2ec>
    4fb8: 14000001     	b	0x4fbc <__ZNSt3__1rsB8ne180100IcNS_11char_traitsIcEENS_9allocatorIcEEEERNS_13basic_istreamIT_T0_EES9_RNS_12basic_stringIS6_S7_T1_EE+0x40>
    4fbc: f85f03a0     	ldur	x0, [x29, #-0x10]
    4fc0: 94000000     	bl	0x4fc0 <__ZNSt3__1rsB8ne180100IcNS_11char_traitsIcEENS_9allocatorIcEEEERNS_13basic_istreamIT_T0_EES9_RNS_12basic_stringIS6_S7_T1_EE+0x44>
    4fc4: f85f83a8     	ldur	x8, [x29, #-0x8]
    4fc8: f9400109     	ldr	x9, [x8]
    4fcc: f85e8129     	ldur	x9, [x9, #-0x18]
    4fd0: 8b090100     	add	x0, x8, x9
    4fd4: 94000000     	bl	0x4fd4 <__ZNSt3__1rsB8ne180100IcNS_11char_traitsIcEENS_9allocatorIcEEEERNS_13basic_istreamIT_T0_EES9_RNS_12basic_stringIS6_S7_T1_EE+0x58>
    4fd8: f81e03a0     	stur	x0, [x29, #-0x20]
    4fdc: f85e03a8     	ldur	x8, [x29, #-0x20]
    4fe0: f1000108     	subs	x8, x8, #0x0
    4fe4: 1a9fd7e8     	cset	w8, gt
    4fe8: 370000c8     	tbnz	w8, #0x0, 0x5000 <__ZNSt3__1rsB8ne180100IcNS_11char_traitsIcEENS_9allocatorIcEEEERNS_13basic_istreamIT_T0_EES9_RNS_12basic_stringIS6_S7_T1_EE+0x84>
    4fec: 14000001     	b	0x4ff0 <__ZNSt3__1rsB8ne180100IcNS_11char_traitsIcEENS_9allocatorIcEEEERNS_13basic_istreamIT_T0_EES9_RNS_12basic_stringIS6_S7_T1_EE+0x74>
    4ff0: f85f03a0     	ldur	x0, [x29, #-0x10]
    4ff4: 94000000     	bl	0x4ff4 <__ZNSt3__1rsB8ne180100IcNS_11char_traitsIcEENS_9allocatorIcEEEERNS_13basic_istreamIT_T0_EES9_RNS_12basic_stringIS6_S7_T1_EE+0x78>
    4ff8: f81e03a0     	stur	x0, [x29, #-0x20]
    4ffc: 14000001     	b	0x5000 <__ZNSt3__1rsB8ne180100IcNS_11char_traitsIcEENS_9allocatorIcEEEERNS_13basic_istreamIT_T0_EES9_RNS_12basic_stringIS6_S7_T1_EE+0x84>
    5000: f85e03a8     	ldur	x8, [x29, #-0x20]
    5004: f1000108     	subs	x8, x8, #0x0
    5008: 1a9fd7e8     	cset	w8, gt
    500c: 370000a8     	tbnz	w8, #0x0, 0x5020 <__ZNSt3__1rsB8ne180100IcNS_11char_traitsIcEENS_9allocatorIcEEEERNS_13basic_istreamIT_T0_EES9_RNS_12basic_stringIS6_S7_T1_EE+0xa4>
    5010: 14000001     	b	0x5014 <__ZNSt3__1rsB8ne180100IcNS_11char_traitsIcEENS_9allocatorIcEEEERNS_13basic_istreamIT_T0_EES9_RNS_12basic_stringIS6_S7_T1_EE+0x98>
    5014: 94000000     	bl	0x5014 <__ZNSt3__1rsB8ne180100IcNS_11char_traitsIcEENS_9allocatorIcEEEERNS_13basic_istreamIT_T0_EES9_RNS_12basic_stringIS6_S7_T1_EE+0x98>
    5018: f81e03a0     	stur	x0, [x29, #-0x20]
    501c: 14000001     	b	0x5020 <__ZNSt3__1rsB8ne180100IcNS_11char_traitsIcEENS_9allocatorIcEEEERNS_13basic_istreamIT_T0_EES9_RNS_12basic_stringIS6_S7_T1_EE+0xa4>
    5020: f81d83bf     	stur	xzr, [x29, #-0x28]
    5024: f85f83a8     	ldur	x8, [x29, #-0x8]
    5028: f9400109     	ldr	x9, [x8]
    502c: f85e8129     	ldur	x9, [x9, #-0x18]
    5030: 8b090100     	add	x0, x8, x9
    5034: d100e3a8     	sub	x8, x29, #0x38
    5038: 94000000     	bl	0x5038 <__ZNSt3__1rsB8ne180100IcNS_11char_traitsIcEENS_9allocatorIcEEEERNS_13basic_istreamIT_T0_EES9_RNS_12basic_stringIS6_S7_T1_EE+0xbc>
    503c: 14000001     	b	0x5040 <__ZNSt3__1rsB8ne180100IcNS_11char_traitsIcEENS_9allocatorIcEEEERNS_13basic_istreamIT_T0_EES9_RNS_12basic_stringIS6_S7_T1_EE+0xc4>
    5040: d100e3a0     	sub	x0, x29, #0x38
    5044: 94000000     	bl	0x5044 <__ZNSt3__1rsB8ne180100IcNS_11char_traitsIcEENS_9allocatorIcEEEERNS_13basic_istreamIT_T0_EES9_RNS_12basic_stringIS6_S7_T1_EE+0xc8>
    5048: f90013e0     	str	x0, [sp, #0x20]
    504c: 14000001     	b	0x5050 <__ZNSt3__1rsB8ne180100IcNS_11char_traitsIcEENS_9allocatorIcEEEERNS_13basic_istreamIT_T0_EES9_RNS_12basic_stringIS6_S7_T1_EE+0xd4>
    5050: d100e3a0     	sub	x0, x29, #0x38
    5054: 94000000     	bl	0x5054 <__ZNSt3__1rsB8ne180100IcNS_11char_traitsIcEENS_9allocatorIcEEEERNS_13basic_istreamIT_T0_EES9_RNS_12basic_stringIS6_S7_T1_EE+0xd8>
    5058: f94013e8     	ldr	x8, [sp, #0x20]
    505c: f81d03a8     	stur	x8, [x29, #-0x30]
    5060: 14000001     	b	0x5064 <__ZNSt3__1rsB8ne180100IcNS_11char_traitsIcEENS_9allocatorIcEEEERNS_13basic_istreamIT_T0_EES9_RNS_12basic_stringIS6_S7_T1_EE+0xe8>
    5064: f85d83a8     	ldur	x8, [x29, #-0x28]
    5068: f85e03a9     	ldur	x9, [x29, #-0x20]
    506c: eb090108     	subs	x8, x8, x9
    5070: 1a9fb7e8     	cset	w8, ge
    5074: 37000bc8     	tbnz	w8, #0x0, 0x51ec <__ZNSt3__1rsB8ne180100IcNS_11char_traitsIcEENS_9allocatorIcEEEERNS_13basic_istreamIT_T0_EES9_RNS_12basic_stringIS6_S7_T1_EE+0x270>
    5078: 14000001     	b	0x507c <__ZNSt3__1rsB8ne180100IcNS_11char_traitsIcEENS_9allocatorIcEEEERNS_13basic_istreamIT_T0_EES9_RNS_12basic_stringIS6_S7_T1_EE+0x100>
    507c: f85f83a8     	ldur	x8, [x29, #-0x8]
    5080: f9400109     	ldr	x9, [x8]
    5084: f85e8129     	ldur	x9, [x9, #-0x18]
    5088: 8b090100     	add	x0, x8, x9
    508c: 94000000     	bl	0x508c <__ZNSt3__1rsB8ne180100IcNS_11char_traitsIcEENS_9allocatorIcEEEERNS_13basic_istreamIT_T0_EES9_RNS_12basic_stringIS6_S7_T1_EE+0x110>
    5090: f9000fe0     	str	x0, [sp, #0x18]
    5094: 14000001     	b	0x5098 <__ZNSt3__1rsB8ne180100IcNS_11char_traitsIcEENS_9allocatorIcEEEERNS_13basic_istreamIT_T0_EES9_RNS_12basic_stringIS6_S7_T1_EE+0x11c>
    5098: f9400fe0     	ldr	x0, [sp, #0x18]
    509c: 94000000     	bl	0x509c <__ZNSt3__1rsB8ne180100IcNS_11char_traitsIcEENS_9allocatorIcEEEERNS_13basic_istreamIT_T0_EES9_RNS_12basic_stringIS6_S7_T1_EE+0x120>
    50a0: b90017e0     	str	w0, [sp, #0x14]
    50a4: 14000001     	b	0x50a8 <__ZNSt3__1rsB8ne180100IcNS_11char_traitsIcEENS_9allocatorIcEEEERNS_13basic_istreamIT_T0_EES9_RNS_12basic_stringIS6_S7_T1_EE+0x12c>
    50a8: b94017e8     	ldr	w8, [sp, #0x14]
    50ac: b9003be8     	str	w8, [sp, #0x38]
    50b0: b9403be8     	ldr	w8, [sp, #0x38]
    50b4: b90013e8     	str	w8, [sp, #0x10]
    50b8: 94000000     	bl	0x50b8 <__ZNSt3__1rsB8ne180100IcNS_11char_traitsIcEENS_9allocatorIcEEEERNS_13basic_istreamIT_T0_EES9_RNS_12basic_stringIS6_S7_T1_EE+0x13c>
    50bc: aa0003e1     	mov	x1, x0
    50c0: b94013e0     	ldr	w0, [sp, #0x10]
    50c4: 94000000     	bl	0x50c4 <__ZNSt3__1rsB8ne180100IcNS_11char_traitsIcEENS_9allocatorIcEEEERNS_13basic_istreamIT_T0_EES9_RNS_12basic_stringIS6_S7_T1_EE+0x148>
    50c8: 36000540     	tbz	w0, #0x0, 0x5170 <__ZNSt3__1rsB8ne180100IcNS_11char_traitsIcEENS_9allocatorIcEEEERNS_13basic_istreamIT_T0_EES9_RNS_12basic_stringIS6_S7_T1_EE+0x1f4>
    50cc: 14000001     	b	0x50d0 <__ZNSt3__1rsB8ne180100IcNS_11char_traitsIcEENS_9allocatorIcEEEERNS_13basic_istreamIT_T0_EES9_RNS_12basic_stringIS6_S7_T1_EE+0x154>
    50d0: b85ec3a8     	ldur	w8, [x29, #-0x14]
    50d4: 321f0108     	orr	w8, w8, #0x2
    50d8: b81ec3a8     	stur	w8, [x29, #-0x14]
    50dc: 14000044     	b	0x51ec <__ZNSt3__1rsB8ne180100IcNS_11char_traitsIcEENS_9allocatorIcEEEERNS_13basic_istreamIT_T0_EES9_RNS_12basic_stringIS6_S7_T1_EE+0x270>
    50e0: f90023e0     	str	x0, [sp, #0x40]
    50e4: aa0103e8     	mov	x8, x1
    50e8: b9003fe8     	str	w8, [sp, #0x3c]
    50ec: 14000007     	b	0x5108 <__ZNSt3__1rsB8ne180100IcNS_11char_traitsIcEENS_9allocatorIcEEEERNS_13basic_istreamIT_T0_EES9_RNS_12basic_stringIS6_S7_T1_EE+0x18c>
    50f0: f90023e0     	str	x0, [sp, #0x40]
    50f4: aa0103e8     	mov	x8, x1
    50f8: b9003fe8     	str	w8, [sp, #0x3c]
    50fc: d100e3a0     	sub	x0, x29, #0x38
    5100: 94000000     	bl	0x5100 <__ZNSt3__1rsB8ne180100IcNS_11char_traitsIcEENS_9allocatorIcEEEERNS_13basic_istreamIT_T0_EES9_RNS_12basic_stringIS6_S7_T1_EE+0x184>
    5104: 14000001     	b	0x5108 <__ZNSt3__1rsB8ne180100IcNS_11char_traitsIcEENS_9allocatorIcEEEERNS_13basic_istreamIT_T0_EES9_RNS_12basic_stringIS6_S7_T1_EE+0x18c>
    5108: f94023e0     	ldr	x0, [sp, #0x40]
    510c: 94000000     	bl	0x510c <__ZNSt3__1rsB8ne180100IcNS_11char_traitsIcEENS_9allocatorIcEEEERNS_13basic_istreamIT_T0_EES9_RNS_12basic_stringIS6_S7_T1_EE+0x190>
    5110: b85ec3a8     	ldur	w8, [x29, #-0x14]
    5114: 32000108     	orr	w8, w8, #0x1
    5118: b81ec3a8     	stur	w8, [x29, #-0x14]
    511c: f85f83a8     	ldur	x8, [x29, #-0x8]
    5120: f9400109     	ldr	x9, [x8]
    5124: f85e8129     	ldur	x9, [x9, #-0x18]
    5128: 8b090100     	add	x0, x8, x9
    512c: b85ec3a1     	ldur	w1, [x29, #-0x14]
    5130: 94000000     	bl	0x5130 <__ZNSt3__1rsB8ne180100IcNS_11char_traitsIcEENS_9allocatorIcEEEERNS_13basic_istreamIT_T0_EES9_RNS_12basic_stringIS6_S7_T1_EE+0x1b4>
    5134: 14000001     	b	0x5138 <__ZNSt3__1rsB8ne180100IcNS_11char_traitsIcEENS_9allocatorIcEEEERNS_13basic_istreamIT_T0_EES9_RNS_12basic_stringIS6_S7_T1_EE+0x1bc>
    5138: f85f83a8     	ldur	x8, [x29, #-0x8]
    513c: f9400109     	ldr	x9, [x8]
    5140: f85e8129     	ldur	x9, [x9, #-0x18]
    5144: 8b090100     	add	x0, x8, x9
    5148: 94000000     	bl	0x5148 <__ZNSt3__1rsB8ne180100IcNS_11char_traitsIcEENS_9allocatorIcEEEERNS_13basic_istreamIT_T0_EES9_RNS_12basic_stringIS6_S7_T1_EE+0x1cc>
    514c: b9000fe0     	str	w0, [sp, #0xc]
    5150: 14000001     	b	0x5154 <__ZNSt3__1rsB8ne180100IcNS_11char_traitsIcEENS_9allocatorIcEEEERNS_13basic_istreamIT_T0_EES9_RNS_12basic_stringIS6_S7_T1_EE+0x1d8>
    5154: b9400fe8     	ldr	w8, [sp, #0xc]
    5158: 72000108     	ands	w8, w8, #0x1
    515c: 1a9f17e8     	cset	w8, eq
    5160: 37000708     	tbnz	w8, #0x0, 0x5240 <__ZNSt3__1rsB8ne180100IcNS_11char_traitsIcEENS_9allocatorIcEEEERNS_13basic_istreamIT_T0_EES9_RNS_12basic_stringIS6_S7_T1_EE+0x2c4>
    5164: 14000001     	b	0x5168 <__ZNSt3__1rsB8ne180100IcNS_11char_traitsIcEENS_9allocatorIcEEEERNS_13basic_istreamIT_T0_EES9_RNS_12basic_stringIS6_S7_T1_EE+0x1ec>
    5168: 94000000     	bl	0x5168 <__ZNSt3__1rsB8ne180100IcNS_11char_traitsIcEENS_9allocatorIcEEEERNS_13basic_istreamIT_T0_EES9_RNS_12basic_stringIS6_S7_T1_EE+0x1ec>
    516c: 14000046     	b	0x5284 <__ZNSt3__1rsB8ne180100IcNS_11char_traitsIcEENS_9allocatorIcEEEERNS_13basic_istreamIT_T0_EES9_RNS_12basic_stringIS6_S7_T1_EE+0x308>
    5170: b9403be0     	ldr	w0, [sp, #0x38]
    5174: 94000000     	bl	0x5174 <__ZNSt3__1rsB8ne180100IcNS_11char_traitsIcEENS_9allocatorIcEEEERNS_13basic_istreamIT_T0_EES9_RNS_12basic_stringIS6_S7_T1_EE+0x1f8>
    5178: 3900dfe0     	strb	w0, [sp, #0x37]
    517c: f85d03a0     	ldur	x0, [x29, #-0x30]
    5180: 39c0dfe2     	ldrsb	w2, [sp, #0x37]
    5184: 52880001     	mov	w1, #0x4000             ; =16384
    5188: 94000000     	bl	0x5188 <__ZNSt3__1rsB8ne180100IcNS_11char_traitsIcEENS_9allocatorIcEEEERNS_13basic_istreamIT_T0_EES9_RNS_12basic_stringIS6_S7_T1_EE+0x20c>
    518c: b9000be0     	str	w0, [sp, #0x8]
    5190: 14000001     	b	0x5194 <__ZNSt3__1rsB8ne180100IcNS_11char_traitsIcEENS_9allocatorIcEEEERNS_13basic_istreamIT_T0_EES9_RNS_12basic_stringIS6_S7_T1_EE+0x218>
    5194: b9400be8     	ldr	w8, [sp, #0x8]
    5198: 36000068     	tbz	w8, #0x0, 0x51a4 <__ZNSt3__1rsB8ne180100IcNS_11char_traitsIcEENS_9allocatorIcEEEERNS_13basic_istreamIT_T0_EES9_RNS_12basic_stringIS6_S7_T1_EE+0x228>
    519c: 14000001     	b	0x51a0 <__ZNSt3__1rsB8ne180100IcNS_11char_traitsIcEENS_9allocatorIcEEEERNS_13basic_istreamIT_T0_EES9_RNS_12basic_stringIS6_S7_T1_EE+0x224>
    51a0: 14000013     	b	0x51ec <__ZNSt3__1rsB8ne180100IcNS_11char_traitsIcEENS_9allocatorIcEEEERNS_13basic_istreamIT_T0_EES9_RNS_12basic_stringIS6_S7_T1_EE+0x270>
    51a4: f85f03a0     	ldur	x0, [x29, #-0x10]
    51a8: 39c0dfe1     	ldrsb	w1, [sp, #0x37]
    51ac: 94000000     	bl	0x51ac <__ZNSt3__1rsB8ne180100IcNS_11char_traitsIcEENS_9allocatorIcEEEERNS_13basic_istreamIT_T0_EES9_RNS_12basic_stringIS6_S7_T1_EE+0x230>
    51b0: 14000001     	b	0x51b4 <__ZNSt3__1rsB8ne180100IcNS_11char_traitsIcEENS_9allocatorIcEEEERNS_13basic_istreamIT_T0_EES9_RNS_12basic_stringIS6_S7_T1_EE+0x238>
    51b4: f85d83a8     	ldur	x8, [x29, #-0x28]
    51b8: 91000508     	add	x8, x8, #0x1
    51bc: f81d83a8     	stur	x8, [x29, #-0x28]
    51c0: f85f83a8     	ldur	x8, [x29, #-0x8]
    51c4: f9400109     	ldr	x9, [x8]
    51c8: f85e8129     	ldur	x9, [x9, #-0x18]
    51cc: 8b090100     	add	x0, x8, x9
    51d0: 94000000     	bl	0x51d0 <__ZNSt3__1rsB8ne180100IcNS_11char_traitsIcEENS_9allocatorIcEEEERNS_13basic_istreamIT_T0_EES9_RNS_12basic_stringIS6_S7_T1_EE+0x254>
    51d4: f90003e0     	str	x0, [sp]
    51d8: 14000001     	b	0x51dc <__ZNSt3__1rsB8ne180100IcNS_11char_traitsIcEENS_9allocatorIcEEEERNS_13basic_istreamIT_T0_EES9_RNS_12basic_stringIS6_S7_T1_EE+0x260>
    51dc: f94003e0     	ldr	x0, [sp]
    51e0: 94000000     	bl	0x51e0 <__ZNSt3__1rsB8ne180100IcNS_11char_traitsIcEENS_9allocatorIcEEEERNS_13basic_istreamIT_T0_EES9_RNS_12basic_stringIS6_S7_T1_EE+0x264>
    51e4: 14000001     	b	0x51e8 <__ZNSt3__1rsB8ne180100IcNS_11char_traitsIcEENS_9allocatorIcEEEERNS_13basic_istreamIT_T0_EES9_RNS_12basic_stringIS6_S7_T1_EE+0x26c>
    51e8: 17ffff9f     	b	0x5064 <__ZNSt3__1rsB8ne180100IcNS_11char_traitsIcEENS_9allocatorIcEEEERNS_13basic_istreamIT_T0_EES9_RNS_12basic_stringIS6_S7_T1_EE+0xe8>
    51ec: f85f83a8     	ldur	x8, [x29, #-0x8]
    51f0: f9400109     	ldr	x9, [x8]
    51f4: f85e8129     	ldur	x9, [x9, #-0x18]
    51f8: 8b090100     	add	x0, x8, x9
    51fc: d2800001     	mov	x1, #0x0                ; =0
    5200: 94000000     	bl	0x5200 <__ZNSt3__1rsB8ne180100IcNS_11char_traitsIcEENS_9allocatorIcEEEERNS_13basic_istreamIT_T0_EES9_RNS_12basic_stringIS6_S7_T1_EE+0x284>
    5204: f85d83a8     	ldur	x8, [x29, #-0x28]
    5208: f1000108     	subs	x8, x8, #0x0
    520c: 1a9f07e8     	cset	w8, ne
    5210: 370000c8     	tbnz	w8, #0x0, 0x5228 <__ZNSt3__1rsB8ne180100IcNS_11char_traitsIcEENS_9allocatorIcEEEERNS_13basic_istreamIT_T0_EES9_RNS_12basic_stringIS6_S7_T1_EE+0x2ac>
    5214: 14000001     	b	0x5218 <__ZNSt3__1rsB8ne180100IcNS_11char_traitsIcEENS_9allocatorIcEEEERNS_13basic_istreamIT_T0_EES9_RNS_12basic_stringIS6_S7_T1_EE+0x29c>
    5218: b85ec3a8     	ldur	w8, [x29, #-0x14]
    521c: 321e0108     	orr	w8, w8, #0x4
    5220: b81ec3a8     	stur	w8, [x29, #-0x14]
    5224: 14000001     	b	0x5228 <__ZNSt3__1rsB8ne180100IcNS_11char_traitsIcEENS_9allocatorIcEEEERNS_13basic_istreamIT_T0_EES9_RNS_12basic_stringIS6_S7_T1_EE+0x2ac>
    5228: 14000008     	b	0x5248 <__ZNSt3__1rsB8ne180100IcNS_11char_traitsIcEENS_9allocatorIcEEEERNS_13basic_istreamIT_T0_EES9_RNS_12basic_stringIS6_S7_T1_EE+0x2cc>
    522c: f90023e0     	str	x0, [sp, #0x40]
    5230: aa0103e8     	mov	x8, x1
    5234: b9003fe8     	str	w8, [sp, #0x3c]
    5238: 94000000     	bl	0x5238 <__ZNSt3__1rsB8ne180100IcNS_11char_traitsIcEENS_9allocatorIcEEEERNS_13basic_istreamIT_T0_EES9_RNS_12basic_stringIS6_S7_T1_EE+0x2bc>
    523c: 1400000a     	b	0x5264 <__ZNSt3__1rsB8ne180100IcNS_11char_traitsIcEENS_9allocatorIcEEEERNS_13basic_istreamIT_T0_EES9_RNS_12basic_stringIS6_S7_T1_EE+0x2e8>
    5240: 94000000     	bl	0x5240 <__ZNSt3__1rsB8ne180100IcNS_11char_traitsIcEENS_9allocatorIcEEEERNS_13basic_istreamIT_T0_EES9_RNS_12basic_stringIS6_S7_T1_EE+0x2c4>
    5244: 14000001     	b	0x5248 <__ZNSt3__1rsB8ne180100IcNS_11char_traitsIcEENS_9allocatorIcEEEERNS_13basic_istreamIT_T0_EES9_RNS_12basic_stringIS6_S7_T1_EE+0x2cc>
    5248: f85f83a8     	ldur	x8, [x29, #-0x8]
    524c: f9400109     	ldr	x9, [x8]
    5250: f85e8129     	ldur	x9, [x9, #-0x18]
    5254: 8b090100     	add	x0, x8, x9
    5258: b85ec3a1     	ldur	w1, [x29, #-0x14]
    525c: 94000000     	bl	0x525c <__ZNSt3__1rsB8ne180100IcNS_11char_traitsIcEENS_9allocatorIcEEEERNS_13basic_istreamIT_T0_EES9_RNS_12basic_stringIS6_S7_T1_EE+0x2e0>
    5260: 14000002     	b	0x5268 <__ZNSt3__1rsB8ne180100IcNS_11char_traitsIcEENS_9allocatorIcEEEERNS_13basic_istreamIT_T0_EES9_RNS_12basic_stringIS6_S7_T1_EE+0x2ec>
    5264: 14000005     	b	0x5278 <__ZNSt3__1rsB8ne180100IcNS_11char_traitsIcEENS_9allocatorIcEEEERNS_13basic_istreamIT_T0_EES9_RNS_12basic_stringIS6_S7_T1_EE+0x2fc>
    5268: f85f83a0     	ldur	x0, [x29, #-0x8]
    526c: a9487bfd     	ldp	x29, x30, [sp, #0x80]
    5270: 910243ff     	add	sp, sp, #0x90
    5274: d65f03c0     	ret
    5278: f94023e0     	ldr	x0, [sp, #0x40]
    527c: 94000000     	bl	0x527c <__ZNSt3__1rsB8ne180100IcNS_11char_traitsIcEENS_9allocatorIcEEEERNS_13basic_istreamIT_T0_EES9_RNS_12basic_stringIS6_S7_T1_EE+0x300>
    5280: 94000000     	bl	0x5280 <__ZNSt3__1rsB8ne180100IcNS_11char_traitsIcEENS_9allocatorIcEEEERNS_13basic_istreamIT_T0_EES9_RNS_12basic_stringIS6_S7_T1_EE+0x304>
    5284: d4200020     	brk	#0x1

0000000000005288 <__ZNKSt3__19basic_iosIcNS_11char_traitsIcEEEcvbB8ne180100Ev>:
    5288: d10083ff     	sub	sp, sp, #0x20
    528c: a9017bfd     	stp	x29, x30, [sp, #0x10]
    5290: 910043fd     	add	x29, sp, #0x10
    5294: f90007e0     	str	x0, [sp, #0x8]
    5298: f94007e0     	ldr	x0, [sp, #0x8]
    529c: 94000000     	bl	0x529c <__ZNKSt3__19basic_iosIcNS_11char_traitsIcEEEcvbB8ne180100Ev+0x14>
    52a0: 52000008     	eor	w8, w0, #0x1
    52a4: 12000100     	and	w0, w8, #0x1
    52a8: a9417bfd     	ldp	x29, x30, [sp, #0x10]
    52ac: 910083ff     	add	sp, sp, #0x20
    52b0: d65f03c0     	ret

00000000000052b4 <__ZNSt3__14__fs10filesystem4pathD2B8ne180100Ev>:
    52b4: d10083ff     	sub	sp, sp, #0x20
    52b8: a9017bfd     	stp	x29, x30, [sp, #0x10]
    52bc: 910043fd     	add	x29, sp, #0x10
    52c0: f90007e0     	str	x0, [sp, #0x8]
    52c4: f94007e0     	ldr	x0, [sp, #0x8]
    52c8: f90003e0     	str	x0, [sp]
    52cc: 94000000     	bl	0x52cc <__ZNSt3__14__fs10filesystem4pathD2B8ne180100Ev+0x18>
    52d0: f94003e0     	ldr	x0, [sp]
    52d4: a9417bfd     	ldp	x29, x30, [sp, #0x10]
    52d8: 910083ff     	add	sp, sp, #0x20
    52dc: d65f03c0     	ret

00000000000052e0 <__ZNSt3__14__fs10filesystem18directory_iteratorC1B8ne180100EOS2_>:
    52e0: d100c3ff     	sub	sp, sp, #0x30
    52e4: a9027bfd     	stp	x29, x30, [sp, #0x20]
    52e8: 910083fd     	add	x29, sp, #0x20
    52ec: f81f83a0     	stur	x0, [x29, #-0x8]
    52f0: f9000be1     	str	x1, [sp, #0x10]
    52f4: f85f83a0     	ldur	x0, [x29, #-0x8]
    52f8: f90007e0     	str	x0, [sp, #0x8]
    52fc: f9400be1     	ldr	x1, [sp, #0x10]
    5300: 94000000     	bl	0x5300 <__ZNSt3__14__fs10filesystem18directory_iteratorC1B8ne180100EOS2_+0x20>
    5304: f94007e0     	ldr	x0, [sp, #0x8]
    5308: a9427bfd     	ldp	x29, x30, [sp, #0x20]
    530c: 9100c3ff     	add	sp, sp, #0x30
    5310: d65f03c0     	ret

0000000000005314 <__ZNSt3__14__fs10filesystem18directory_iteratorC2B8ne180100EOS2_>:
    5314: d100c3ff     	sub	sp, sp, #0x30
    5318: a9027bfd     	stp	x29, x30, [sp, #0x20]
    531c: 910083fd     	add	x29, sp, #0x20
    5320: f81f83a0     	stur	x0, [x29, #-0x8]
    5324: f9000be1     	str	x1, [sp, #0x10]
    5328: f85f83a0     	ldur	x0, [x29, #-0x8]
    532c: f90007e0     	str	x0, [sp, #0x8]
    5330: f9400be1     	ldr	x1, [sp, #0x10]
    5334: 94000000     	bl	0x5334 <__ZNSt3__14__fs10filesystem18directory_iteratorC2B8ne180100EOS2_+0x20>
    5338: f94007e0     	ldr	x0, [sp, #0x8]
    533c: a9427bfd     	ldp	x29, x30, [sp, #0x20]
    5340: 9100c3ff     	add	sp, sp, #0x30
    5344: d65f03c0     	ret

0000000000005348 <__ZNSt3__110shared_ptrINS_4__fs10filesystem12__dir_streamEEC1B8ne180100EOS4_>:
    5348: d100c3ff     	sub	sp, sp, #0x30
    534c: a9027bfd     	stp	x29, x30, [sp, #0x20]
    5350: 910083fd     	add	x29, sp, #0x20
    5354: f81f83a0     	stur	x0, [x29, #-0x8]
    5358: f9000be1     	str	x1, [sp, #0x10]
    535c: f85f83a0     	ldur	x0, [x29, #-0x8]
    5360: f90007e0     	str	x0, [sp, #0x8]
    5364: f9400be1     	ldr	x1, [sp, #0x10]
    5368: 94000000     	bl	0x5368 <__ZNSt3__110shared_ptrINS_4__fs10filesystem12__dir_streamEEC1B8ne180100EOS4_+0x20>
    536c: f94007e0     	ldr	x0, [sp, #0x8]
    5370: a9427bfd     	ldp	x29, x30, [sp, #0x20]
    5374: 9100c3ff     	add	sp, sp, #0x30
    5378: d65f03c0     	ret

000000000000537c <__ZNSt3__110shared_ptrINS_4__fs10filesystem12__dir_streamEEC2B8ne180100EOS4_>:
    537c: d10043ff     	sub	sp, sp, #0x10
    5380: f90007e0     	str	x0, [sp, #0x8]
    5384: f90003e1     	str	x1, [sp]
    5388: f94007e0     	ldr	x0, [sp, #0x8]
    538c: f94003e8     	ldr	x8, [sp]
    5390: f9400108     	ldr	x8, [x8]
    5394: f9000008     	str	x8, [x0]
    5398: f94003e8     	ldr	x8, [sp]
    539c: f9400508     	ldr	x8, [x8, #0x8]
    53a0: f9000408     	str	x8, [x0, #0x8]
    53a4: f94003e8     	ldr	x8, [sp]
    53a8: f900011f     	str	xzr, [x8]
    53ac: f94003e8     	ldr	x8, [sp]
    53b0: f900051f     	str	xzr, [x8, #0x8]
    53b4: 910043ff     	add	sp, sp, #0x10
    53b8: d65f03c0     	ret

00000000000053bc <__ZNSt3__14__fs10filesystem18directory_iteratorC2B8ne180100ERKS2_>:
    53bc: d100c3ff     	sub	sp, sp, #0x30
    53c0: a9027bfd     	stp	x29, x30, [sp, #0x20]
    53c4: 910083fd     	add	x29, sp, #0x20
    53c8: f81f83a0     	stur	x0, [x29, #-0x8]
    53cc: f9000be1     	str	x1, [sp, #0x10]
    53d0: f85f83a0     	ldur	x0, [x29, #-0x8]
    53d4: f90007e0     	str	x0, [sp, #0x8]
    53d8: f9400be1     	ldr	x1, [sp, #0x10]
    53dc: 94000000     	bl	0x53dc <__ZNSt3__14__fs10filesystem18directory_iteratorC2B8ne180100ERKS2_+0x20>
    53e0: f94007e0     	ldr	x0, [sp, #0x8]
    53e4: a9427bfd     	ldp	x29, x30, [sp, #0x20]
    53e8: 9100c3ff     	add	sp, sp, #0x30
    53ec: d65f03c0     	ret

00000000000053f0 <__ZNSt3__110shared_ptrINS_4__fs10filesystem12__dir_streamEEC1B8ne180100ERKS4_>:
    53f0: d100c3ff     	sub	sp, sp, #0x30
    53f4: a9027bfd     	stp	x29, x30, [sp, #0x20]
    53f8: 910083fd     	add	x29, sp, #0x20
    53fc: f81f83a0     	stur	x0, [x29, #-0x8]
    5400: f9000be1     	str	x1, [sp, #0x10]
    5404: f85f83a0     	ldur	x0, [x29, #-0x8]
    5408: f90007e0     	str	x0, [sp, #0x8]
    540c: f9400be1     	ldr	x1, [sp, #0x10]
    5410: 94000000     	bl	0x5410 <__ZNSt3__110shared_ptrINS_4__fs10filesystem12__dir_streamEEC1B8ne180100ERKS4_+0x20>
    5414: f94007e0     	ldr	x0, [sp, #0x8]
    5418: a9427bfd     	ldp	x29, x30, [sp, #0x20]
    541c: 9100c3ff     	add	sp, sp, #0x30
    5420: d65f03c0     	ret

0000000000005424 <__ZNSt3__110shared_ptrINS_4__fs10filesystem12__dir_streamEEC2B8ne180100ERKS4_>:
    5424: d100c3ff     	sub	sp, sp, #0x30
    5428: a9027bfd     	stp	x29, x30, [sp, #0x20]
    542c: 910083fd     	add	x29, sp, #0x20
    5430: f9000be0     	str	x0, [sp, #0x10]
    5434: f90007e1     	str	x1, [sp, #0x8]
    5438: f9400be8     	ldr	x8, [sp, #0x10]
    543c: f90003e8     	str	x8, [sp]
    5440: aa0803e9     	mov	x9, x8
    5444: f81f83a9     	stur	x9, [x29, #-0x8]
    5448: f94007e9     	ldr	x9, [sp, #0x8]
    544c: f9400129     	ldr	x9, [x9]
    5450: f9000109     	str	x9, [x8]
    5454: f94007e9     	ldr	x9, [sp, #0x8]
    5458: f9400529     	ldr	x9, [x9, #0x8]
    545c: f9000509     	str	x9, [x8, #0x8]
    5460: f9400508     	ldr	x8, [x8, #0x8]
    5464: f1000108     	subs	x8, x8, #0x0
    5468: 1a9f17e8     	cset	w8, eq
    546c: 370000c8     	tbnz	w8, #0x0, 0x5484 <__ZNSt3__110shared_ptrINS_4__fs10filesystem12__dir_streamEEC2B8ne180100ERKS4_+0x60>
    5470: 14000001     	b	0x5474 <__ZNSt3__110shared_ptrINS_4__fs10filesystem12__dir_streamEEC2B8ne180100ERKS4_+0x50>
    5474: f94003e8     	ldr	x8, [sp]
    5478: f9400500     	ldr	x0, [x8, #0x8]
    547c: 94000000     	bl	0x547c <__ZNSt3__110shared_ptrINS_4__fs10filesystem12__dir_streamEEC2B8ne180100ERKS4_+0x58>
    5480: 14000001     	b	0x5484 <__ZNSt3__110shared_ptrINS_4__fs10filesystem12__dir_streamEEC2B8ne180100ERKS4_+0x60>
    5484: f85f83a0     	ldur	x0, [x29, #-0x8]
    5488: a9427bfd     	ldp	x29, x30, [sp, #0x20]
    548c: 9100c3ff     	add	sp, sp, #0x30
    5490: d65f03c0     	ret

0000000000005494 <__ZNSt3__119__shared_weak_count12__add_sharedB8ne180100Ev>:
    5494: d10083ff     	sub	sp, sp, #0x20
    5498: a9017bfd     	stp	x29, x30, [sp, #0x10]
    549c: 910043fd     	add	x29, sp, #0x10
    54a0: f90007e0     	str	x0, [sp, #0x8]
    54a4: f94007e0     	ldr	x0, [sp, #0x8]
    54a8: 94000000     	bl	0x54a8 <__ZNSt3__119__shared_weak_count12__add_sharedB8ne180100Ev+0x14>
    54ac: a9417bfd     	ldp	x29, x30, [sp, #0x10]
    54b0: 910083ff     	add	sp, sp, #0x20
    54b4: d65f03c0     	ret

00000000000054b8 <__ZNSt3__114__shared_count12__add_sharedB8ne180100Ev>:
    54b8: d10083ff     	sub	sp, sp, #0x20
    54bc: a9017bfd     	stp	x29, x30, [sp, #0x10]
    54c0: 910043fd     	add	x29, sp, #0x10
    54c4: f90007e0     	str	x0, [sp, #0x8]
    54c8: f94007e8     	ldr	x8, [sp, #0x8]
    54cc: 91002100     	add	x0, x8, #0x8
    54d0: 94000000     	bl	0x54d0 <__ZNSt3__114__shared_count12__add_sharedB8ne180100Ev+0x18>
    54d4: a9417bfd     	ldp	x29, x30, [sp, #0x10]
    54d8: 910083ff     	add	sp, sp, #0x20
    54dc: d65f03c0     	ret

00000000000054e0 <__ZNSt3__134__libcpp_atomic_refcount_incrementB8ne180100IlEET_RS1_>:
    54e0: d10083ff     	sub	sp, sp, #0x20
    54e4: f9000fe0     	str	x0, [sp, #0x18]
    54e8: f9400fe8     	ldr	x8, [sp, #0x18]
    54ec: d2800029     	mov	x9, #0x1                ; =1
    54f0: f9000be9     	str	x9, [sp, #0x10]
    54f4: f9400be9     	ldr	x9, [sp, #0x10]
    54f8: f8290108     	ldadd	x9, x8, [x8]
    54fc: 8b090108     	add	x8, x8, x9
    5500: f90007e8     	str	x8, [sp, #0x8]
    5504: f94007e0     	ldr	x0, [sp, #0x8]
    5508: 910083ff     	add	sp, sp, #0x20
    550c: d65f03c0     	ret

0000000000005510 <__ZNSt3__14__fs10filesystem18directory_iteratorD2B8ne180100Ev>:
    5510: d10083ff     	sub	sp, sp, #0x20
    5514: a9017bfd     	stp	x29, x30, [sp, #0x10]
    5518: 910043fd     	add	x29, sp, #0x10
    551c: f90007e0     	str	x0, [sp, #0x8]
    5520: f94007e0     	ldr	x0, [sp, #0x8]
    5524: f90003e0     	str	x0, [sp]
    5528: 94000000     	bl	0x5528 <__ZNSt3__14__fs10filesystem18directory_iteratorD2B8ne180100Ev+0x18>
    552c: f94003e0     	ldr	x0, [sp]
    5530: a9417bfd     	ldp	x29, x30, [sp, #0x10]
    5534: 910083ff     	add	sp, sp, #0x20
    5538: d65f03c0     	ret

000000000000553c <__ZNSt3__110shared_ptrINS_4__fs10filesystem12__dir_streamEED1B8ne180100Ev>:
    553c: d10083ff     	sub	sp, sp, #0x20
    5540: a9017bfd     	stp	x29, x30, [sp, #0x10]
    5544: 910043fd     	add	x29, sp, #0x10
    5548: f90007e0     	str	x0, [sp, #0x8]
    554c: f94007e0     	ldr	x0, [sp, #0x8]
    5550: f90003e0     	str	x0, [sp]
    5554: 94000000     	bl	0x5554 <__ZNSt3__110shared_ptrINS_4__fs10filesystem12__dir_streamEED1B8ne180100Ev+0x18>
    5558: f94003e0     	ldr	x0, [sp]
    555c: a9417bfd     	ldp	x29, x30, [sp, #0x10]
    5560: 910083ff     	add	sp, sp, #0x20
    5564: d65f03c0     	ret

0000000000005568 <__ZNSt3__110shared_ptrINS_4__fs10filesystem12__dir_streamEED2B8ne180100Ev>:
    5568: d100c3ff     	sub	sp, sp, #0x30
    556c: a9027bfd     	stp	x29, x30, [sp, #0x20]
    5570: 910083fd     	add	x29, sp, #0x20
    5574: f9000be0     	str	x0, [sp, #0x10]
    5578: f9400be8     	ldr	x8, [sp, #0x10]
    557c: f90007e8     	str	x8, [sp, #0x8]
    5580: aa0803e9     	mov	x9, x8
    5584: f81f83a9     	stur	x9, [x29, #-0x8]
    5588: f9400508     	ldr	x8, [x8, #0x8]
    558c: f1000108     	subs	x8, x8, #0x0
    5590: 1a9f17e8     	cset	w8, eq
    5594: 370000c8     	tbnz	w8, #0x0, 0x55ac <__ZNSt3__110shared_ptrINS_4__fs10filesystem12__dir_streamEED2B8ne180100Ev+0x44>
    5598: 14000001     	b	0x559c <__ZNSt3__110shared_ptrINS_4__fs10filesystem12__dir_streamEED2B8ne180100Ev+0x34>
    559c: f94007e8     	ldr	x8, [sp, #0x8]
    55a0: f9400500     	ldr	x0, [x8, #0x8]
    55a4: 94000000     	bl	0x55a4 <__ZNSt3__110shared_ptrINS_4__fs10filesystem12__dir_streamEED2B8ne180100Ev+0x3c>
    55a8: 14000001     	b	0x55ac <__ZNSt3__110shared_ptrINS_4__fs10filesystem12__dir_streamEED2B8ne180100Ev+0x44>
    55ac: f85f83a0     	ldur	x0, [x29, #-0x8]
    55b0: a9427bfd     	ldp	x29, x30, [sp, #0x20]
    55b4: 9100c3ff     	add	sp, sp, #0x30
    55b8: d65f03c0     	ret

00000000000055bc <__ZNSt3__119__shared_weak_count16__release_sharedB8ne180100Ev>:
    55bc: d10083ff     	sub	sp, sp, #0x20
    55c0: a9017bfd     	stp	x29, x30, [sp, #0x10]
    55c4: 910043fd     	add	x29, sp, #0x10
    55c8: f90007e0     	str	x0, [sp, #0x8]
    55cc: f94007e0     	ldr	x0, [sp, #0x8]
    55d0: f90003e0     	str	x0, [sp]
    55d4: 94000000     	bl	0x55d4 <__ZNSt3__119__shared_weak_count16__release_sharedB8ne180100Ev+0x18>
    55d8: 360000a0     	tbz	w0, #0x0, 0x55ec <__ZNSt3__119__shared_weak_count16__release_sharedB8ne180100Ev+0x30>
    55dc: 14000001     	b	0x55e0 <__ZNSt3__119__shared_weak_count16__release_sharedB8ne180100Ev+0x24>
    55e0: f94003e0     	ldr	x0, [sp]
    55e4: 94000000     	bl	0x55e4 <__ZNSt3__119__shared_weak_count16__release_sharedB8ne180100Ev+0x28>
    55e8: 14000001     	b	0x55ec <__ZNSt3__119__shared_weak_count16__release_sharedB8ne180100Ev+0x30>
    55ec: a9417bfd     	ldp	x29, x30, [sp, #0x10]
    55f0: 910083ff     	add	sp, sp, #0x20
    55f4: d65f03c0     	ret

00000000000055f8 <__ZNSt3__114__shared_count16__release_sharedB8ne180100Ev>:
    55f8: d100c3ff     	sub	sp, sp, #0x30
    55fc: a9027bfd     	stp	x29, x30, [sp, #0x20]
    5600: 910083fd     	add	x29, sp, #0x20
    5604: f9000be0     	str	x0, [sp, #0x10]
    5608: f9400be8     	ldr	x8, [sp, #0x10]
    560c: f90007e8     	str	x8, [sp, #0x8]
    5610: 91002100     	add	x0, x8, #0x8
    5614: 94000000     	bl	0x5614 <__ZNSt3__114__shared_count16__release_sharedB8ne180100Ev+0x1c>
    5618: b1000408     	adds	x8, x0, #0x1
    561c: 1a9f07e8     	cset	w8, ne
    5620: 37000168     	tbnz	w8, #0x0, 0x564c <__ZNSt3__114__shared_count16__release_sharedB8ne180100Ev+0x54>
    5624: 14000001     	b	0x5628 <__ZNSt3__114__shared_count16__release_sharedB8ne180100Ev+0x30>
    5628: f94007e0     	ldr	x0, [sp, #0x8]
    562c: f9400008     	ldr	x8, [x0]
    5630: f9400908     	ldr	x8, [x8, #0x10]
    5634: d63f0100     	blr	x8
    5638: 52800028     	mov	w8, #0x1                ; =1
    563c: 12000108     	and	w8, w8, #0x1
    5640: 12000108     	and	w8, w8, #0x1
    5644: 381ff3a8     	sturb	w8, [x29, #-0x1]
    5648: 14000006     	b	0x5660 <__ZNSt3__114__shared_count16__release_sharedB8ne180100Ev+0x68>
    564c: 52800008     	mov	w8, #0x0                ; =0
    5650: 12000108     	and	w8, w8, #0x1
    5654: 12000108     	and	w8, w8, #0x1
    5658: 381ff3a8     	sturb	w8, [x29, #-0x1]
    565c: 14000001     	b	0x5660 <__ZNSt3__114__shared_count16__release_sharedB8ne180100Ev+0x68>
    5660: 385ff3a8     	ldurb	w8, [x29, #-0x1]
    5664: 12000100     	and	w0, w8, #0x1
    5668: a9427bfd     	ldp	x29, x30, [sp, #0x20]
    566c: 9100c3ff     	add	sp, sp, #0x30
    5670: d65f03c0     	ret

0000000000005674 <__ZNSt3__134__libcpp_atomic_refcount_decrementB8ne180100IlEET_RS1_>:
    5674: d10083ff     	sub	sp, sp, #0x20
    5678: f9000fe0     	str	x0, [sp, #0x18]
    567c: f9400fe8     	ldr	x8, [sp, #0x18]
    5680: 92800009     	mov	x9, #-0x1               ; =-1
    5684: f9000be9     	str	x9, [sp, #0x10]
    5688: f9400be9     	ldr	x9, [sp, #0x10]
    568c: f8e90108     	ldaddal	x9, x8, [x8]
    5690: 8b090108     	add	x8, x8, x9
    5694: f90007e8     	str	x8, [sp, #0x8]
    5698: f94007e0     	ldr	x0, [sp, #0x8]
    569c: 910083ff     	add	sp, sp, #0x20
    56a0: d65f03c0     	ret

00000000000056a4 <__ZNSt3__14__fs10filesystem18directory_iteratorC1B8ne180100Ev>:
    56a4: d10083ff     	sub	sp, sp, #0x20
    56a8: a9017bfd     	stp	x29, x30, [sp, #0x10]
    56ac: 910043fd     	add	x29, sp, #0x10
    56b0: f90007e0     	str	x0, [sp, #0x8]
    56b4: f94007e0     	ldr	x0, [sp, #0x8]
    56b8: f90003e0     	str	x0, [sp]
    56bc: 94000000     	bl	0x56bc <__ZNSt3__14__fs10filesystem18directory_iteratorC1B8ne180100Ev+0x18>
    56c0: f94003e0     	ldr	x0, [sp]
    56c4: a9417bfd     	ldp	x29, x30, [sp, #0x10]
    56c8: 910083ff     	add	sp, sp, #0x20
    56cc: d65f03c0     	ret

00000000000056d0 <__ZNSt3__14__fs10filesystem18directory_iteratorC2B8ne180100Ev>:
    56d0: d10083ff     	sub	sp, sp, #0x20
    56d4: a9017bfd     	stp	x29, x30, [sp, #0x10]
    56d8: 910043fd     	add	x29, sp, #0x10
    56dc: f90007e0     	str	x0, [sp, #0x8]
    56e0: f94007e0     	ldr	x0, [sp, #0x8]
    56e4: f90003e0     	str	x0, [sp]
    56e8: 94000000     	bl	0x56e8 <__ZNSt3__14__fs10filesystem18directory_iteratorC2B8ne180100Ev+0x18>
    56ec: f94003e0     	ldr	x0, [sp]
    56f0: a9417bfd     	ldp	x29, x30, [sp, #0x10]
    56f4: 910083ff     	add	sp, sp, #0x20
    56f8: d65f03c0     	ret

00000000000056fc <__ZNSt3__110shared_ptrINS_4__fs10filesystem12__dir_streamEEC1B8ne180100Ev>:
    56fc: d10083ff     	sub	sp, sp, #0x20
    5700: a9017bfd     	stp	x29, x30, [sp, #0x10]
    5704: 910043fd     	add	x29, sp, #0x10
    5708: f90007e0     	str	x0, [sp, #0x8]
    570c: f94007e0     	ldr	x0, [sp, #0x8]
    5710: f90003e0     	str	x0, [sp]
    5714: 94000000     	bl	0x5714 <__ZNSt3__110shared_ptrINS_4__fs10filesystem12__dir_streamEEC1B8ne180100Ev+0x18>
    5718: f94003e0     	ldr	x0, [sp]
    571c: a9417bfd     	ldp	x29, x30, [sp, #0x10]
    5720: 910083ff     	add	sp, sp, #0x20
    5724: d65f03c0     	ret

0000000000005728 <__ZNSt3__110shared_ptrINS_4__fs10filesystem12__dir_streamEEC2B8ne180100Ev>:
    5728: d10043ff     	sub	sp, sp, #0x10
    572c: f90007e0     	str	x0, [sp, #0x8]
    5730: f94007e0     	ldr	x0, [sp, #0x8]
    5734: f900001f     	str	xzr, [x0]
    5738: f900041f     	str	xzr, [x0, #0x8]
    573c: 910043ff     	add	sp, sp, #0x10
    5740: d65f03c0     	ret

0000000000005744 <__ZNSt3__14__fs10filesystemeqB8ne180100ERKNS1_18directory_iteratorES4_>:
    5744: d10083ff     	sub	sp, sp, #0x20
    5748: a9017bfd     	stp	x29, x30, [sp, #0x10]
    574c: 910043fd     	add	x29, sp, #0x10
    5750: f90007e0     	str	x0, [sp, #0x8]
    5754: f90003e1     	str	x1, [sp]
    5758: f94007e0     	ldr	x0, [sp, #0x8]
    575c: f94003e1     	ldr	x1, [sp]
    5760: 94000000     	bl	0x5760 <__ZNSt3__14__fs10filesystemeqB8ne180100ERKNS1_18directory_iteratorES4_+0x1c>
    5764: 12000000     	and	w0, w0, #0x1
    5768: a9417bfd     	ldp	x29, x30, [sp, #0x10]
    576c: 910083ff     	add	sp, sp, #0x20
    5770: d65f03c0     	ret

0000000000005774 <__ZNSt3__1eqB8ne180100INS_4__fs10filesystem12__dir_streamES3_EEbRKNS_10shared_ptrIT_EERKNS4_IT0_EE>:
    5774: d100c3ff     	sub	sp, sp, #0x30
    5778: a9027bfd     	stp	x29, x30, [sp, #0x20]
    577c: 910083fd     	add	x29, sp, #0x20
    5780: f81f83a0     	stur	x0, [x29, #-0x8]
    5784: f9000be1     	str	x1, [sp, #0x10]
    5788: f85f83a0     	ldur	x0, [x29, #-0x8]
    578c: 94000000     	bl	0x578c <__ZNSt3__1eqB8ne180100INS_4__fs10filesystem12__dir_streamES3_EEbRKNS_10shared_ptrIT_EERKNS4_IT0_EE+0x18>
    5790: f90007e0     	str	x0, [sp, #0x8]
    5794: f9400be0     	ldr	x0, [sp, #0x10]
    5798: 94000000     	bl	0x5798 <__ZNSt3__1eqB8ne180100INS_4__fs10filesystem12__dir_streamES3_EEbRKNS_10shared_ptrIT_EERKNS4_IT0_EE+0x24>
    579c: aa0003e8     	mov	x8, x0
    57a0: f94007e0     	ldr	x0, [sp, #0x8]
    57a4: eb080008     	subs	x8, x0, x8
    57a8: 1a9f17e8     	cset	w8, eq
    57ac: 12000100     	and	w0, w8, #0x1
    57b0: a9427bfd     	ldp	x29, x30, [sp, #0x20]
    57b4: 9100c3ff     	add	sp, sp, #0x30
    57b8: d65f03c0     	ret

00000000000057bc <__ZNKSt3__110shared_ptrINS_4__fs10filesystem12__dir_streamEE3getB8ne180100Ev>:
    57bc: d10043ff     	sub	sp, sp, #0x10
    57c0: f90007e0     	str	x0, [sp, #0x8]
    57c4: f94007e8     	ldr	x8, [sp, #0x8]
    57c8: f9400100     	ldr	x0, [x8]
    57cc: 910043ff     	add	sp, sp, #0x10
    57d0: d65f03c0     	ret

00000000000057d4 <__ZNSt3__112basic_stringIcNS_11char_traitsIcEENS_9allocatorIcEEEC1INS_17basic_string_viewIcS2_EELi0EEERKT_>:
    57d4: d100c3ff     	sub	sp, sp, #0x30
    57d8: a9027bfd     	stp	x29, x30, [sp, #0x20]
    57dc: 910083fd     	add	x29, sp, #0x20
    57e0: f81f83a0     	stur	x0, [x29, #-0x8]
    57e4: f9000be1     	str	x1, [sp, #0x10]
    57e8: f85f83a0     	ldur	x0, [x29, #-0x8]
    57ec: f90007e0     	str	x0, [sp, #0x8]
    57f0: f9400be1     	ldr	x1, [sp, #0x10]
    57f4: 94000000     	bl	0x57f4 <__ZNSt3__112basic_stringIcNS_11char_traitsIcEENS_9allocatorIcEEEC1INS_17basic_string_viewIcS2_EELi0EEERKT_+0x20>
    57f8: f94007e0     	ldr	x0, [sp, #0x8]
    57fc: a9427bfd     	ldp	x29, x30, [sp, #0x20]
    5800: 9100c3ff     	add	sp, sp, #0x30
    5804: d65f03c0     	ret

0000000000005808 <__ZNSt3__14__fs10filesystem4pathC1B8ne180100EONS_12basic_stringIcNS_11char_traitsIcEENS_9allocatorIcEEEENS2_6formatE>:
    5808: d100c3ff     	sub	sp, sp, #0x30
    580c: a9027bfd     	stp	x29, x30, [sp, #0x20]
    5810: 910083fd     	add	x29, sp, #0x20
    5814: f81f83a0     	stur	x0, [x29, #-0x8]
    5818: f9000be1     	str	x1, [sp, #0x10]
    581c: 39003fe2     	strb	w2, [sp, #0xf]
    5820: f85f83a0     	ldur	x0, [x29, #-0x8]
    5824: f90003e0     	str	x0, [sp]
    5828: f9400be1     	ldr	x1, [sp, #0x10]
    582c: 39403fe2     	ldrb	w2, [sp, #0xf]
    5830: 94000000     	bl	0x5830 <__ZNSt3__14__fs10filesystem4pathC1B8ne180100EONS_12basic_stringIcNS_11char_traitsIcEENS_9allocatorIcEEEENS2_6formatE+0x28>
    5834: f94003e0     	ldr	x0, [sp]
    5838: a9427bfd     	ldp	x29, x30, [sp, #0x20]
    583c: 9100c3ff     	add	sp, sp, #0x30
    5840: d65f03c0     	ret

0000000000005844 <__ZNSt3__112basic_stringIcNS_11char_traitsIcEENS_9allocatorIcEEEC2INS_17basic_string_viewIcS2_EELi0EEERKT_>:
    5844: d10183ff     	sub	sp, sp, #0x60
    5848: a9057bfd     	stp	x29, x30, [sp, #0x50]
    584c: 910143fd     	add	x29, sp, #0x50
    5850: f81f83a0     	stur	x0, [x29, #-0x8]
    5854: f81f03a1     	stur	x1, [x29, #-0x10]
    5858: f85f83a0     	ldur	x0, [x29, #-0x8]
    585c: f9000fe0     	str	x0, [sp, #0x18]
    5860: d10047a1     	sub	x1, x29, #0x11
    5864: d1004ba2     	sub	x2, x29, #0x12
    5868: 94000000     	bl	0x5868 <__ZNSt3__112basic_stringIcNS_11char_traitsIcEENS_9allocatorIcEEEC2INS_17basic_string_viewIcS2_EELi0EEERKT_+0x24>
    586c: f85f03a8     	ldur	x8, [x29, #-0x10]
    5870: 3dc00100     	ldr	q0, [x8]
    5874: 910083e0     	add	x0, sp, #0x20
    5878: f90007e0     	str	x0, [sp, #0x8]
    587c: 3d800be0     	str	q0, [sp, #0x20]
    5880: 94000000     	bl	0x5880 <__ZNSt3__112basic_stringIcNS_11char_traitsIcEENS_9allocatorIcEEEC2INS_17basic_string_viewIcS2_EELi0EEERKT_+0x3c>
    5884: aa0003e1     	mov	x1, x0
    5888: f94007e0     	ldr	x0, [sp, #0x8]
    588c: f9000be1     	str	x1, [sp, #0x10]
    5890: 94000000     	bl	0x5890 <__ZNSt3__112basic_stringIcNS_11char_traitsIcEENS_9allocatorIcEEEC2INS_17basic_string_viewIcS2_EELi0EEERKT_+0x4c>
    5894: f9400be1     	ldr	x1, [sp, #0x10]
    5898: aa0003e2     	mov	x2, x0
    589c: f9400fe0     	ldr	x0, [sp, #0x18]
    58a0: 94000000     	bl	0x58a0 <__ZNSt3__112basic_stringIcNS_11char_traitsIcEENS_9allocatorIcEEEC2INS_17basic_string_viewIcS2_EELi0EEERKT_+0x5c>
    58a4: f9400fe0     	ldr	x0, [sp, #0x18]
    58a8: a9457bfd     	ldp	x29, x30, [sp, #0x50]
    58ac: 910183ff     	add	sp, sp, #0x60
    58b0: d65f03c0     	ret

00000000000058b4 <__ZNSt3__117__compressed_pairINS_12basic_stringIcNS_11char_traitsIcEENS_9allocatorIcEEE5__repES5_EC1B8ne180100INS_18__default_init_tagESA_EEOT_OT0_>:
    58b4: d100c3ff     	sub	sp, sp, #0x30
    58b8: a9027bfd     	stp	x29, x30, [sp, #0x20]
    58bc: 910083fd     	add	x29, sp, #0x20
    58c0: f81f83a0     	stur	x0, [x29, #-0x8]
    58c4: f9000be1     	str	x1, [sp, #0x10]
    58c8: f90007e2     	str	x2, [sp, #0x8]
    58cc: f85f83a0     	ldur	x0, [x29, #-0x8]
    58d0: f90003e0     	str	x0, [sp]
    58d4: f9400be1     	ldr	x1, [sp, #0x10]
    58d8: f94007e2     	ldr	x2, [sp, #0x8]
    58dc: 94000000     	bl	0x58dc <__ZNSt3__117__compressed_pairINS_12basic_stringIcNS_11char_traitsIcEENS_9allocatorIcEEE5__repES5_EC1B8ne180100INS_18__default_init_tagESA_EEOT_OT0_+0x28>
    58e0: f94003e0     	ldr	x0, [sp]
    58e4: a9427bfd     	ldp	x29, x30, [sp, #0x20]
    58e8: 9100c3ff     	add	sp, sp, #0x30
    58ec: d65f03c0     	ret

00000000000058f0 <__ZNKSt3__117basic_string_viewIcNS_11char_traitsIcEEE4dataB8ne180100Ev>:
    58f0: d10043ff     	sub	sp, sp, #0x10
    58f4: f90007e0     	str	x0, [sp, #0x8]
    58f8: f94007e8     	ldr	x8, [sp, #0x8]
    58fc: f9400100     	ldr	x0, [x8]
    5900: 910043ff     	add	sp, sp, #0x10
    5904: d65f03c0     	ret

0000000000005908 <__ZNKSt3__117basic_string_viewIcNS_11char_traitsIcEEE4sizeB8ne180100Ev>:
    5908: d10043ff     	sub	sp, sp, #0x10
    590c: f90007e0     	str	x0, [sp, #0x8]
    5910: f94007e8     	ldr	x8, [sp, #0x8]
    5914: f9400500     	ldr	x0, [x8, #0x8]
    5918: 910043ff     	add	sp, sp, #0x10
    591c: d65f03c0     	ret

0000000000005920 <__ZNSt3__117__compressed_pairINS_12basic_stringIcNS_11char_traitsIcEENS_9allocatorIcEEE5__repES5_EC2B8ne180100INS_18__default_init_tagESA_EEOT_OT0_>:
    5920: d10103ff     	sub	sp, sp, #0x40
    5924: a9037bfd     	stp	x29, x30, [sp, #0x30]
    5928: 9100c3fd     	add	x29, sp, #0x30
    592c: f81f83a0     	stur	x0, [x29, #-0x8]
    5930: f81f03a1     	stur	x1, [x29, #-0x10]
    5934: f9000fe2     	str	x2, [sp, #0x18]
    5938: f85f83a0     	ldur	x0, [x29, #-0x8]
    593c: f90007e0     	str	x0, [sp, #0x8]
    5940: 94000000     	bl	0x5940 <__ZNSt3__117__compressed_pairINS_12basic_stringIcNS_11char_traitsIcEENS_9allocatorIcEEE5__repES5_EC2B8ne180100INS_18__default_init_tagESA_EEOT_OT0_+0x20>
    5944: f94007e0     	ldr	x0, [sp, #0x8]
    5948: 94000000     	bl	0x5948 <__ZNSt3__117__compressed_pairINS_12basic_stringIcNS_11char_traitsIcEENS_9allocatorIcEEE5__repES5_EC2B8ne180100INS_18__default_init_tagESA_EEOT_OT0_+0x28>
    594c: f94007e0     	ldr	x0, [sp, #0x8]
    5950: a9437bfd     	ldp	x29, x30, [sp, #0x30]
    5954: 910103ff     	add	sp, sp, #0x40
    5958: d65f03c0     	ret

000000000000595c <__ZNSt3__122__compressed_pair_elemINS_12basic_stringIcNS_11char_traitsIcEENS_9allocatorIcEEE5__repELi0ELb0EEC2B8ne180100ENS_18__default_init_tagE>:
    595c: d10043ff     	sub	sp, sp, #0x10
    5960: f90003e0     	str	x0, [sp]
    5964: f94003e0     	ldr	x0, [sp]
    5968: 910043ff     	add	sp, sp, #0x10
    596c: d65f03c0     	ret

0000000000005970 <__ZNSt3__122__compressed_pair_elemINS_9allocatorIcEELi1ELb1EEC2B8ne180100ENS_18__default_init_tagE>:
    5970: d100c3ff     	sub	sp, sp, #0x30
    5974: a9027bfd     	stp	x29, x30, [sp, #0x20]
    5978: 910083fd     	add	x29, sp, #0x20
    597c: f9000be0     	str	x0, [sp, #0x10]
    5980: f9400be0     	ldr	x0, [sp, #0x10]
    5984: f90007e0     	str	x0, [sp, #0x8]
    5988: 94000000     	bl	0x5988 <__ZNSt3__122__compressed_pair_elemINS_9allocatorIcEELi1ELb1EEC2B8ne180100ENS_18__default_init_tagE+0x18>
    598c: f94007e0     	ldr	x0, [sp, #0x8]
    5990: a9427bfd     	ldp	x29, x30, [sp, #0x20]
    5994: 9100c3ff     	add	sp, sp, #0x30
    5998: d65f03c0     	ret

000000000000599c <__ZNSt3__19allocatorIcEC2B8ne180100Ev>:
    599c: d10083ff     	sub	sp, sp, #0x20
    59a0: a9017bfd     	stp	x29, x30, [sp, #0x10]
    59a4: 910043fd     	add	x29, sp, #0x10
    59a8: f90007e0     	str	x0, [sp, #0x8]
    59ac: f94007e0     	ldr	x0, [sp, #0x8]
    59b0: f90003e0     	str	x0, [sp]
    59b4: 94000000     	bl	0x59b4 <__ZNSt3__19allocatorIcEC2B8ne180100Ev+0x18>
    59b8: f94003e0     	ldr	x0, [sp]
    59bc: a9417bfd     	ldp	x29, x30, [sp, #0x10]
    59c0: 910083ff     	add	sp, sp, #0x20
    59c4: d65f03c0     	ret

00000000000059c8 <__ZNSt3__116__non_trivial_ifILb1ENS_9allocatorIcEEEC2B8ne180100Ev>:
    59c8: d10043ff     	sub	sp, sp, #0x10
    59cc: f90007e0     	str	x0, [sp, #0x8]
    59d0: f94007e0     	ldr	x0, [sp, #0x8]
    59d4: 910043ff     	add	sp, sp, #0x10
    59d8: d65f03c0     	ret

00000000000059dc <__ZNSt3__14__fs10filesystem4pathC2B8ne180100EONS_12basic_stringIcNS_11char_traitsIcEENS_9allocatorIcEEEENS2_6formatE>:
    59dc: d100c3ff     	sub	sp, sp, #0x30
    59e0: a9027bfd     	stp	x29, x30, [sp, #0x20]
    59e4: 910083fd     	add	x29, sp, #0x20
    59e8: f81f83a0     	stur	x0, [x29, #-0x8]
    59ec: f9000be1     	str	x1, [sp, #0x10]
    59f0: 39003fe2     	strb	w2, [sp, #0xf]
    59f4: f85f83a0     	ldur	x0, [x29, #-0x8]
    59f8: f90003e0     	str	x0, [sp]
    59fc: f9400be1     	ldr	x1, [sp, #0x10]
    5a00: 94000000     	bl	0x5a00 <__ZNSt3__14__fs10filesystem4pathC2B8ne180100EONS_12basic_stringIcNS_11char_traitsIcEENS_9allocatorIcEEEENS2_6formatE+0x24>
    5a04: f94003e0     	ldr	x0, [sp]
    5a08: a9427bfd     	ldp	x29, x30, [sp, #0x20]
    5a0c: 9100c3ff     	add	sp, sp, #0x30
    5a10: d65f03c0     	ret

0000000000005a14 <__ZNSt3__112basic_stringIcNS_11char_traitsIcEENS_9allocatorIcEEEC1B8ne180100EOS5_>:
    5a14: d100c3ff     	sub	sp, sp, #0x30
    5a18: a9027bfd     	stp	x29, x30, [sp, #0x20]
    5a1c: 910083fd     	add	x29, sp, #0x20
    5a20: f81f83a0     	stur	x0, [x29, #-0x8]
    5a24: f9000be1     	str	x1, [sp, #0x10]
    5a28: f85f83a0     	ldur	x0, [x29, #-0x8]
    5a2c: f90007e0     	str	x0, [sp, #0x8]
    5a30: f9400be1     	ldr	x1, [sp, #0x10]
    5a34: 94000000     	bl	0x5a34 <__ZNSt3__112basic_stringIcNS_11char_traitsIcEENS_9allocatorIcEEEC1B8ne180100EOS5_+0x20>
    5a38: f94007e0     	ldr	x0, [sp, #0x8]
    5a3c: a9427bfd     	ldp	x29, x30, [sp, #0x20]
    5a40: 9100c3ff     	add	sp, sp, #0x30
    5a44: d65f03c0     	ret

0000000000005a48 <__ZNSt3__112basic_stringIcNS_11char_traitsIcEENS_9allocatorIcEEEC2B8ne180100EOS5_>:
    5a48: d10183ff     	sub	sp, sp, #0x60
    5a4c: a9057bfd     	stp	x29, x30, [sp, #0x50]
    5a50: 910143fd     	add	x29, sp, #0x50
    5a54: f81f03a0     	stur	x0, [x29, #-0x10]
    5a58: f81e83a1     	stur	x1, [x29, #-0x18]
    5a5c: f85f03a8     	ldur	x8, [x29, #-0x10]
    5a60: f90007e8     	str	x8, [sp, #0x8]
    5a64: f81f83a8     	stur	x8, [x29, #-0x8]
    5a68: f85e83a1     	ldur	x1, [x29, #-0x18]
    5a6c: d10067a0     	sub	x0, x29, #0x19
    5a70: 94000000     	bl	0x5a70 <__ZNSt3__112basic_stringIcNS_11char_traitsIcEENS_9allocatorIcEEEC2B8ne180100EOS5_+0x28>
    5a74: f9000be0     	str	x0, [sp, #0x10]
    5a78: 14000001     	b	0x5a7c <__ZNSt3__112basic_stringIcNS_11char_traitsIcEENS_9allocatorIcEEEC2B8ne180100EOS5_+0x34>
    5a7c: f94007e9     	ldr	x9, [sp, #0x8]
    5a80: f9400be8     	ldr	x8, [sp, #0x10]
    5a84: 3dc00100     	ldr	q0, [x8]
    5a88: 3d800120     	str	q0, [x9]
    5a8c: f9400908     	ldr	x8, [x8, #0x10]
    5a90: f9000928     	str	x8, [x9, #0x10]
    5a94: f9000fff     	str	xzr, [sp, #0x18]
    5a98: f90013ff     	str	xzr, [sp, #0x20]
    5a9c: f90017ff     	str	xzr, [sp, #0x28]
    5aa0: f85e83a0     	ldur	x0, [x29, #-0x18]
    5aa4: 94000000     	bl	0x5aa4 <__ZNSt3__112basic_stringIcNS_11char_traitsIcEENS_9allocatorIcEEEC2B8ne180100EOS5_+0x5c>
    5aa8: 3cc183e0     	ldur	q0, [sp, #0x18]
    5aac: 3d800000     	str	q0, [x0]
    5ab0: f94017e8     	ldr	x8, [sp, #0x28]
    5ab4: f9000808     	str	x8, [x0, #0x10]
    5ab8: f85e83a0     	ldur	x0, [x29, #-0x18]
    5abc: d2800001     	mov	x1, #0x0                ; =0
    5ac0: 94000000     	bl	0x5ac0 <__ZNSt3__112basic_stringIcNS_11char_traitsIcEENS_9allocatorIcEEEC2B8ne180100EOS5_+0x78>
    5ac4: f94007e0     	ldr	x0, [sp, #0x8]
    5ac8: 94000000     	bl	0x5ac8 <__ZNSt3__112basic_stringIcNS_11char_traitsIcEENS_9allocatorIcEEEC2B8ne180100EOS5_+0x80>
    5acc: 37000100     	tbnz	w0, #0x0, 0x5aec <__ZNSt3__112basic_stringIcNS_11char_traitsIcEENS_9allocatorIcEEEC2B8ne180100EOS5_+0xa4>
    5ad0: 14000001     	b	0x5ad4 <__ZNSt3__112basic_stringIcNS_11char_traitsIcEENS_9allocatorIcEEEC2B8ne180100EOS5_+0x8c>
    5ad4: f94007e0     	ldr	x0, [sp, #0x8]
    5ad8: 94000000     	bl	0x5ad8 <__ZNSt3__112basic_stringIcNS_11char_traitsIcEENS_9allocatorIcEEEC2B8ne180100EOS5_+0x90>
    5adc: aa0003e1     	mov	x1, x0
    5ae0: f94007e0     	ldr	x0, [sp, #0x8]
    5ae4: 94000000     	bl	0x5ae4 <__ZNSt3__112basic_stringIcNS_11char_traitsIcEENS_9allocatorIcEEEC2B8ne180100EOS5_+0x9c>
    5ae8: 14000001     	b	0x5aec <__ZNSt3__112basic_stringIcNS_11char_traitsIcEENS_9allocatorIcEEEC2B8ne180100EOS5_+0xa4>
    5aec: f85f83a0     	ldur	x0, [x29, #-0x8]
    5af0: a9457bfd     	ldp	x29, x30, [sp, #0x50]
    5af4: 910183ff     	add	sp, sp, #0x60
    5af8: d65f03c0     	ret
    5afc: 94000000     	bl	0x5afc <__ZNSt3__112basic_stringIcNS_11char_traitsIcEENS_9allocatorIcEEEC2B8ne180100EOS5_+0xb4>

0000000000005b00 <__ZZNSt3__112basic_stringIcNS_11char_traitsIcEENS_9allocatorIcEEEC1B8ne180100EOS5_ENKUlRS5_E_clES7_>:
    5b00: d10083ff     	sub	sp, sp, #0x20
    5b04: a9017bfd     	stp	x29, x30, [sp, #0x10]
    5b08: 910043fd     	add	x29, sp, #0x10
    5b0c: f90007e0     	str	x0, [sp, #0x8]
    5b10: f90003e1     	str	x1, [sp]
    5b14: f94003e0     	ldr	x0, [sp]
    5b18: 94000000     	bl	0x5b18 <__ZZNSt3__112basic_stringIcNS_11char_traitsIcEENS_9allocatorIcEEEC1B8ne180100EOS5_ENKUlRS5_E_clES7_+0x18>
    5b1c: 370000a0     	tbnz	w0, #0x0, 0x5b30 <__ZZNSt3__112basic_stringIcNS_11char_traitsIcEENS_9allocatorIcEEEC1B8ne180100EOS5_ENKUlRS5_E_clES7_+0x30>
    5b20: 14000001     	b	0x5b24 <__ZZNSt3__112basic_stringIcNS_11char_traitsIcEENS_9allocatorIcEEEC1B8ne180100EOS5_ENKUlRS5_E_clES7_+0x24>
    5b24: f94003e0     	ldr	x0, [sp]
    5b28: 94000000     	bl	0x5b28 <__ZZNSt3__112basic_stringIcNS_11char_traitsIcEENS_9allocatorIcEEEC1B8ne180100EOS5_ENKUlRS5_E_clES7_+0x28>
    5b2c: 14000001     	b	0x5b30 <__ZZNSt3__112basic_stringIcNS_11char_traitsIcEENS_9allocatorIcEEEC1B8ne180100EOS5_ENKUlRS5_E_clES7_+0x30>
    5b30: f94003e0     	ldr	x0, [sp]
    5b34: a9417bfd     	ldp	x29, x30, [sp, #0x10]
    5b38: 910083ff     	add	sp, sp, #0x20
    5b3c: d65f03c0     	ret

0000000000005b40 <__ZNSt3__117__compressed_pairINS_12basic_stringIcNS_11char_traitsIcEENS_9allocatorIcEEE5__repES5_E5firstB8ne180100Ev>:
    5b40: d10083ff     	sub	sp, sp, #0x20
    5b44: a9017bfd     	stp	x29, x30, [sp, #0x10]
    5b48: 910043fd     	add	x29, sp, #0x10
    5b4c: f90007e0     	str	x0, [sp, #0x8]
    5b50: f94007e0     	ldr	x0, [sp, #0x8]
    5b54: 94000000     	bl	0x5b54 <__ZNSt3__117__compressed_pairINS_12basic_stringIcNS_11char_traitsIcEENS_9allocatorIcEEE5__repES5_E5firstB8ne180100Ev+0x14>
    5b58: a9417bfd     	ldp	x29, x30, [sp, #0x10]
    5b5c: 910083ff     	add	sp, sp, #0x20
    5b60: d65f03c0     	ret

0000000000005b64 <__ZNKSt3__112basic_stringIcNS_11char_traitsIcEENS_9allocatorIcEEE14__annotate_newB8ne180100Em>:
    5b64: d10043ff     	sub	sp, sp, #0x10
    5b68: f90007e0     	str	x0, [sp, #0x8]
    5b6c: f90003e1     	str	x1, [sp]
    5b70: 910043ff     	add	sp, sp, #0x10
    5b74: d65f03c0     	ret

0000000000005b78 <__ZNKSt3__112basic_stringIcNS_11char_traitsIcEENS_9allocatorIcEEE9__is_longB8ne180100Ev>:
    5b78: d10083ff     	sub	sp, sp, #0x20
    5b7c: a9017bfd     	stp	x29, x30, [sp, #0x10]
    5b80: 910043fd     	add	x29, sp, #0x10
    5b84: f90007e0     	str	x0, [sp, #0x8]
    5b88: f94007e0     	ldr	x0, [sp, #0x8]
    5b8c: 94000000     	bl	0x5b8c <__ZNKSt3__112basic_stringIcNS_11char_traitsIcEENS_9allocatorIcEEE9__is_longB8ne180100Ev+0x14>
    5b90: 39405c08     	ldrb	w8, [x0, #0x17]
    5b94: 53077d08     	lsr	w8, w8, #7
    5b98: 72001d08     	ands	w8, w8, #0xff
    5b9c: 1a9f07e8     	cset	w8, ne
    5ba0: 12000100     	and	w0, w8, #0x1
    5ba4: a9417bfd     	ldp	x29, x30, [sp, #0x10]
    5ba8: 910083ff     	add	sp, sp, #0x20
    5bac: d65f03c0     	ret

0000000000005bb0 <__ZNKSt3__112basic_stringIcNS_11char_traitsIcEENS_9allocatorIcEEE4sizeB8ne180100Ev>:
    5bb0: d100c3ff     	sub	sp, sp, #0x30
    5bb4: a9027bfd     	stp	x29, x30, [sp, #0x20]
    5bb8: 910083fd     	add	x29, sp, #0x20
    5bbc: f81f83a0     	stur	x0, [x29, #-0x8]
    5bc0: f85f83a0     	ldur	x0, [x29, #-0x8]
    5bc4: f9000be0     	str	x0, [sp, #0x10]
    5bc8: 94000000     	bl	0x5bc8 <__ZNKSt3__112basic_stringIcNS_11char_traitsIcEENS_9allocatorIcEEE4sizeB8ne180100Ev+0x18>
    5bcc: 360000c0     	tbz	w0, #0x0, 0x5be4 <__ZNKSt3__112basic_stringIcNS_11char_traitsIcEENS_9allocatorIcEEE4sizeB8ne180100Ev+0x34>
    5bd0: 14000001     	b	0x5bd4 <__ZNKSt3__112basic_stringIcNS_11char_traitsIcEENS_9allocatorIcEEE4sizeB8ne180100Ev+0x24>
    5bd4: f9400be0     	ldr	x0, [sp, #0x10]
    5bd8: 94000000     	bl	0x5bd8 <__ZNKSt3__112basic_stringIcNS_11char_traitsIcEENS_9allocatorIcEEE4sizeB8ne180100Ev+0x28>
    5bdc: f90007e0     	str	x0, [sp, #0x8]
    5be0: 14000005     	b	0x5bf4 <__ZNKSt3__112basic_stringIcNS_11char_traitsIcEENS_9allocatorIcEEE4sizeB8ne180100Ev+0x44>
    5be4: f9400be0     	ldr	x0, [sp, #0x10]
    5be8: 94000000     	bl	0x5be8 <__ZNKSt3__112basic_stringIcNS_11char_traitsIcEENS_9allocatorIcEEE4sizeB8ne180100Ev+0x38>
    5bec: f90007e0     	str	x0, [sp, #0x8]
    5bf0: 14000001     	b	0x5bf4 <__ZNKSt3__112basic_stringIcNS_11char_traitsIcEENS_9allocatorIcEEE4sizeB8ne180100Ev+0x44>
    5bf4: f94007e0     	ldr	x0, [sp, #0x8]
    5bf8: a9427bfd     	ldp	x29, x30, [sp, #0x20]
    5bfc: 9100c3ff     	add	sp, sp, #0x30
    5c00: d65f03c0     	ret

0000000000005c04 <__ZNKSt3__112basic_stringIcNS_11char_traitsIcEENS_9allocatorIcEEE17__annotate_deleteB8ne180100Ev>:
    5c04: d10043ff     	sub	sp, sp, #0x10
    5c08: f90007e0     	str	x0, [sp, #0x8]
    5c0c: 910043ff     	add	sp, sp, #0x10
    5c10: d65f03c0     	ret

0000000000005c14 <__ZNSt3__122__compressed_pair_elemINS_12basic_stringIcNS_11char_traitsIcEENS_9allocatorIcEEE5__repELi0ELb0EE5__getB8ne180100Ev>:
    5c14: d10043ff     	sub	sp, sp, #0x10
    5c18: f90007e0     	str	x0, [sp, #0x8]
    5c1c: f94007e0     	ldr	x0, [sp, #0x8]
    5c20: 910043ff     	add	sp, sp, #0x10
    5c24: d65f03c0     	ret

0000000000005c28 <__ZNKSt3__117__compressed_pairINS_12basic_stringIcNS_11char_traitsIcEENS_9allocatorIcEEE5__repES5_E5firstB8ne180100Ev>:
    5c28: d10083ff     	sub	sp, sp, #0x20
    5c2c: a9017bfd     	stp	x29, x30, [sp, #0x10]
    5c30: 910043fd     	add	x29, sp, #0x10
    5c34: f90007e0     	str	x0, [sp, #0x8]
    5c38: f94007e0     	ldr	x0, [sp, #0x8]
    5c3c: 94000000     	bl	0x5c3c <__ZNKSt3__117__compressed_pairINS_12basic_stringIcNS_11char_traitsIcEENS_9allocatorIcEEE5__repES5_E5firstB8ne180100Ev+0x14>
    5c40: a9417bfd     	ldp	x29, x30, [sp, #0x10]
    5c44: 910083ff     	add	sp, sp, #0x20
    5c48: d65f03c0     	ret

0000000000005c4c <__ZNKSt3__122__compressed_pair_elemINS_12basic_stringIcNS_11char_traitsIcEENS_9allocatorIcEEE5__repELi0ELb0EE5__getB8ne180100Ev>:
    5c4c: d10043ff     	sub	sp, sp, #0x10
    5c50: f90007e0     	str	x0, [sp, #0x8]
    5c54: f94007e0     	ldr	x0, [sp, #0x8]
    5c58: 910043ff     	add	sp, sp, #0x10
    5c5c: d65f03c0     	ret

0000000000005c60 <__ZNKSt3__112basic_stringIcNS_11char_traitsIcEENS_9allocatorIcEEE15__get_long_sizeB8ne180100Ev>:
    5c60: d10083ff     	sub	sp, sp, #0x20
    5c64: a9017bfd     	stp	x29, x30, [sp, #0x10]
    5c68: 910043fd     	add	x29, sp, #0x10
    5c6c: f90007e0     	str	x0, [sp, #0x8]
    5c70: f94007e0     	ldr	x0, [sp, #0x8]
    5c74: 94000000     	bl	0x5c74 <__ZNKSt3__112basic_stringIcNS_11char_traitsIcEENS_9allocatorIcEEE15__get_long_sizeB8ne180100Ev+0x14>
    5c78: f9400400     	ldr	x0, [x0, #0x8]
    5c7c: a9417bfd     	ldp	x29, x30, [sp, #0x10]
    5c80: 910083ff     	add	sp, sp, #0x20
    5c84: d65f03c0     	ret

0000000000005c88 <__ZNKSt3__112basic_stringIcNS_11char_traitsIcEENS_9allocatorIcEEE16__get_short_sizeB8ne180100Ev>:
    5c88: d10083ff     	sub	sp, sp, #0x20
    5c8c: a9017bfd     	stp	x29, x30, [sp, #0x10]
    5c90: 910043fd     	add	x29, sp, #0x10
    5c94: f90007e0     	str	x0, [sp, #0x8]
    5c98: f94007e0     	ldr	x0, [sp, #0x8]
    5c9c: 94000000     	bl	0x5c9c <__ZNKSt3__112basic_stringIcNS_11char_traitsIcEENS_9allocatorIcEEE16__get_short_sizeB8ne180100Ev+0x14>
    5ca0: 39405c08     	ldrb	w8, [x0, #0x17]
    5ca4: 12001909     	and	w9, w8, #0x7f
    5ca8: aa0903e8     	mov	x8, x9
    5cac: 92401d00     	and	x0, x8, #0xff
    5cb0: a9417bfd     	ldp	x29, x30, [sp, #0x10]
    5cb4: 910083ff     	add	sp, sp, #0x20
    5cb8: d65f03c0     	ret

0000000000005cbc <__ZNSt3__14__fs10filesystem15is_regular_fileB8ne180100ENS1_11file_statusE>:
    5cbc: d10083ff     	sub	sp, sp, #0x20
    5cc0: a9017bfd     	stp	x29, x30, [sp, #0x10]
    5cc4: 910043fd     	add	x29, sp, #0x10
    5cc8: aa0003e8     	mov	x8, x0
    5ccc: f90007e8     	str	x8, [sp, #0x8]
    5cd0: 94000000     	bl	0x5cd0 <__ZNSt3__14__fs10filesystem15is_regular_fileB8ne180100ENS1_11file_statusE+0x14>
    5cd4: 12001c08     	and	w8, w0, #0xff
    5cd8: 71000508     	subs	w8, w8, #0x1
    5cdc: 1a9f17e8     	cset	w8, eq
    5ce0: 12000100     	and	w0, w8, #0x1
    5ce4: a9417bfd     	ldp	x29, x30, [sp, #0x10]
    5ce8: 910083ff     	add	sp, sp, #0x20
    5cec: d65f03c0     	ret

0000000000005cf0 <__ZNSt3__14__fs10filesystem11file_statusD1B8ne180100Ev>:
    5cf0: d10083ff     	sub	sp, sp, #0x20
    5cf4: a9017bfd     	stp	x29, x30, [sp, #0x10]
    5cf8: 910043fd     	add	x29, sp, #0x10
    5cfc: f90007e0     	str	x0, [sp, #0x8]
    5d00: f94007e0     	ldr	x0, [sp, #0x8]
    5d04: f90003e0     	str	x0, [sp]
    5d08: 94000000     	bl	0x5d08 <__ZNSt3__14__fs10filesystem11file_statusD1B8ne180100Ev+0x18>
    5d0c: f94003e0     	ldr	x0, [sp]
    5d10: a9417bfd     	ldp	x29, x30, [sp, #0x10]
    5d14: 910083ff     	add	sp, sp, #0x20
    5d18: d65f03c0     	ret

0000000000005d1c <__ZNKSt3__14__fs10filesystem11file_status4typeB8ne180100Ev>:
    5d1c: d10043ff     	sub	sp, sp, #0x10
    5d20: f90007e0     	str	x0, [sp, #0x8]
    5d24: f94007e8     	ldr	x8, [sp, #0x8]
    5d28: 39c00100     	ldrsb	w0, [x8]
    5d2c: 910043ff     	add	sp, sp, #0x10
    5d30: d65f03c0     	ret

0000000000005d34 <__ZNSt3__14__fs10filesystem11file_statusD2B8ne180100Ev>:
    5d34: d10043ff     	sub	sp, sp, #0x10
    5d38: f90007e0     	str	x0, [sp, #0x8]
    5d3c: f94007e0     	ldr	x0, [sp, #0x8]
    5d40: 910043ff     	add	sp, sp, #0x10
    5d44: d65f03c0     	ret

0000000000005d48 <__ZNSt3__14listINS_12basic_stringIcNS_11char_traitsIcEENS_9allocatorIcEEEENS4_IS6_EEED2Ev>:
    5d48: d10083ff     	sub	sp, sp, #0x20
    5d4c: a9017bfd     	stp	x29, x30, [sp, #0x10]
    5d50: 910043fd     	add	x29, sp, #0x10
    5d54: f90007e0     	str	x0, [sp, #0x8]
    5d58: f94007e0     	ldr	x0, [sp, #0x8]
    5d5c: f90003e0     	str	x0, [sp]
    5d60: 94000000     	bl	0x5d60 <__ZNSt3__14listINS_12basic_stringIcNS_11char_traitsIcEENS_9allocatorIcEEEENS4_IS6_EEED2Ev+0x18>
    5d64: f94003e0     	ldr	x0, [sp]
    5d68: a9417bfd     	ldp	x29, x30, [sp, #0x10]
    5d6c: 910083ff     	add	sp, sp, #0x20
    5d70: d65f03c0     	ret

0000000000005d74 <__ZNSt3__110__list_impINS_12basic_stringIcNS_11char_traitsIcEENS_9allocatorIcEEEENS4_IS6_EEED2Ev>:
    5d74: d10083ff     	sub	sp, sp, #0x20
    5d78: a9017bfd     	stp	x29, x30, [sp, #0x10]
    5d7c: 910043fd     	add	x29, sp, #0x10
    5d80: f90007e0     	str	x0, [sp, #0x8]
    5d84: f94007e0     	ldr	x0, [sp, #0x8]
    5d88: f90003e0     	str	x0, [sp]
    5d8c: 94000000     	bl	0x5d8c <__ZNSt3__110__list_impINS_12basic_stringIcNS_11char_traitsIcEENS_9allocatorIcEEEENS4_IS6_EEED2Ev+0x18>
    5d90: f94003e0     	ldr	x0, [sp]
    5d94: a9417bfd     	ldp	x29, x30, [sp, #0x10]
    5d98: 910083ff     	add	sp, sp, #0x20
    5d9c: d65f03c0     	ret

0000000000005da0 <__ZNSt3__110__list_impINS_12basic_stringIcNS_11char_traitsIcEENS_9allocatorIcEEEENS4_IS6_EEE5clearEv>:
    5da0: d10103ff     	sub	sp, sp, #0x40
    5da4: a9037bfd     	stp	x29, x30, [sp, #0x30]
    5da8: 9100c3fd     	add	x29, sp, #0x30
    5dac: f81f83a0     	stur	x0, [x29, #-0x8]
    5db0: f85f83a0     	ldur	x0, [x29, #-0x8]
    5db4: f90007e0     	str	x0, [sp, #0x8]
    5db8: 94000000     	bl	0x5db8 <__ZNSt3__110__list_impINS_12basic_stringIcNS_11char_traitsIcEENS_9allocatorIcEEEENS4_IS6_EEE5clearEv+0x18>
    5dbc: 37000480     	tbnz	w0, #0x0, 0x5e4c <__ZNSt3__110__list_impINS_12basic_stringIcNS_11char_traitsIcEENS_9allocatorIcEEEENS4_IS6_EEE5clearEv+0xac>
    5dc0: 14000001     	b	0x5dc4 <__ZNSt3__110__list_impINS_12basic_stringIcNS_11char_traitsIcEENS_9allocatorIcEEEENS4_IS6_EEE5clearEv+0x24>
    5dc4: f94007e0     	ldr	x0, [sp, #0x8]
    5dc8: f9400408     	ldr	x8, [x0, #0x8]
    5dcc: f81f03a8     	stur	x8, [x29, #-0x10]
    5dd0: 94000000     	bl	0x5dd0 <__ZNSt3__110__list_impINS_12basic_stringIcNS_11char_traitsIcEENS_9allocatorIcEEEENS4_IS6_EEE5clearEv+0x30>
    5dd4: f9000fe0     	str	x0, [sp, #0x18]
    5dd8: f85f03a0     	ldur	x0, [x29, #-0x10]
    5ddc: f9400fe8     	ldr	x8, [sp, #0x18]
    5de0: f9400101     	ldr	x1, [x8]
    5de4: 94000000     	bl	0x5de4 <__ZNSt3__110__list_impINS_12basic_stringIcNS_11char_traitsIcEENS_9allocatorIcEEEENS4_IS6_EEE5clearEv+0x44>
    5de8: f94007e0     	ldr	x0, [sp, #0x8]
    5dec: 94000000     	bl	0x5dec <__ZNSt3__110__list_impINS_12basic_stringIcNS_11char_traitsIcEENS_9allocatorIcEEEENS4_IS6_EEE5clearEv+0x4c>
    5df0: f900001f     	str	xzr, [x0]
    5df4: 14000001     	b	0x5df8 <__ZNSt3__110__list_impINS_12basic_stringIcNS_11char_traitsIcEENS_9allocatorIcEEEENS4_IS6_EEE5clearEv+0x58>
    5df8: f85f03a8     	ldur	x8, [x29, #-0x10]
    5dfc: f9400fe9     	ldr	x9, [sp, #0x18]
    5e00: eb090108     	subs	x8, x8, x9
    5e04: 1a9f17e8     	cset	w8, eq
    5e08: 37000208     	tbnz	w8, #0x0, 0x5e48 <__ZNSt3__110__list_impINS_12basic_stringIcNS_11char_traitsIcEENS_9allocatorIcEEEENS4_IS6_EEE5clearEv+0xa8>
    5e0c: 14000001     	b	0x5e10 <__ZNSt3__110__list_impINS_12basic_stringIcNS_11char_traitsIcEENS_9allocatorIcEEEENS4_IS6_EEE5clearEv+0x70>
    5e10: f85f03a0     	ldur	x0, [x29, #-0x10]
    5e14: 94000000     	bl	0x5e14 <__ZNSt3__110__list_impINS_12basic_stringIcNS_11char_traitsIcEENS_9allocatorIcEEEENS4_IS6_EEE5clearEv+0x74>
    5e18: f90003e0     	str	x0, [sp]
    5e1c: 14000001     	b	0x5e20 <__ZNSt3__110__list_impINS_12basic_stringIcNS_11char_traitsIcEENS_9allocatorIcEEEENS4_IS6_EEE5clearEv+0x80>
    5e20: f94007e0     	ldr	x0, [sp, #0x8]
    5e24: f94003e8     	ldr	x8, [sp]
    5e28: f9000be8     	str	x8, [sp, #0x10]
    5e2c: f85f03a8     	ldur	x8, [x29, #-0x10]
    5e30: f9400508     	ldr	x8, [x8, #0x8]
    5e34: f81f03a8     	stur	x8, [x29, #-0x10]
    5e38: f9400be1     	ldr	x1, [sp, #0x10]
    5e3c: 94000000     	bl	0x5e3c <__ZNSt3__110__list_impINS_12basic_stringIcNS_11char_traitsIcEENS_9allocatorIcEEEENS4_IS6_EEE5clearEv+0x9c>
    5e40: 14000001     	b	0x5e44 <__ZNSt3__110__list_impINS_12basic_stringIcNS_11char_traitsIcEENS_9allocatorIcEEEENS4_IS6_EEE5clearEv+0xa4>
    5e44: 17ffffed     	b	0x5df8 <__ZNSt3__110__list_impINS_12basic_stringIcNS_11char_traitsIcEENS_9allocatorIcEEEENS4_IS6_EEE5clearEv+0x58>
    5e48: 14000001     	b	0x5e4c <__ZNSt3__110__list_impINS_12basic_stringIcNS_11char_traitsIcEENS_9allocatorIcEEEENS4_IS6_EEE5clearEv+0xac>
    5e4c: a9437bfd     	ldp	x29, x30, [sp, #0x30]
    5e50: 910103ff     	add	sp, sp, #0x40
    5e54: d65f03c0     	ret
    5e58: 94000000     	bl	0x5e58 <__ZNSt3__110__list_impINS_12basic_stringIcNS_11char_traitsIcEENS_9allocatorIcEEEENS4_IS6_EEE5clearEv+0xb8>

0000000000005e5c <__ZNKSt3__110__list_impINS_12basic_stringIcNS_11char_traitsIcEENS_9allocatorIcEEEENS4_IS6_EEE5emptyB8ne180100Ev>:
    5e5c: d10083ff     	sub	sp, sp, #0x20
    5e60: a9017bfd     	stp	x29, x30, [sp, #0x10]
    5e64: 910043fd     	add	x29, sp, #0x10
    5e68: f90007e0     	str	x0, [sp, #0x8]
    5e6c: f94007e0     	ldr	x0, [sp, #0x8]
    5e70: 94000000     	bl	0x5e70 <__ZNKSt3__110__list_impINS_12basic_stringIcNS_11char_traitsIcEENS_9allocatorIcEEEENS4_IS6_EEE5emptyB8ne180100Ev+0x14>
    5e74: f9400008     	ldr	x8, [x0]
    5e78: f1000108     	subs	x8, x8, #0x0
    5e7c: 1a9f17e8     	cset	w8, eq
    5e80: 12000100     	and	w0, w8, #0x1
    5e84: a9417bfd     	ldp	x29, x30, [sp, #0x10]
    5e88: 910083ff     	add	sp, sp, #0x20
    5e8c: d65f03c0     	ret

0000000000005e90 <__ZNKSt3__110__list_impINS_12basic_stringIcNS_11char_traitsIcEENS_9allocatorIcEEEENS4_IS6_EEE13__end_as_linkB8ne180100Ev>:
    5e90: d100c3ff     	sub	sp, sp, #0x30
    5e94: a9027bfd     	stp	x29, x30, [sp, #0x20]
    5e98: 910083fd     	add	x29, sp, #0x20
    5e9c: f81f83a0     	stur	x0, [x29, #-0x8]
    5ea0: f85f83a0     	ldur	x0, [x29, #-0x8]
    5ea4: 94000000     	bl	0x5ea4 <__ZNKSt3__110__list_impINS_12basic_stringIcNS_11char_traitsIcEENS_9allocatorIcEEEENS4_IS6_EEE13__end_as_linkB8ne180100Ev+0x14>
    5ea8: f9000be0     	str	x0, [sp, #0x10]
    5eac: 14000001     	b	0x5eb0 <__ZNKSt3__110__list_impINS_12basic_stringIcNS_11char_traitsIcEENS_9allocatorIcEEEENS4_IS6_EEE13__end_as_linkB8ne180100Ev+0x20>
    5eb0: f9400be0     	ldr	x0, [sp, #0x10]
    5eb4: 94000000     	bl	0x5eb4 <__ZNKSt3__110__list_impINS_12basic_stringIcNS_11char_traitsIcEENS_9allocatorIcEEEENS4_IS6_EEE13__end_as_linkB8ne180100Ev+0x24>
    5eb8: f90007e0     	str	x0, [sp, #0x8]
    5ebc: 14000001     	b	0x5ec0 <__ZNKSt3__110__list_impINS_12basic_stringIcNS_11char_traitsIcEENS_9allocatorIcEEEENS4_IS6_EEE13__end_as_linkB8ne180100Ev+0x30>
    5ec0: f94007e0     	ldr	x0, [sp, #0x8]
    5ec4: a9427bfd     	ldp	x29, x30, [sp, #0x20]
    5ec8: 9100c3ff     	add	sp, sp, #0x30
    5ecc: d65f03c0     	ret
    5ed0: 94000000     	bl	0x5ed0 <__ZNKSt3__110__list_impINS_12basic_stringIcNS_11char_traitsIcEENS_9allocatorIcEEEENS4_IS6_EEE13__end_as_linkB8ne180100Ev+0x40>

0000000000005ed4 <__ZNSt3__110__list_impINS_12basic_stringIcNS_11char_traitsIcEENS_9allocatorIcEEEENS4_IS6_EEE14__unlink_nodesEPNS_16__list_node_baseIS6_PvEESC_>:
    5ed4: d10043ff     	sub	sp, sp, #0x10
    5ed8: f90007e0     	str	x0, [sp, #0x8]
    5edc: f90003e1     	str	x1, [sp]
    5ee0: f94003e8     	ldr	x8, [sp]
    5ee4: f9400508     	ldr	x8, [x8, #0x8]
    5ee8: f94007e9     	ldr	x9, [sp, #0x8]
    5eec: f9400129     	ldr	x9, [x9]
    5ef0: f9000528     	str	x8, [x9, #0x8]
    5ef4: f94007e8     	ldr	x8, [sp, #0x8]
    5ef8: f9400108     	ldr	x8, [x8]
    5efc: f94003e9     	ldr	x9, [sp]
    5f00: f9400529     	ldr	x9, [x9, #0x8]
    5f04: f9000128     	str	x8, [x9]
    5f08: 910043ff     	add	sp, sp, #0x10
    5f0c: d65f03c0     	ret

0000000000005f10 <__ZNSt3__110__list_impINS_12basic_stringIcNS_11char_traitsIcEENS_9allocatorIcEEEENS4_IS6_EEE4__szB8ne180100Ev>:
    5f10: d10083ff     	sub	sp, sp, #0x20
    5f14: a9017bfd     	stp	x29, x30, [sp, #0x10]
    5f18: 910043fd     	add	x29, sp, #0x10
    5f1c: f90007e0     	str	x0, [sp, #0x8]
    5f20: f94007e8     	ldr	x8, [sp, #0x8]
    5f24: 91004100     	add	x0, x8, #0x10
    5f28: 94000000     	bl	0x5f28 <__ZNSt3__110__list_impINS_12basic_stringIcNS_11char_traitsIcEENS_9allocatorIcEEEENS4_IS6_EEE4__szB8ne180100Ev+0x18>
    5f2c: a9417bfd     	ldp	x29, x30, [sp, #0x10]
    5f30: 910083ff     	add	sp, sp, #0x20
    5f34: d65f03c0     	ret

0000000000005f38 <__ZNSt3__116__list_node_baseINS_12basic_stringIcNS_11char_traitsIcEENS_9allocatorIcEEEEPvE9__as_nodeB8ne180100Ev>:
    5f38: d10083ff     	sub	sp, sp, #0x20
    5f3c: a9017bfd     	stp	x29, x30, [sp, #0x10]
    5f40: 910043fd     	add	x29, sp, #0x10
    5f44: f90007e0     	str	x0, [sp, #0x8]
    5f48: f94007e0     	ldr	x0, [sp, #0x8]
    5f4c: 94000000     	bl	0x5f4c <__ZNSt3__116__list_node_baseINS_12basic_stringIcNS_11char_traitsIcEENS_9allocatorIcEEEEPvE9__as_nodeB8ne180100Ev+0x14>
    5f50: a9417bfd     	ldp	x29, x30, [sp, #0x10]
    5f54: 910083ff     	add	sp, sp, #0x20
    5f58: d65f03c0     	ret

0000000000005f5c <__ZNSt3__110__list_impINS_12basic_stringIcNS_11char_traitsIcEENS_9allocatorIcEEEENS4_IS6_EEE13__delete_nodeB8ne180100IJEEEvPNS_11__list_nodeIS6_PvEE>:
    5f5c: d100c3ff     	sub	sp, sp, #0x30
    5f60: a9027bfd     	stp	x29, x30, [sp, #0x20]
    5f64: 910083fd     	add	x29, sp, #0x20
    5f68: f81f83a0     	stur	x0, [x29, #-0x8]
    5f6c: f9000be1     	str	x1, [sp, #0x10]
    5f70: f85f83a0     	ldur	x0, [x29, #-0x8]
    5f74: 94000000     	bl	0x5f74 <__ZNSt3__110__list_impINS_12basic_stringIcNS_11char_traitsIcEENS_9allocatorIcEEEENS4_IS6_EEE13__delete_nodeB8ne180100IJEEEvPNS_11__list_nodeIS6_PvEE+0x18>
    5f78: f90007e0     	str	x0, [sp, #0x8]
    5f7c: f94007e8     	ldr	x8, [sp, #0x8]
    5f80: f90003e8     	str	x8, [sp]
    5f84: f9400be0     	ldr	x0, [sp, #0x10]
    5f88: 94000000     	bl	0x5f88 <__ZNSt3__110__list_impINS_12basic_stringIcNS_11char_traitsIcEENS_9allocatorIcEEEENS4_IS6_EEE13__delete_nodeB8ne180100IJEEEvPNS_11__list_nodeIS6_PvEE+0x2c>
    5f8c: aa0003e1     	mov	x1, x0
    5f90: f94003e0     	ldr	x0, [sp]
    5f94: 94000000     	bl	0x5f94 <__ZNSt3__110__list_impINS_12basic_stringIcNS_11char_traitsIcEENS_9allocatorIcEEEENS4_IS6_EEE13__delete_nodeB8ne180100IJEEEvPNS_11__list_nodeIS6_PvEE+0x38>
    5f98: f9400be0     	ldr	x0, [sp, #0x10]
    5f9c: 94000000     	bl	0x5f9c <__ZNSt3__110__list_impINS_12basic_stringIcNS_11char_traitsIcEENS_9allocatorIcEEEENS4_IS6_EEE13__delete_nodeB8ne180100IJEEEvPNS_11__list_nodeIS6_PvEE+0x40>
    5fa0: f94007e0     	ldr	x0, [sp, #0x8]
    5fa4: f9400be1     	ldr	x1, [sp, #0x10]
    5fa8: d2800022     	mov	x2, #0x1                ; =1
    5fac: 94000000     	bl	0x5fac <__ZNSt3__110__list_impINS_12basic_stringIcNS_11char_traitsIcEENS_9allocatorIcEEEENS4_IS6_EEE13__delete_nodeB8ne180100IJEEEvPNS_11__list_nodeIS6_PvEE+0x50>
    5fb0: a9427bfd     	ldp	x29, x30, [sp, #0x20]
    5fb4: 9100c3ff     	add	sp, sp, #0x30
    5fb8: d65f03c0     	ret

0000000000005fbc <__ZNKSt3__110__list_impINS_12basic_stringIcNS_11char_traitsIcEENS_9allocatorIcEEEENS4_IS6_EEE4__szB8ne180100Ev>:
    5fbc: d10083ff     	sub	sp, sp, #0x20
    5fc0: a9017bfd     	stp	x29, x30, [sp, #0x10]
    5fc4: 910043fd     	add	x29, sp, #0x10
    5fc8: f90007e0     	str	x0, [sp, #0x8]
    5fcc: f94007e8     	ldr	x8, [sp, #0x8]
    5fd0: 91004100     	add	x0, x8, #0x10
    5fd4: 94000000     	bl	0x5fd4 <__ZNKSt3__110__list_impINS_12basic_stringIcNS_11char_traitsIcEENS_9allocatorIcEEEENS4_IS6_EEE4__szB8ne180100Ev+0x18>
    5fd8: a9417bfd     	ldp	x29, x30, [sp, #0x10]
    5fdc: 910083ff     	add	sp, sp, #0x20
    5fe0: d65f03c0     	ret

0000000000005fe4 <__ZNKSt3__117__compressed_pairImNS_9allocatorINS_11__list_nodeINS_12basic_stringIcNS_11char_traitsIcEENS1_IcEEEEPvEEEEE5firstB8ne180100Ev>:
    5fe4: d10083ff     	sub	sp, sp, #0x20
    5fe8: a9017bfd     	stp	x29, x30, [sp, #0x10]
    5fec: 910043fd     	add	x29, sp, #0x10
    5ff0: f90007e0     	str	x0, [sp, #0x8]
    5ff4: f94007e0     	ldr	x0, [sp, #0x8]
    5ff8: 94000000     	bl	0x5ff8 <__ZNKSt3__117__compressed_pairImNS_9allocatorINS_11__list_nodeINS_12basic_stringIcNS_11char_traitsIcEENS1_IcEEEEPvEEEEE5firstB8ne180100Ev+0x14>
    5ffc: a9417bfd     	ldp	x29, x30, [sp, #0x10]
    6000: 910083ff     	add	sp, sp, #0x20
    6004: d65f03c0     	ret

0000000000006008 <__ZNKSt3__122__compressed_pair_elemImLi0ELb0EE5__getB8ne180100Ev>:
    6008: d10043ff     	sub	sp, sp, #0x10
    600c: f90007e0     	str	x0, [sp, #0x8]
    6010: f94007e0     	ldr	x0, [sp, #0x8]
    6014: 910043ff     	add	sp, sp, #0x10
    6018: d65f03c0     	ret

000000000000601c <__ZNSt3__126__list_node_pointer_traitsINS_12basic_stringIcNS_11char_traitsIcEENS_9allocatorIcEEEEPvE26__unsafe_link_pointer_castB8ne180100EPNS_16__list_node_baseIS6_S7_EE>:
    601c: d10043ff     	sub	sp, sp, #0x10
    6020: f90007e0     	str	x0, [sp, #0x8]
    6024: f94007e0     	ldr	x0, [sp, #0x8]
    6028: 910043ff     	add	sp, sp, #0x10
    602c: d65f03c0     	ret

0000000000006030 <__ZNSt3__116__list_node_baseINS_12basic_stringIcNS_11char_traitsIcEENS_9allocatorIcEEEEPvE6__selfB8ne180100Ev>:
    6030: d10083ff     	sub	sp, sp, #0x20
    6034: a9017bfd     	stp	x29, x30, [sp, #0x10]
    6038: 910043fd     	add	x29, sp, #0x10
    603c: f90007e0     	str	x0, [sp, #0x8]
    6040: f94007e0     	ldr	x0, [sp, #0x8]
    6044: 94000000     	bl	0x6044 <__ZNSt3__116__list_node_baseINS_12basic_stringIcNS_11char_traitsIcEENS_9allocatorIcEEEEPvE6__selfB8ne180100Ev+0x14>
    6048: a9417bfd     	ldp	x29, x30, [sp, #0x10]
    604c: 910083ff     	add	sp, sp, #0x20
    6050: d65f03c0     	ret

0000000000006054 <__ZNSt3__114pointer_traitsIPNS_16__list_node_baseINS_12basic_stringIcNS_11char_traitsIcEENS_9allocatorIcEEEEPvEEE10pointer_toB8ne180100ERS9_>:
    6054: d10043ff     	sub	sp, sp, #0x10
    6058: f90007e0     	str	x0, [sp, #0x8]
    605c: f94007e0     	ldr	x0, [sp, #0x8]
    6060: 910043ff     	add	sp, sp, #0x10
    6064: d65f03c0     	ret

0000000000006068 <__ZNSt3__117__compressed_pairImNS_9allocatorINS_11__list_nodeINS_12basic_stringIcNS_11char_traitsIcEENS1_IcEEEEPvEEEEE5firstB8ne180100Ev>:
    6068: d10083ff     	sub	sp, sp, #0x20
    606c: a9017bfd     	stp	x29, x30, [sp, #0x10]
    6070: 910043fd     	add	x29, sp, #0x10
    6074: f90007e0     	str	x0, [sp, #0x8]
    6078: f94007e0     	ldr	x0, [sp, #0x8]
    607c: 94000000     	bl	0x607c <__ZNSt3__117__compressed_pairImNS_9allocatorINS_11__list_nodeINS_12basic_stringIcNS_11char_traitsIcEENS1_IcEEEEPvEEEEE5firstB8ne180100Ev+0x14>
    6080: a9417bfd     	ldp	x29, x30, [sp, #0x10]
    6084: 910083ff     	add	sp, sp, #0x20
    6088: d65f03c0     	ret

000000000000608c <__ZNSt3__122__compressed_pair_elemImLi0ELb0EE5__getB8ne180100Ev>:
    608c: d10043ff     	sub	sp, sp, #0x10
    6090: f90007e0     	str	x0, [sp, #0x8]
    6094: f94007e0     	ldr	x0, [sp, #0x8]
    6098: 910043ff     	add	sp, sp, #0x10
    609c: d65f03c0     	ret

00000000000060a0 <__ZNSt3__110__list_impINS_12basic_stringIcNS_11char_traitsIcEENS_9allocatorIcEEEENS4_IS6_EEE12__node_allocB8ne180100Ev>:
    60a0: d10083ff     	sub	sp, sp, #0x20
    60a4: a9017bfd     	stp	x29, x30, [sp, #0x10]
    60a8: 910043fd     	add	x29, sp, #0x10
    60ac: f90007e0     	str	x0, [sp, #0x8]
    60b0: f94007e8     	ldr	x8, [sp, #0x8]
    60b4: 91004100     	add	x0, x8, #0x10
    60b8: 94000000     	bl	0x60b8 <__ZNSt3__110__list_impINS_12basic_stringIcNS_11char_traitsIcEENS_9allocatorIcEEEENS4_IS6_EEE12__node_allocB8ne180100Ev+0x18>
    60bc: a9417bfd     	ldp	x29, x30, [sp, #0x10]
    60c0: 910083ff     	add	sp, sp, #0x20
    60c4: d65f03c0     	ret

00000000000060c8 <__ZNSt3__116allocator_traitsINS_9allocatorINS_11__list_nodeINS_12basic_stringIcNS_11char_traitsIcEENS1_IcEEEEPvEEEEE7destroyB8ne180100IS7_vvEEvRSA_PT_>:
    60c8: d10083ff     	sub	sp, sp, #0x20
    60cc: a9017bfd     	stp	x29, x30, [sp, #0x10]
    60d0: 910043fd     	add	x29, sp, #0x10
    60d4: f90007e0     	str	x0, [sp, #0x8]
    60d8: f90003e1     	str	x1, [sp]
    60dc: f94003e0     	ldr	x0, [sp]
    60e0: 94000000     	bl	0x60e0 <__ZNSt3__116allocator_traitsINS_9allocatorINS_11__list_nodeINS_12basic_stringIcNS_11char_traitsIcEENS1_IcEEEEPvEEEEE7destroyB8ne180100IS7_vvEEvRSA_PT_+0x18>
    60e4: a9417bfd     	ldp	x29, x30, [sp, #0x10]
    60e8: 910083ff     	add	sp, sp, #0x20
    60ec: d65f03c0     	ret

00000000000060f0 <__ZNSt3__111__list_nodeINS_12basic_stringIcNS_11char_traitsIcEENS_9allocatorIcEEEEPvE11__get_valueB8ne180100Ev>:
    60f0: d10043ff     	sub	sp, sp, #0x10
    60f4: f90007e0     	str	x0, [sp, #0x8]
    60f8: f94007e8     	ldr	x8, [sp, #0x8]
    60fc: 91004100     	add	x0, x8, #0x10
    6100: 910043ff     	add	sp, sp, #0x10
    6104: d65f03c0     	ret

0000000000006108 <__ZNSt3__112__destroy_atB8ne180100INS_11__list_nodeINS_12basic_stringIcNS_11char_traitsIcEENS_9allocatorIcEEEEPvEELi0EEEvPT_>:
    6108: d10083ff     	sub	sp, sp, #0x20
    610c: a9017bfd     	stp	x29, x30, [sp, #0x10]
    6110: 910043fd     	add	x29, sp, #0x10
    6114: f90007e0     	str	x0, [sp, #0x8]
    6118: f94007e0     	ldr	x0, [sp, #0x8]
    611c: 94000000     	bl	0x611c <__ZNSt3__112__destroy_atB8ne180100INS_11__list_nodeINS_12basic_stringIcNS_11char_traitsIcEENS_9allocatorIcEEEEPvEELi0EEEvPT_+0x14>
    6120: a9417bfd     	ldp	x29, x30, [sp, #0x10]
    6124: 910083ff     	add	sp, sp, #0x20
    6128: d65f03c0     	ret

000000000000612c <__ZNSt3__116allocator_traitsINS_9allocatorINS_11__list_nodeINS_12basic_stringIcNS_11char_traitsIcEENS1_IcEEEEPvEEEEE10deallocateB8ne180100ERSA_PS9_m>:
    612c: d100c3ff     	sub	sp, sp, #0x30
    6130: a9027bfd     	stp	x29, x30, [sp, #0x20]
    6134: 910083fd     	add	x29, sp, #0x20
    6138: f81f83a0     	stur	x0, [x29, #-0x8]
    613c: f9000be1     	str	x1, [sp, #0x10]
    6140: f90007e2     	str	x2, [sp, #0x8]
    6144: f85f83a0     	ldur	x0, [x29, #-0x8]
    6148: f9400be1     	ldr	x1, [sp, #0x10]
    614c: f94007e2     	ldr	x2, [sp, #0x8]
    6150: 94000000     	bl	0x6150 <__ZNSt3__116allocator_traitsINS_9allocatorINS_11__list_nodeINS_12basic_stringIcNS_11char_traitsIcEENS1_IcEEEEPvEEEEE10deallocateB8ne180100ERSA_PS9_m+0x24>
    6154: a9427bfd     	ldp	x29, x30, [sp, #0x20]
    6158: 9100c3ff     	add	sp, sp, #0x30
    615c: d65f03c0     	ret

0000000000006160 <__ZNSt3__117__compressed_pairImNS_9allocatorINS_11__list_nodeINS_12basic_stringIcNS_11char_traitsIcEENS1_IcEEEEPvEEEEE6secondB8ne180100Ev>:
    6160: d10083ff     	sub	sp, sp, #0x20
    6164: a9017bfd     	stp	x29, x30, [sp, #0x10]
    6168: 910043fd     	add	x29, sp, #0x10
    616c: f90007e0     	str	x0, [sp, #0x8]
    6170: f94007e0     	ldr	x0, [sp, #0x8]
    6174: 94000000     	bl	0x6174 <__ZNSt3__117__compressed_pairImNS_9allocatorINS_11__list_nodeINS_12basic_stringIcNS_11char_traitsIcEENS1_IcEEEEPvEEEEE6secondB8ne180100Ev+0x14>
    6178: a9417bfd     	ldp	x29, x30, [sp, #0x10]
    617c: 910083ff     	add	sp, sp, #0x20
    6180: d65f03c0     	ret

0000000000006184 <__ZNSt3__122__compressed_pair_elemINS_9allocatorINS_11__list_nodeINS_12basic_stringIcNS_11char_traitsIcEENS1_IcEEEEPvEEEELi1ELb1EE5__getB8ne180100Ev>:
    6184: d10043ff     	sub	sp, sp, #0x10
    6188: f90007e0     	str	x0, [sp, #0x8]
    618c: f94007e0     	ldr	x0, [sp, #0x8]
    6190: 910043ff     	add	sp, sp, #0x10
    6194: d65f03c0     	ret

0000000000006198 <__ZNSt3__112__destroy_atB8ne180100INS_12basic_stringIcNS_11char_traitsIcEENS_9allocatorIcEEEELi0EEEvPT_>:
    6198: d10083ff     	sub	sp, sp, #0x20
    619c: a9017bfd     	stp	x29, x30, [sp, #0x10]
    61a0: 910043fd     	add	x29, sp, #0x10
    61a4: f90007e0     	str	x0, [sp, #0x8]
    61a8: f94007e0     	ldr	x0, [sp, #0x8]
    61ac: 94000000     	bl	0x61ac <__ZNSt3__112__destroy_atB8ne180100INS_12basic_stringIcNS_11char_traitsIcEENS_9allocatorIcEEEELi0EEEvPT_+0x14>
    61b0: a9417bfd     	ldp	x29, x30, [sp, #0x10]
    61b4: 910083ff     	add	sp, sp, #0x20
    61b8: d65f03c0     	ret

00000000000061bc <__ZNSt3__111__list_nodeINS_12basic_stringIcNS_11char_traitsIcEENS_9allocatorIcEEEEPvED1B8ne180100Ev>:
    61bc: d10083ff     	sub	sp, sp, #0x20
    61c0: a9017bfd     	stp	x29, x30, [sp, #0x10]
    61c4: 910043fd     	add	x29, sp, #0x10
    61c8: f90007e0     	str	x0, [sp, #0x8]
    61cc: f94007e0     	ldr	x0, [sp, #0x8]
    61d0: f90003e0     	str	x0, [sp]
    61d4: 94000000     	bl	0x61d4 <__ZNSt3__111__list_nodeINS_12basic_stringIcNS_11char_traitsIcEENS_9allocatorIcEEEEPvED1B8ne180100Ev+0x18>
    61d8: f94003e0     	ldr	x0, [sp]
    61dc: a9417bfd     	ldp	x29, x30, [sp, #0x10]
    61e0: 910083ff     	add	sp, sp, #0x20
    61e4: d65f03c0     	ret

00000000000061e8 <__ZNSt3__111__list_nodeINS_12basic_stringIcNS_11char_traitsIcEENS_9allocatorIcEEEEPvED2B8ne180100Ev>:
    61e8: d10043ff     	sub	sp, sp, #0x10
    61ec: f90007e0     	str	x0, [sp, #0x8]
    61f0: f94007e0     	ldr	x0, [sp, #0x8]
    61f4: 910043ff     	add	sp, sp, #0x10
    61f8: d65f03c0     	ret

00000000000061fc <__ZNSt3__19allocatorINS_11__list_nodeINS_12basic_stringIcNS_11char_traitsIcEENS0_IcEEEEPvEEE10deallocateB8ne180100EPS8_m>:
    61fc: d100c3ff     	sub	sp, sp, #0x30
    6200: a9027bfd     	stp	x29, x30, [sp, #0x20]
    6204: 910083fd     	add	x29, sp, #0x20
    6208: f81f83a0     	stur	x0, [x29, #-0x8]
    620c: f9000be1     	str	x1, [sp, #0x10]
    6210: f90007e2     	str	x2, [sp, #0x8]
    6214: f9400be0     	ldr	x0, [sp, #0x10]
    6218: f94007e8     	ldr	x8, [sp, #0x8]
    621c: d2800509     	mov	x9, #0x28               ; =40
    6220: 9b097d01     	mul	x1, x8, x9
    6224: d2800102     	mov	x2, #0x8                ; =8
    6228: 94000000     	bl	0x6228 <__ZNSt3__19allocatorINS_11__list_nodeINS_12basic_stringIcNS_11char_traitsIcEENS0_IcEEEEPvEEE10deallocateB8ne180100EPS8_m+0x2c>
    622c: 14000001     	b	0x6230 <__ZNSt3__19allocatorINS_11__list_nodeINS_12basic_stringIcNS_11char_traitsIcEENS0_IcEEEEPvEEE10deallocateB8ne180100EPS8_m+0x34>
    6230: a9427bfd     	ldp	x29, x30, [sp, #0x20]
    6234: 9100c3ff     	add	sp, sp, #0x30
    6238: d65f03c0     	ret
    623c: 94000000     	bl	0x623c <__ZNSt3__19allocatorINS_11__list_nodeINS_12basic_stringIcNS_11char_traitsIcEENS0_IcEEEEPvEEE10deallocateB8ne180100EPS8_m+0x40>

0000000000006240 <__ZNSt3__119__libcpp_deallocateB8ne180100EPvmm>:
    6240: d100c3ff     	sub	sp, sp, #0x30
    6244: a9027bfd     	stp	x29, x30, [sp, #0x20]
    6248: 910083fd     	add	x29, sp, #0x20
    624c: f81f83a0     	stur	x0, [x29, #-0x8]
    6250: f9000be1     	str	x1, [sp, #0x10]
    6254: f90007e2     	str	x2, [sp, #0x8]
    6258: f94007e0     	ldr	x0, [sp, #0x8]
    625c: 94000000     	bl	0x625c <__ZNSt3__119__libcpp_deallocateB8ne180100EPvmm+0x1c>
    6260: 36000120     	tbz	w0, #0x0, 0x6284 <__ZNSt3__119__libcpp_deallocateB8ne180100EPvmm+0x44>
    6264: 14000001     	b	0x6268 <__ZNSt3__119__libcpp_deallocateB8ne180100EPvmm+0x28>
    6268: f94007e8     	ldr	x8, [sp, #0x8]
    626c: f90003e8     	str	x8, [sp]
    6270: f85f83a0     	ldur	x0, [x29, #-0x8]
    6274: f9400be1     	ldr	x1, [sp, #0x10]
    6278: f94003e2     	ldr	x2, [sp]
    627c: 94000000     	bl	0x627c <__ZNSt3__119__libcpp_deallocateB8ne180100EPvmm+0x3c>
    6280: 14000005     	b	0x6294 <__ZNSt3__119__libcpp_deallocateB8ne180100EPvmm+0x54>
    6284: f85f83a0     	ldur	x0, [x29, #-0x8]
    6288: f9400be1     	ldr	x1, [sp, #0x10]
    628c: 94000000     	bl	0x628c <__ZNSt3__119__libcpp_deallocateB8ne180100EPvmm+0x4c>
    6290: 14000001     	b	0x6294 <__ZNSt3__119__libcpp_deallocateB8ne180100EPvmm+0x54>
    6294: a9427bfd     	ldp	x29, x30, [sp, #0x20]
    6298: 9100c3ff     	add	sp, sp, #0x30
    629c: d65f03c0     	ret

00000000000062a0 <__ZNSt3__124__is_overaligned_for_newB8ne180100Em>:
    62a0: d10043ff     	sub	sp, sp, #0x10
    62a4: f90007e0     	str	x0, [sp, #0x8]
    62a8: f94007e8     	ldr	x8, [sp, #0x8]
    62ac: f1004108     	subs	x8, x8, #0x10
    62b0: 1a9f97e8     	cset	w8, hi
    62b4: 12000100     	and	w0, w8, #0x1
    62b8: 910043ff     	add	sp, sp, #0x10
    62bc: d65f03c0     	ret

00000000000062c0 <__ZNSt3__127__do_deallocate_handle_sizeB8ne180100IJSt11align_val_tEEEvPvmDpT_>:
    62c0: d100c3ff     	sub	sp, sp, #0x30
    62c4: a9027bfd     	stp	x29, x30, [sp, #0x20]
    62c8: 910083fd     	add	x29, sp, #0x20
    62cc: f81f83a0     	stur	x0, [x29, #-0x8]
    62d0: f9000be1     	str	x1, [sp, #0x10]
    62d4: f90007e2     	str	x2, [sp, #0x8]
    62d8: f85f83a0     	ldur	x0, [x29, #-0x8]
    62dc: f94007e1     	ldr	x1, [sp, #0x8]
    62e0: 94000000     	bl	0x62e0 <__ZNSt3__127__do_deallocate_handle_sizeB8ne180100IJSt11align_val_tEEEvPvmDpT_+0x20>
    62e4: a9427bfd     	ldp	x29, x30, [sp, #0x20]
    62e8: 9100c3ff     	add	sp, sp, #0x30
    62ec: d65f03c0     	ret

00000000000062f0 <__ZNSt3__127__do_deallocate_handle_sizeB8ne180100IJEEEvPvmDpT_>:
    62f0: d10083ff     	sub	sp, sp, #0x20
    62f4: a9017bfd     	stp	x29, x30, [sp, #0x10]
    62f8: 910043fd     	add	x29, sp, #0x10
    62fc: f90007e0     	str	x0, [sp, #0x8]
    6300: f90003e1     	str	x1, [sp]
    6304: f94007e0     	ldr	x0, [sp, #0x8]
    6308: 94000000     	bl	0x6308 <__ZNSt3__127__do_deallocate_handle_sizeB8ne180100IJEEEvPvmDpT_+0x18>
    630c: a9417bfd     	ldp	x29, x30, [sp, #0x10]
    6310: 910083ff     	add	sp, sp, #0x20
    6314: d65f03c0     	ret

0000000000006318 <__ZNSt3__124__libcpp_operator_deleteB8ne180100IJPvSt11align_val_tEEEvDpT_>:
    6318: d10083ff     	sub	sp, sp, #0x20
    631c: a9017bfd     	stp	x29, x30, [sp, #0x10]
    6320: 910043fd     	add	x29, sp, #0x10
    6324: f90007e0     	str	x0, [sp, #0x8]
    6328: f90003e1     	str	x1, [sp]
    632c: f94007e0     	ldr	x0, [sp, #0x8]
    6330: f94003e1     	ldr	x1, [sp]
    6334: 94000000     	bl	0x6334 <__ZNSt3__124__libcpp_operator_deleteB8ne180100IJPvSt11align_val_tEEEvDpT_+0x1c>
    6338: a9417bfd     	ldp	x29, x30, [sp, #0x10]
    633c: 910083ff     	add	sp, sp, #0x20
    6340: d65f03c0     	ret

0000000000006344 <__ZNSt3__124__libcpp_operator_deleteB8ne180100IJPvEEEvDpT_>:
    6344: d10083ff     	sub	sp, sp, #0x20
    6348: a9017bfd     	stp	x29, x30, [sp, #0x10]
    634c: 910043fd     	add	x29, sp, #0x10
    6350: f90007e0     	str	x0, [sp, #0x8]
    6354: f94007e0     	ldr	x0, [sp, #0x8]
    6358: 94000000     	bl	0x6358 <__ZNSt3__124__libcpp_operator_deleteB8ne180100IJPvEEEvDpT_+0x14>
    635c: a9417bfd     	ldp	x29, x30, [sp, #0x10]
    6360: 910083ff     	add	sp, sp, #0x20
    6364: d65f03c0     	ret

0000000000006368 <__ZNSt3__123__libcpp_numeric_limitsIlLb1EE3maxB8ne180100Ev>:
    6368: 92f00000     	mov	x0, #0x7fffffffffffffff ; =9223372036854775807
    636c: d65f03c0     	ret

0000000000006370 <__ZNSt3__112basic_stringIcNS_11char_traitsIcEENS_9allocatorIcEEEC2B8ne180100Ev>:
    6370: d100c3ff     	sub	sp, sp, #0x30
    6374: a9027bfd     	stp	x29, x30, [sp, #0x20]
    6378: 910083fd     	add	x29, sp, #0x20
    637c: f81f83a0     	stur	x0, [x29, #-0x8]
    6380: f85f83a0     	ldur	x0, [x29, #-0x8]
    6384: f90007e0     	str	x0, [sp, #0x8]
    6388: d10027a1     	sub	x1, x29, #0x9
    638c: d1002ba2     	sub	x2, x29, #0xa
    6390: 94000000     	bl	0x6390 <__ZNSt3__112basic_stringIcNS_11char_traitsIcEENS_9allocatorIcEEEC2B8ne180100Ev+0x20>
    6394: 14000001     	b	0x6398 <__ZNSt3__112basic_stringIcNS_11char_traitsIcEENS_9allocatorIcEEEC2B8ne180100Ev+0x28>
    6398: f94007e0     	ldr	x0, [sp, #0x8]
    639c: d2800001     	mov	x1, #0x0                ; =0
    63a0: 94000000     	bl	0x63a0 <__ZNSt3__112basic_stringIcNS_11char_traitsIcEENS_9allocatorIcEEEC2B8ne180100Ev+0x30>
    63a4: f94007e0     	ldr	x0, [sp, #0x8]
    63a8: a9427bfd     	ldp	x29, x30, [sp, #0x20]
    63ac: 9100c3ff     	add	sp, sp, #0x30
    63b0: d65f03c0     	ret
    63b4: 94000000     	bl	0x63b4 <__ZNSt3__112basic_stringIcNS_11char_traitsIcEENS_9allocatorIcEEEC2B8ne180100Ev+0x44>

00000000000063b8 <__ZNSt3__117__compressed_pairINS_12basic_stringIcNS_11char_traitsIcEENS_9allocatorIcEEE5__repES5_EC1B8ne180100INS_16__value_init_tagENS_18__default_init_tagEEEOT_OT0_>:
    63b8: d100c3ff     	sub	sp, sp, #0x30
    63bc: a9027bfd     	stp	x29, x30, [sp, #0x20]
    63c0: 910083fd     	add	x29, sp, #0x20
    63c4: f81f83a0     	stur	x0, [x29, #-0x8]
    63c8: f9000be1     	str	x1, [sp, #0x10]
    63cc: f90007e2     	str	x2, [sp, #0x8]
    63d0: f85f83a0     	ldur	x0, [x29, #-0x8]
    63d4: f90003e0     	str	x0, [sp]
    63d8: f9400be1     	ldr	x1, [sp, #0x10]
    63dc: f94007e2     	ldr	x2, [sp, #0x8]
    63e0: 94000000     	bl	0x63e0 <__ZNSt3__117__compressed_pairINS_12basic_stringIcNS_11char_traitsIcEENS_9allocatorIcEEE5__repES5_EC1B8ne180100INS_16__value_init_tagENS_18__default_init_tagEEEOT_OT0_+0x28>
    63e4: f94003e0     	ldr	x0, [sp]
    63e8: a9427bfd     	ldp	x29, x30, [sp, #0x20]
    63ec: 9100c3ff     	add	sp, sp, #0x30
    63f0: d65f03c0     	ret

00000000000063f4 <__ZNSt3__117__compressed_pairINS_12basic_stringIcNS_11char_traitsIcEENS_9allocatorIcEEE5__repES5_EC2B8ne180100INS_16__value_init_tagENS_18__default_init_tagEEEOT_OT0_>:
    63f4: d10103ff     	sub	sp, sp, #0x40
    63f8: a9037bfd     	stp	x29, x30, [sp, #0x30]
    63fc: 9100c3fd     	add	x29, sp, #0x30
    6400: f81f83a0     	stur	x0, [x29, #-0x8]
    6404: f81f03a1     	stur	x1, [x29, #-0x10]
    6408: f9000fe2     	str	x2, [sp, #0x18]
    640c: f85f83a0     	ldur	x0, [x29, #-0x8]
    6410: f90007e0     	str	x0, [sp, #0x8]
    6414: 94000000     	bl	0x6414 <__ZNSt3__117__compressed_pairINS_12basic_stringIcNS_11char_traitsIcEENS_9allocatorIcEEE5__repES5_EC2B8ne180100INS_16__value_init_tagENS_18__default_init_tagEEEOT_OT0_+0x20>
    6418: f94007e0     	ldr	x0, [sp, #0x8]
    641c: 94000000     	bl	0x641c <__ZNSt3__117__compressed_pairINS_12basic_stringIcNS_11char_traitsIcEENS_9allocatorIcEEE5__repES5_EC2B8ne180100INS_16__value_init_tagENS_18__default_init_tagEEEOT_OT0_+0x28>
    6420: f94007e0     	ldr	x0, [sp, #0x8]
    6424: a9437bfd     	ldp	x29, x30, [sp, #0x30]
    6428: 910103ff     	add	sp, sp, #0x40
    642c: d65f03c0     	ret

0000000000006430 <__ZNSt3__122__compressed_pair_elemINS_12basic_stringIcNS_11char_traitsIcEENS_9allocatorIcEEE5__repELi0ELb0EEC2B8ne180100ENS_16__value_init_tagE>:
    6430: d10043ff     	sub	sp, sp, #0x10
    6434: f90003e0     	str	x0, [sp]
    6438: f94003e0     	ldr	x0, [sp]
    643c: f900001f     	str	xzr, [x0]
    6440: f900041f     	str	xzr, [x0, #0x8]
    6444: f900081f     	str	xzr, [x0, #0x10]
    6448: 910043ff     	add	sp, sp, #0x10
    644c: d65f03c0     	ret

0000000000006450 <__ZNSt3__112basic_stringIcNS_11char_traitsIcEENS_9allocatorIcEEE15__make_iteratorB8ne180100EPc>:
    6450: d100c3ff     	sub	sp, sp, #0x30
    6454: a9027bfd     	stp	x29, x30, [sp, #0x20]
    6458: 910083fd     	add	x29, sp, #0x20
    645c: f9000be0     	str	x0, [sp, #0x10]
    6460: f90007e1     	str	x1, [sp, #0x8]
    6464: f94007e1     	ldr	x1, [sp, #0x8]
    6468: d10023a0     	sub	x0, x29, #0x8
    646c: 94000000     	bl	0x646c <__ZNSt3__112basic_stringIcNS_11char_traitsIcEENS_9allocatorIcEEE15__make_iteratorB8ne180100EPc+0x1c>
    6470: f85f83a0     	ldur	x0, [x29, #-0x8]
    6474: a9427bfd     	ldp	x29, x30, [sp, #0x20]
    6478: 9100c3ff     	add	sp, sp, #0x30
    647c: d65f03c0     	ret

0000000000006480 <__ZNSt3__112basic_stringIcNS_11char_traitsIcEENS_9allocatorIcEEE13__get_pointerB8ne180100Ev>:
    6480: d100c3ff     	sub	sp, sp, #0x30
    6484: a9027bfd     	stp	x29, x30, [sp, #0x20]
    6488: 910083fd     	add	x29, sp, #0x20
    648c: f81f83a0     	stur	x0, [x29, #-0x8]
    6490: f85f83a0     	ldur	x0, [x29, #-0x8]
    6494: f9000be0     	str	x0, [sp, #0x10]
    6498: 94000000     	bl	0x6498 <__ZNSt3__112basic_stringIcNS_11char_traitsIcEENS_9allocatorIcEEE13__get_pointerB8ne180100Ev+0x18>
    649c: 360000c0     	tbz	w0, #0x0, 0x64b4 <__ZNSt3__112basic_stringIcNS_11char_traitsIcEENS_9allocatorIcEEE13__get_pointerB8ne180100Ev+0x34>
    64a0: 14000001     	b	0x64a4 <__ZNSt3__112basic_stringIcNS_11char_traitsIcEENS_9allocatorIcEEE13__get_pointerB8ne180100Ev+0x24>
    64a4: f9400be0     	ldr	x0, [sp, #0x10]
    64a8: 94000000     	bl	0x64a8 <__ZNSt3__112basic_stringIcNS_11char_traitsIcEENS_9allocatorIcEEE13__get_pointerB8ne180100Ev+0x28>
    64ac: f90007e0     	str	x0, [sp, #0x8]
    64b0: 14000005     	b	0x64c4 <__ZNSt3__112basic_stringIcNS_11char_traitsIcEENS_9allocatorIcEEE13__get_pointerB8ne180100Ev+0x44>
    64b4: f9400be0     	ldr	x0, [sp, #0x10]
    64b8: 94000000     	bl	0x64b8 <__ZNSt3__112basic_stringIcNS_11char_traitsIcEENS_9allocatorIcEEE13__get_pointerB8ne180100Ev+0x38>
    64bc: f90007e0     	str	x0, [sp, #0x8]
    64c0: 14000001     	b	0x64c4 <__ZNSt3__112basic_stringIcNS_11char_traitsIcEENS_9allocatorIcEEE13__get_pointerB8ne180100Ev+0x44>
    64c4: f94007e0     	ldr	x0, [sp, #0x8]
    64c8: a9427bfd     	ldp	x29, x30, [sp, #0x20]
    64cc: 9100c3ff     	add	sp, sp, #0x30
    64d0: d65f03c0     	ret

00000000000064d4 <__ZNSt3__111__wrap_iterIPcEC1B8ne180100ES1_>:
    64d4: d100c3ff     	sub	sp, sp, #0x30
    64d8: a9027bfd     	stp	x29, x30, [sp, #0x20]
    64dc: 910083fd     	add	x29, sp, #0x20
    64e0: f81f83a0     	stur	x0, [x29, #-0x8]
    64e4: f9000be1     	str	x1, [sp, #0x10]
    64e8: f85f83a0     	ldur	x0, [x29, #-0x8]
    64ec: f90007e0     	str	x0, [sp, #0x8]
    64f0: f9400be1     	ldr	x1, [sp, #0x10]
    64f4: 94000000     	bl	0x64f4 <__ZNSt3__111__wrap_iterIPcEC1B8ne180100ES1_+0x20>
    64f8: f94007e0     	ldr	x0, [sp, #0x8]
    64fc: a9427bfd     	ldp	x29, x30, [sp, #0x20]
    6500: 9100c3ff     	add	sp, sp, #0x30
    6504: d65f03c0     	ret

0000000000006508 <__ZNSt3__111__wrap_iterIPcEC2B8ne180100ES1_>:
    6508: d10043ff     	sub	sp, sp, #0x10
    650c: f90007e0     	str	x0, [sp, #0x8]
    6510: f90003e1     	str	x1, [sp]
    6514: f94007e0     	ldr	x0, [sp, #0x8]
    6518: f94003e8     	ldr	x8, [sp]
    651c: f9000008     	str	x8, [x0]
    6520: 910043ff     	add	sp, sp, #0x10
    6524: d65f03c0     	ret

0000000000006528 <__ZNSt3__112basic_stringIcNS_11char_traitsIcEENS_9allocatorIcEEE18__get_long_pointerB8ne180100Ev>:
    6528: d10083ff     	sub	sp, sp, #0x20
    652c: a9017bfd     	stp	x29, x30, [sp, #0x10]
    6530: 910043fd     	add	x29, sp, #0x10
    6534: f90007e0     	str	x0, [sp, #0x8]
    6538: f94007e0     	ldr	x0, [sp, #0x8]
    653c: 94000000     	bl	0x653c <__ZNSt3__112basic_stringIcNS_11char_traitsIcEENS_9allocatorIcEEE18__get_long_pointerB8ne180100Ev+0x14>
    6540: f9400000     	ldr	x0, [x0]
    6544: a9417bfd     	ldp	x29, x30, [sp, #0x10]
    6548: 910083ff     	add	sp, sp, #0x20
    654c: d65f03c0     	ret

0000000000006550 <__ZNSt3__112basic_stringIcNS_11char_traitsIcEENS_9allocatorIcEEE19__get_short_pointerB8ne180100Ev>:
    6550: d10083ff     	sub	sp, sp, #0x20
    6554: a9017bfd     	stp	x29, x30, [sp, #0x10]
    6558: 910043fd     	add	x29, sp, #0x10
    655c: f90007e0     	str	x0, [sp, #0x8]
    6560: f94007e0     	ldr	x0, [sp, #0x8]
    6564: 94000000     	bl	0x6564 <__ZNSt3__112basic_stringIcNS_11char_traitsIcEENS_9allocatorIcEEE19__get_short_pointerB8ne180100Ev+0x14>
    6568: 94000000     	bl	0x6568 <__ZNSt3__112basic_stringIcNS_11char_traitsIcEENS_9allocatorIcEEE19__get_short_pointerB8ne180100Ev+0x18>
    656c: a9417bfd     	ldp	x29, x30, [sp, #0x10]
    6570: 910083ff     	add	sp, sp, #0x20
    6574: d65f03c0     	ret

0000000000006578 <__ZNSt3__114pointer_traitsIPcE10pointer_toB8ne180100ERc>:
    6578: d10043ff     	sub	sp, sp, #0x10
    657c: f90007e0     	str	x0, [sp, #0x8]
    6580: f94007e0     	ldr	x0, [sp, #0x8]
    6584: 910043ff     	add	sp, sp, #0x10
    6588: d65f03c0     	ret

000000000000658c <__ZNSt3__1neB8ne180100IPcEEbRKNS_11__wrap_iterIT_EES6_>:
    658c: d10083ff     	sub	sp, sp, #0x20
    6590: a9017bfd     	stp	x29, x30, [sp, #0x10]
    6594: 910043fd     	add	x29, sp, #0x10
    6598: f90007e0     	str	x0, [sp, #0x8]
    659c: f90003e1     	str	x1, [sp]
    65a0: f94007e0     	ldr	x0, [sp, #0x8]
    65a4: f94003e1     	ldr	x1, [sp]
    65a8: 94000000     	bl	0x65a8 <__ZNSt3__1neB8ne180100IPcEEbRKNS_11__wrap_iterIT_EES6_+0x1c>
    65ac: 52000008     	eor	w8, w0, #0x1
    65b0: 12000100     	and	w0, w8, #0x1
    65b4: a9417bfd     	ldp	x29, x30, [sp, #0x10]
    65b8: 910083ff     	add	sp, sp, #0x20
    65bc: d65f03c0     	ret

00000000000065c0 <__ZNKSt3__111__wrap_iterIPcEdeB8ne180100Ev>:
    65c0: d10043ff     	sub	sp, sp, #0x10
    65c4: f90007e0     	str	x0, [sp, #0x8]
    65c8: f94007e8     	ldr	x8, [sp, #0x8]
    65cc: f9400100     	ldr	x0, [x8]
    65d0: 910043ff     	add	sp, sp, #0x10
    65d4: d65f03c0     	ret

00000000000065d8 <__ZNSt3__111__wrap_iterIPcEppB8ne180100Ev>:
    65d8: d10043ff     	sub	sp, sp, #0x10
    65dc: f90007e0     	str	x0, [sp, #0x8]
    65e0: f94007e0     	ldr	x0, [sp, #0x8]
    65e4: f9400008     	ldr	x8, [x0]
    65e8: 91000508     	add	x8, x8, #0x1
    65ec: f9000008     	str	x8, [x0]
    65f0: 910043ff     	add	sp, sp, #0x10
    65f4: d65f03c0     	ret

00000000000065f8 <__ZNSt3__1eqB8ne180100IPcEEbRKNS_11__wrap_iterIT_EES6_>:
    65f8: d100c3ff     	sub	sp, sp, #0x30
    65fc: a9027bfd     	stp	x29, x30, [sp, #0x20]
    6600: 910083fd     	add	x29, sp, #0x20
    6604: f81f83a0     	stur	x0, [x29, #-0x8]
    6608: f9000be1     	str	x1, [sp, #0x10]
    660c: f85f83a0     	ldur	x0, [x29, #-0x8]
    6610: 94000000     	bl	0x6610 <__ZNSt3__1eqB8ne180100IPcEEbRKNS_11__wrap_iterIT_EES6_+0x18>
    6614: f90007e0     	str	x0, [sp, #0x8]
    6618: f9400be0     	ldr	x0, [sp, #0x10]
    661c: 94000000     	bl	0x661c <__ZNSt3__1eqB8ne180100IPcEEbRKNS_11__wrap_iterIT_EES6_+0x24>
    6620: aa0003e8     	mov	x8, x0
    6624: f94007e0     	ldr	x0, [sp, #0x8]
    6628: eb080008     	subs	x8, x0, x8
    662c: 1a9f17e8     	cset	w8, eq
    6630: 12000100     	and	w0, w8, #0x1
    6634: a9427bfd     	ldp	x29, x30, [sp, #0x20]
    6638: 9100c3ff     	add	sp, sp, #0x30
    663c: d65f03c0     	ret

0000000000006640 <__ZNKSt3__111__wrap_iterIPcE4baseB8ne180100Ev>:
    6640: d10043ff     	sub	sp, sp, #0x10
    6644: f90007e0     	str	x0, [sp, #0x8]
    6648: f94007e8     	ldr	x8, [sp, #0x8]
    664c: f9400100     	ldr	x0, [x8]
    6650: 910043ff     	add	sp, sp, #0x10
    6654: d65f03c0     	ret

0000000000006658 <__ZNSt3__14listINS_12basic_stringIcNS_11char_traitsIcEENS_9allocatorIcEEEENS4_IS6_EEEC2B8ne180100Ev>:
    6658: d10083ff     	sub	sp, sp, #0x20
    665c: a9017bfd     	stp	x29, x30, [sp, #0x10]
    6660: 910043fd     	add	x29, sp, #0x10
    6664: f90007e0     	str	x0, [sp, #0x8]
    6668: f94007e0     	ldr	x0, [sp, #0x8]
    666c: f90003e0     	str	x0, [sp]
    6670: 94000000     	bl	0x6670 <__ZNSt3__14listINS_12basic_stringIcNS_11char_traitsIcEENS_9allocatorIcEEEENS4_IS6_EEEC2B8ne180100Ev+0x18>
    6674: f94003e0     	ldr	x0, [sp]
    6678: a9417bfd     	ldp	x29, x30, [sp, #0x10]
    667c: 910083ff     	add	sp, sp, #0x20
    6680: d65f03c0     	ret

0000000000006684 <__ZNSt3__110__list_impINS_12basic_stringIcNS_11char_traitsIcEENS_9allocatorIcEEEENS4_IS6_EEEC2Ev>:
    6684: d100c3ff     	sub	sp, sp, #0x30
    6688: a9027bfd     	stp	x29, x30, [sp, #0x20]
    668c: 910083fd     	add	x29, sp, #0x20
    6690: f81f83a0     	stur	x0, [x29, #-0x8]
    6694: f85f83a0     	ldur	x0, [x29, #-0x8]
    6698: f90007e0     	str	x0, [sp, #0x8]
    669c: 94000000     	bl	0x669c <__ZNSt3__110__list_impINS_12basic_stringIcNS_11char_traitsIcEENS_9allocatorIcEEEENS4_IS6_EEEC2Ev+0x18>
    66a0: 14000001     	b	0x66a4 <__ZNSt3__110__list_impINS_12basic_stringIcNS_11char_traitsIcEENS_9allocatorIcEEEENS4_IS6_EEEC2Ev+0x20>
    66a4: f94007e8     	ldr	x8, [sp, #0x8]
    66a8: 91004100     	add	x0, x8, #0x10
    66ac: d10033a1     	sub	x1, x29, #0xc
    66b0: b81f43bf     	stur	wzr, [x29, #-0xc]
    66b4: d10037a2     	sub	x2, x29, #0xd
    66b8: 94000000     	bl	0x66b8 <__ZNSt3__110__list_impINS_12basic_stringIcNS_11char_traitsIcEENS_9allocatorIcEEEENS4_IS6_EEEC2Ev+0x34>
    66bc: 14000001     	b	0x66c0 <__ZNSt3__110__list_impINS_12basic_stringIcNS_11char_traitsIcEENS_9allocatorIcEEEENS4_IS6_EEEC2Ev+0x3c>
    66c0: f94007e0     	ldr	x0, [sp, #0x8]
    66c4: a9427bfd     	ldp	x29, x30, [sp, #0x20]
    66c8: 9100c3ff     	add	sp, sp, #0x30
    66cc: d65f03c0     	ret
    66d0: 94000000     	bl	0x66d0 <__ZNSt3__110__list_impINS_12basic_stringIcNS_11char_traitsIcEENS_9allocatorIcEEEENS4_IS6_EEEC2Ev+0x4c>

00000000000066d4 <__ZNSt3__116__list_node_baseINS_12basic_stringIcNS_11char_traitsIcEENS_9allocatorIcEEEEPvEC1B8ne180100Ev>:
    66d4: d10083ff     	sub	sp, sp, #0x20
    66d8: a9017bfd     	stp	x29, x30, [sp, #0x10]
    66dc: 910043fd     	add	x29, sp, #0x10
    66e0: f90007e0     	str	x0, [sp, #0x8]
    66e4: f94007e0     	ldr	x0, [sp, #0x8]
    66e8: f90003e0     	str	x0, [sp]
    66ec: 94000000     	bl	0x66ec <__ZNSt3__116__list_node_baseINS_12basic_stringIcNS_11char_traitsIcEENS_9allocatorIcEEEEPvEC1B8ne180100Ev+0x18>
    66f0: f94003e0     	ldr	x0, [sp]
    66f4: a9417bfd     	ldp	x29, x30, [sp, #0x10]
    66f8: 910083ff     	add	sp, sp, #0x20
    66fc: d65f03c0     	ret

0000000000006700 <__ZNSt3__117__compressed_pairImNS_9allocatorINS_11__list_nodeINS_12basic_stringIcNS_11char_traitsIcEENS1_IcEEEEPvEEEEEC1B8ne180100IiNS_18__default_init_tagEEEOT_OT0_>:
    6700: d100c3ff     	sub	sp, sp, #0x30
    6704: a9027bfd     	stp	x29, x30, [sp, #0x20]
    6708: 910083fd     	add	x29, sp, #0x20
    670c: f81f83a0     	stur	x0, [x29, #-0x8]
    6710: f9000be1     	str	x1, [sp, #0x10]
    6714: f90007e2     	str	x2, [sp, #0x8]
    6718: f85f83a0     	ldur	x0, [x29, #-0x8]
    671c: f90003e0     	str	x0, [sp]
    6720: f9400be1     	ldr	x1, [sp, #0x10]
    6724: f94007e2     	ldr	x2, [sp, #0x8]
    6728: 94000000     	bl	0x6728 <__ZNSt3__117__compressed_pairImNS_9allocatorINS_11__list_nodeINS_12basic_stringIcNS_11char_traitsIcEENS1_IcEEEEPvEEEEEC1B8ne180100IiNS_18__default_init_tagEEEOT_OT0_+0x28>
    672c: f94003e0     	ldr	x0, [sp]
    6730: a9427bfd     	ldp	x29, x30, [sp, #0x20]
    6734: 9100c3ff     	add	sp, sp, #0x30
    6738: d65f03c0     	ret

000000000000673c <__ZNSt3__116__list_node_baseINS_12basic_stringIcNS_11char_traitsIcEENS_9allocatorIcEEEEPvEC2B8ne180100Ev>:
    673c: d10083ff     	sub	sp, sp, #0x20
    6740: a9017bfd     	stp	x29, x30, [sp, #0x10]
    6744: 910043fd     	add	x29, sp, #0x10
    6748: f90007e0     	str	x0, [sp, #0x8]
    674c: f94007e0     	ldr	x0, [sp, #0x8]
    6750: f90003e0     	str	x0, [sp]
    6754: 94000000     	bl	0x6754 <__ZNSt3__116__list_node_baseINS_12basic_stringIcNS_11char_traitsIcEENS_9allocatorIcEEEEPvEC2B8ne180100Ev+0x18>
    6758: 94000000     	bl	0x6758 <__ZNSt3__116__list_node_baseINS_12basic_stringIcNS_11char_traitsIcEENS_9allocatorIcEEEEPvEC2B8ne180100Ev+0x1c>
    675c: aa0003e8     	mov	x8, x0
    6760: f94003e0     	ldr	x0, [sp]
    6764: f9000008     	str	x8, [x0]
    6768: 94000000     	bl	0x6768 <__ZNSt3__116__list_node_baseINS_12basic_stringIcNS_11char_traitsIcEENS_9allocatorIcEEEEPvEC2B8ne180100Ev+0x2c>
    676c: 94000000     	bl	0x676c <__ZNSt3__116__list_node_baseINS_12basic_stringIcNS_11char_traitsIcEENS_9allocatorIcEEEEPvEC2B8ne180100Ev+0x30>
    6770: aa0003e8     	mov	x8, x0
    6774: f94003e0     	ldr	x0, [sp]
    6778: f9000408     	str	x8, [x0, #0x8]
    677c: a9417bfd     	ldp	x29, x30, [sp, #0x10]
    6780: 910083ff     	add	sp, sp, #0x20
    6784: d65f03c0     	ret

0000000000006788 <__ZNSt3__117__compressed_pairImNS_9allocatorINS_11__list_nodeINS_12basic_stringIcNS_11char_traitsIcEENS1_IcEEEEPvEEEEEC2B8ne180100IiNS_18__default_init_tagEEEOT_OT0_>:
    6788: d10103ff     	sub	sp, sp, #0x40
    678c: a9037bfd     	stp	x29, x30, [sp, #0x30]
    6790: 9100c3fd     	add	x29, sp, #0x30
    6794: f81f83a0     	stur	x0, [x29, #-0x8]
    6798: f81f03a1     	stur	x1, [x29, #-0x10]
    679c: f9000fe2     	str	x2, [sp, #0x18]
    67a0: f85f83a0     	ldur	x0, [x29, #-0x8]
    67a4: f90007e0     	str	x0, [sp, #0x8]
    67a8: f85f03a1     	ldur	x1, [x29, #-0x10]
    67ac: 94000000     	bl	0x67ac <__ZNSt3__117__compressed_pairImNS_9allocatorINS_11__list_nodeINS_12basic_stringIcNS_11char_traitsIcEENS1_IcEEEEPvEEEEEC2B8ne180100IiNS_18__default_init_tagEEEOT_OT0_+0x24>
    67b0: f94007e0     	ldr	x0, [sp, #0x8]
    67b4: 94000000     	bl	0x67b4 <__ZNSt3__117__compressed_pairImNS_9allocatorINS_11__list_nodeINS_12basic_stringIcNS_11char_traitsIcEENS1_IcEEEEPvEEEEEC2B8ne180100IiNS_18__default_init_tagEEEOT_OT0_+0x2c>
    67b8: f94007e0     	ldr	x0, [sp, #0x8]
    67bc: a9437bfd     	ldp	x29, x30, [sp, #0x30]
    67c0: 910103ff     	add	sp, sp, #0x40
    67c4: d65f03c0     	ret

00000000000067c8 <__ZNSt3__122__compressed_pair_elemImLi0ELb0EEC2B8ne180100IivEEOT_>:
    67c8: d10043ff     	sub	sp, sp, #0x10
    67cc: f90007e0     	str	x0, [sp, #0x8]
    67d0: f90003e1     	str	x1, [sp]
    67d4: f94007e0     	ldr	x0, [sp, #0x8]
    67d8: f94003e8     	ldr	x8, [sp]
    67dc: b9800108     	ldrsw	x8, [x8]
    67e0: f9000008     	str	x8, [x0]
    67e4: 910043ff     	add	sp, sp, #0x10
    67e8: d65f03c0     	ret

00000000000067ec <__ZNSt3__122__compressed_pair_elemINS_9allocatorINS_11__list_nodeINS_12basic_stringIcNS_11char_traitsIcEENS1_IcEEEEPvEEEELi1ELb1EEC2B8ne180100ENS_18__default_init_tagE>:
    67ec: d100c3ff     	sub	sp, sp, #0x30
    67f0: a9027bfd     	stp	x29, x30, [sp, #0x20]
    67f4: 910083fd     	add	x29, sp, #0x20
    67f8: f9000be0     	str	x0, [sp, #0x10]
    67fc: f9400be0     	ldr	x0, [sp, #0x10]
    6800: f90007e0     	str	x0, [sp, #0x8]
    6804: 94000000     	bl	0x6804 <__ZNSt3__122__compressed_pair_elemINS_9allocatorINS_11__list_nodeINS_12basic_stringIcNS_11char_traitsIcEENS1_IcEEEEPvEEEELi1ELb1EEC2B8ne180100ENS_18__default_init_tagE+0x18>
    6808: f94007e0     	ldr	x0, [sp, #0x8]
    680c: a9427bfd     	ldp	x29, x30, [sp, #0x20]
    6810: 9100c3ff     	add	sp, sp, #0x30
    6814: d65f03c0     	ret

0000000000006818 <__ZNSt3__19allocatorINS_11__list_nodeINS_12basic_stringIcNS_11char_traitsIcEENS0_IcEEEEPvEEEC2B8ne180100Ev>:
    6818: d10083ff     	sub	sp, sp, #0x20
    681c: a9017bfd     	stp	x29, x30, [sp, #0x10]
    6820: 910043fd     	add	x29, sp, #0x10
    6824: f90007e0     	str	x0, [sp, #0x8]
    6828: f94007e0     	ldr	x0, [sp, #0x8]
    682c: f90003e0     	str	x0, [sp]
    6830: 94000000     	bl	0x6830 <__ZNSt3__19allocatorINS_11__list_nodeINS_12basic_stringIcNS_11char_traitsIcEENS0_IcEEEEPvEEEC2B8ne180100Ev+0x18>
    6834: f94003e0     	ldr	x0, [sp]
    6838: a9417bfd     	ldp	x29, x30, [sp, #0x10]
    683c: 910083ff     	add	sp, sp, #0x20
    6840: d65f03c0     	ret

0000000000006844 <__ZNSt3__116__non_trivial_ifILb1ENS_9allocatorINS_11__list_nodeINS_12basic_stringIcNS_11char_traitsIcEENS1_IcEEEEPvEEEEEC2B8ne180100Ev>:
    6844: d10043ff     	sub	sp, sp, #0x10
    6848: f90007e0     	str	x0, [sp, #0x8]
    684c: f94007e0     	ldr	x0, [sp, #0x8]
    6850: 910043ff     	add	sp, sp, #0x10
    6854: d65f03c0     	ret

0000000000006858 <__ZNSt3__124__put_character_sequenceB8ne180100IcNS_11char_traitsIcEEEERNS_13basic_ostreamIT_T0_EES7_PKS4_m>:
    6858: d10283ff     	sub	sp, sp, #0xa0
    685c: a9097bfd     	stp	x29, x30, [sp, #0x90]
    6860: 910243fd     	add	x29, sp, #0x90
    6864: f81f83a0     	stur	x0, [x29, #-0x8]
    6868: f81f03a1     	stur	x1, [x29, #-0x10]
    686c: f81e83a2     	stur	x2, [x29, #-0x18]
    6870: f85f83a1     	ldur	x1, [x29, #-0x8]
    6874: d100a3a0     	sub	x0, x29, #0x28
    6878: 94000000     	bl	0x6878 <__ZNSt3__124__put_character_sequenceB8ne180100IcNS_11char_traitsIcEEEERNS_13basic_ostreamIT_T0_EES7_PKS4_m+0x20>
    687c: 14000001     	b	0x6880 <__ZNSt3__124__put_character_sequenceB8ne180100IcNS_11char_traitsIcEEEERNS_13basic_ostreamIT_T0_EES7_PKS4_m+0x28>
    6880: d100a3a0     	sub	x0, x29, #0x28
    6884: 94000000     	bl	0x6884 <__ZNSt3__124__put_character_sequenceB8ne180100IcNS_11char_traitsIcEEEERNS_13basic_ostreamIT_T0_EES7_PKS4_m+0x2c>
    6888: b90047e0     	str	w0, [sp, #0x44]
    688c: 14000001     	b	0x6890 <__ZNSt3__124__put_character_sequenceB8ne180100IcNS_11char_traitsIcEEEERNS_13basic_ostreamIT_T0_EES7_PKS4_m+0x38>
    6890: b94047e8     	ldr	w8, [sp, #0x44]
    6894: 36000c08     	tbz	w8, #0x0, 0x6a14 <__ZNSt3__124__put_character_sequenceB8ne180100IcNS_11char_traitsIcEEEERNS_13basic_ostreamIT_T0_EES7_PKS4_m+0x1bc>
    6898: 14000001     	b	0x689c <__ZNSt3__124__put_character_sequenceB8ne180100IcNS_11char_traitsIcEEEERNS_13basic_ostreamIT_T0_EES7_PKS4_m+0x44>
    689c: f85f83a1     	ldur	x1, [x29, #-0x8]
    68a0: 910123e0     	add	x0, sp, #0x48
    68a4: 94000000     	bl	0x68a4 <__ZNSt3__124__put_character_sequenceB8ne180100IcNS_11char_traitsIcEEEERNS_13basic_ostreamIT_T0_EES7_PKS4_m+0x4c>
    68a8: f85f03a8     	ldur	x8, [x29, #-0x10]
    68ac: f9001fe8     	str	x8, [sp, #0x38]
    68b0: f85f83a8     	ldur	x8, [x29, #-0x8]
    68b4: f9400109     	ldr	x9, [x8]
    68b8: f85e8129     	ldur	x9, [x9, #-0x18]
    68bc: 8b090100     	add	x0, x8, x9
    68c0: 94000000     	bl	0x68c0 <__ZNSt3__124__put_character_sequenceB8ne180100IcNS_11char_traitsIcEEEERNS_13basic_ostreamIT_T0_EES7_PKS4_m+0x68>
    68c4: b90043e0     	str	w0, [sp, #0x40]
    68c8: 14000001     	b	0x68cc <__ZNSt3__124__put_character_sequenceB8ne180100IcNS_11char_traitsIcEEEERNS_13basic_ostreamIT_T0_EES7_PKS4_m+0x74>
    68cc: b94043e8     	ldr	w8, [sp, #0x40]
    68d0: 52801609     	mov	w9, #0xb0               ; =176
    68d4: 0a090108     	and	w8, w8, w9
    68d8: 71008108     	subs	w8, w8, #0x20
    68dc: 1a9f07e8     	cset	w8, ne
    68e0: 370000e8     	tbnz	w8, #0x0, 0x68fc <__ZNSt3__124__put_character_sequenceB8ne180100IcNS_11char_traitsIcEEEERNS_13basic_ostreamIT_T0_EES7_PKS4_m+0xa4>
    68e4: 14000001     	b	0x68e8 <__ZNSt3__124__put_character_sequenceB8ne180100IcNS_11char_traitsIcEEEERNS_13basic_ostreamIT_T0_EES7_PKS4_m+0x90>
    68e8: f85f03a8     	ldur	x8, [x29, #-0x10]
    68ec: f85e83a9     	ldur	x9, [x29, #-0x18]
    68f0: 8b090108     	add	x8, x8, x9
    68f4: f9001be8     	str	x8, [sp, #0x30]
    68f8: 14000004     	b	0x6908 <__ZNSt3__124__put_character_sequenceB8ne180100IcNS_11char_traitsIcEEEERNS_13basic_ostreamIT_T0_EES7_PKS4_m+0xb0>
    68fc: f85f03a8     	ldur	x8, [x29, #-0x10]
    6900: f9001be8     	str	x8, [sp, #0x30]
    6904: 14000001     	b	0x6908 <__ZNSt3__124__put_character_sequenceB8ne180100IcNS_11char_traitsIcEEEERNS_13basic_ostreamIT_T0_EES7_PKS4_m+0xb0>
    6908: f9401be8     	ldr	x8, [sp, #0x30]
    690c: f9000be8     	str	x8, [sp, #0x10]
    6910: f85f03a8     	ldur	x8, [x29, #-0x10]
    6914: f85e83a9     	ldur	x9, [x29, #-0x18]
    6918: 8b090108     	add	x8, x8, x9
    691c: f9000fe8     	str	x8, [sp, #0x18]
    6920: f85f83a8     	ldur	x8, [x29, #-0x8]
    6924: f9400109     	ldr	x9, [x8]
    6928: f85e8129     	ldur	x9, [x9, #-0x18]
    692c: 8b090108     	add	x8, x8, x9
    6930: f90013e8     	str	x8, [sp, #0x20]
    6934: f85f83a8     	ldur	x8, [x29, #-0x8]
    6938: f9400109     	ldr	x9, [x8]
    693c: f85e8129     	ldur	x9, [x9, #-0x18]
    6940: 8b090100     	add	x0, x8, x9
    6944: 94000000     	bl	0x6944 <__ZNSt3__124__put_character_sequenceB8ne180100IcNS_11char_traitsIcEEEERNS_13basic_ostreamIT_T0_EES7_PKS4_m+0xec>
    6948: b9002fe0     	str	w0, [sp, #0x2c]
    694c: 14000001     	b	0x6950 <__ZNSt3__124__put_character_sequenceB8ne180100IcNS_11char_traitsIcEEEERNS_13basic_ostreamIT_T0_EES7_PKS4_m+0xf8>
    6950: b9402fe8     	ldr	w8, [sp, #0x2c]
    6954: f94013e4     	ldr	x4, [sp, #0x20]
    6958: f9400fe3     	ldr	x3, [sp, #0x18]
    695c: f9400be2     	ldr	x2, [sp, #0x10]
    6960: f9401fe1     	ldr	x1, [sp, #0x38]
    6964: f94027e0     	ldr	x0, [sp, #0x48]
    6968: 13001d05     	sxtb	w5, w8
    696c: 94000000     	bl	0x696c <__ZNSt3__124__put_character_sequenceB8ne180100IcNS_11char_traitsIcEEEERNS_13basic_ostreamIT_T0_EES7_PKS4_m+0x114>
    6970: f90007e0     	str	x0, [sp, #0x8]
    6974: 14000001     	b	0x6978 <__ZNSt3__124__put_character_sequenceB8ne180100IcNS_11char_traitsIcEEEERNS_13basic_ostreamIT_T0_EES7_PKS4_m+0x120>
    6978: f94007e8     	ldr	x8, [sp, #0x8]
    697c: d10103a0     	sub	x0, x29, #0x40
    6980: f81c03a8     	stur	x8, [x29, #-0x40]
    6984: 94000000     	bl	0x6984 <__ZNSt3__124__put_character_sequenceB8ne180100IcNS_11char_traitsIcEEEERNS_13basic_ostreamIT_T0_EES7_PKS4_m+0x12c>
    6988: 36000440     	tbz	w0, #0x0, 0x6a10 <__ZNSt3__124__put_character_sequenceB8ne180100IcNS_11char_traitsIcEEEERNS_13basic_ostreamIT_T0_EES7_PKS4_m+0x1b8>
    698c: 14000001     	b	0x6990 <__ZNSt3__124__put_character_sequenceB8ne180100IcNS_11char_traitsIcEEEERNS_13basic_ostreamIT_T0_EES7_PKS4_m+0x138>
    6990: f85f83a8     	ldur	x8, [x29, #-0x8]
    6994: f9400109     	ldr	x9, [x8]
    6998: f85e8129     	ldur	x9, [x9, #-0x18]
    699c: 8b090100     	add	x0, x8, x9
    69a0: 528000a1     	mov	w1, #0x5                ; =5
    69a4: 94000000     	bl	0x69a4 <__ZNSt3__124__put_character_sequenceB8ne180100IcNS_11char_traitsIcEEEERNS_13basic_ostreamIT_T0_EES7_PKS4_m+0x14c>
    69a8: 14000001     	b	0x69ac <__ZNSt3__124__put_character_sequenceB8ne180100IcNS_11char_traitsIcEEEERNS_13basic_ostreamIT_T0_EES7_PKS4_m+0x154>
    69ac: 14000019     	b	0x6a10 <__ZNSt3__124__put_character_sequenceB8ne180100IcNS_11char_traitsIcEEEERNS_13basic_ostreamIT_T0_EES7_PKS4_m+0x1b8>
    69b0: f81d03a0     	stur	x0, [x29, #-0x30]
    69b4: aa0103e8     	mov	x8, x1
    69b8: b81cc3a8     	stur	w8, [x29, #-0x34]
    69bc: 14000007     	b	0x69d8 <__ZNSt3__124__put_character_sequenceB8ne180100IcNS_11char_traitsIcEEEERNS_13basic_ostreamIT_T0_EES7_PKS4_m+0x180>
    69c0: f81d03a0     	stur	x0, [x29, #-0x30]
    69c4: aa0103e8     	mov	x8, x1
    69c8: b81cc3a8     	stur	w8, [x29, #-0x34]
    69cc: d100a3a0     	sub	x0, x29, #0x28
    69d0: 94000000     	bl	0x69d0 <__ZNSt3__124__put_character_sequenceB8ne180100IcNS_11char_traitsIcEEEERNS_13basic_ostreamIT_T0_EES7_PKS4_m+0x178>
    69d4: 14000001     	b	0x69d8 <__ZNSt3__124__put_character_sequenceB8ne180100IcNS_11char_traitsIcEEEERNS_13basic_ostreamIT_T0_EES7_PKS4_m+0x180>
    69d8: f85d03a0     	ldur	x0, [x29, #-0x30]
    69dc: 94000000     	bl	0x69dc <__ZNSt3__124__put_character_sequenceB8ne180100IcNS_11char_traitsIcEEEERNS_13basic_ostreamIT_T0_EES7_PKS4_m+0x184>
    69e0: f85f83a8     	ldur	x8, [x29, #-0x8]
    69e4: f9400109     	ldr	x9, [x8]
    69e8: f85e8129     	ldur	x9, [x9, #-0x18]
    69ec: 8b090100     	add	x0, x8, x9
    69f0: 94000000     	bl	0x69f0 <__ZNSt3__124__put_character_sequenceB8ne180100IcNS_11char_traitsIcEEEERNS_13basic_ostreamIT_T0_EES7_PKS4_m+0x198>
    69f4: 14000001     	b	0x69f8 <__ZNSt3__124__put_character_sequenceB8ne180100IcNS_11char_traitsIcEEEERNS_13basic_ostreamIT_T0_EES7_PKS4_m+0x1a0>
    69f8: 94000000     	bl	0x69f8 <__ZNSt3__124__put_character_sequenceB8ne180100IcNS_11char_traitsIcEEEERNS_13basic_ostreamIT_T0_EES7_PKS4_m+0x1a0>
    69fc: 14000001     	b	0x6a00 <__ZNSt3__124__put_character_sequenceB8ne180100IcNS_11char_traitsIcEEEERNS_13basic_ostreamIT_T0_EES7_PKS4_m+0x1a8>
    6a00: f85f83a0     	ldur	x0, [x29, #-0x8]
    6a04: a9497bfd     	ldp	x29, x30, [sp, #0x90]
    6a08: 910283ff     	add	sp, sp, #0xa0
    6a0c: d65f03c0     	ret
    6a10: 14000001     	b	0x6a14 <__ZNSt3__124__put_character_sequenceB8ne180100IcNS_11char_traitsIcEEEERNS_13basic_ostreamIT_T0_EES7_PKS4_m+0x1bc>
    6a14: d100a3a0     	sub	x0, x29, #0x28
    6a18: 94000000     	bl	0x6a18 <__ZNSt3__124__put_character_sequenceB8ne180100IcNS_11char_traitsIcEEEERNS_13basic_ostreamIT_T0_EES7_PKS4_m+0x1c0>
    6a1c: 17fffff9     	b	0x6a00 <__ZNSt3__124__put_character_sequenceB8ne180100IcNS_11char_traitsIcEEEERNS_13basic_ostreamIT_T0_EES7_PKS4_m+0x1a8>
    6a20: f81d03a0     	stur	x0, [x29, #-0x30]
    6a24: aa0103e8     	mov	x8, x1
    6a28: b81cc3a8     	stur	w8, [x29, #-0x34]
    6a2c: 94000000     	bl	0x6a2c <__ZNSt3__124__put_character_sequenceB8ne180100IcNS_11char_traitsIcEEEERNS_13basic_ostreamIT_T0_EES7_PKS4_m+0x1d4>
    6a30: 14000001     	b	0x6a34 <__ZNSt3__124__put_character_sequenceB8ne180100IcNS_11char_traitsIcEEEERNS_13basic_ostreamIT_T0_EES7_PKS4_m+0x1dc>
    6a34: 14000001     	b	0x6a38 <__ZNSt3__124__put_character_sequenceB8ne180100IcNS_11char_traitsIcEEEERNS_13basic_ostreamIT_T0_EES7_PKS4_m+0x1e0>
    6a38: f85d03a0     	ldur	x0, [x29, #-0x30]
    6a3c: 94000000     	bl	0x6a3c <__ZNSt3__124__put_character_sequenceB8ne180100IcNS_11char_traitsIcEEEERNS_13basic_ostreamIT_T0_EES7_PKS4_m+0x1e4>
    6a40: 94000000     	bl	0x6a40 <__ZNSt3__124__put_character_sequenceB8ne180100IcNS_11char_traitsIcEEEERNS_13basic_ostreamIT_T0_EES7_PKS4_m+0x1e8>

0000000000006a44 <__ZNSt3__111char_traitsIcE6lengthB8ne180100EPKc>:
    6a44: d10083ff     	sub	sp, sp, #0x20
    6a48: a9017bfd     	stp	x29, x30, [sp, #0x10]
    6a4c: 910043fd     	add	x29, sp, #0x10
    6a50: f90007e0     	str	x0, [sp, #0x8]
    6a54: f94007e0     	ldr	x0, [sp, #0x8]
    6a58: 94000000     	bl	0x6a58 <__ZNSt3__111char_traitsIcE6lengthB8ne180100EPKc+0x14>
    6a5c: f90003e0     	str	x0, [sp]
    6a60: 14000001     	b	0x6a64 <__ZNSt3__111char_traitsIcE6lengthB8ne180100EPKc+0x20>
    6a64: f94003e0     	ldr	x0, [sp]
    6a68: a9417bfd     	ldp	x29, x30, [sp, #0x10]
    6a6c: 910083ff     	add	sp, sp, #0x20
    6a70: d65f03c0     	ret
    6a74: 94000000     	bl	0x6a74 <__ZNSt3__111char_traitsIcE6lengthB8ne180100EPKc+0x30>

0000000000006a78 <__ZNKSt3__113basic_ostreamIcNS_11char_traitsIcEEE6sentrycvbB8ne180100Ev>:
    6a78: d10043ff     	sub	sp, sp, #0x10
    6a7c: f90007e0     	str	x0, [sp, #0x8]
    6a80: f94007e8     	ldr	x8, [sp, #0x8]
    6a84: 39400108     	ldrb	w8, [x8]
    6a88: 12000100     	and	w0, w8, #0x1
    6a8c: 910043ff     	add	sp, sp, #0x10
    6a90: d65f03c0     	ret

0000000000006a94 <__ZNSt3__116__pad_and_outputB8ne180100IcNS_11char_traitsIcEEEENS_19ostreambuf_iteratorIT_T0_EES6_PKS4_S8_S8_RNS_8ios_baseES4_>:
    6a94: d10283ff     	sub	sp, sp, #0xa0
    6a98: a9097bfd     	stp	x29, x30, [sp, #0x90]
    6a9c: 910243fd     	add	x29, sp, #0x90
    6aa0: f81f03a0     	stur	x0, [x29, #-0x10]
    6aa4: f81e83a1     	stur	x1, [x29, #-0x18]
    6aa8: f81e03a2     	stur	x2, [x29, #-0x20]
    6aac: f81d83a3     	stur	x3, [x29, #-0x28]
    6ab0: f81d03a4     	stur	x4, [x29, #-0x30]
    6ab4: 381cf3a5     	sturb	w5, [x29, #-0x31]
    6ab8: f85f03a8     	ldur	x8, [x29, #-0x10]
    6abc: f1000108     	subs	x8, x8, #0x0
    6ac0: 1a9f07e8     	cset	w8, ne
    6ac4: 370000a8     	tbnz	w8, #0x0, 0x6ad8 <__ZNSt3__116__pad_and_outputB8ne180100IcNS_11char_traitsIcEEEENS_19ostreambuf_iteratorIT_T0_EES6_PKS4_S8_S8_RNS_8ios_baseES4_+0x44>
    6ac8: 14000001     	b	0x6acc <__ZNSt3__116__pad_and_outputB8ne180100IcNS_11char_traitsIcEEEENS_19ostreambuf_iteratorIT_T0_EES6_PKS4_S8_S8_RNS_8ios_baseES4_+0x38>
    6acc: f85f03a8     	ldur	x8, [x29, #-0x10]
    6ad0: f81f83a8     	stur	x8, [x29, #-0x8]
    6ad4: 1400007a     	b	0x6cbc <__ZNSt3__116__pad_and_outputB8ne180100IcNS_11char_traitsIcEEEENS_19ostreambuf_iteratorIT_T0_EES6_PKS4_S8_S8_RNS_8ios_baseES4_+0x228>
    6ad8: f85d83a8     	ldur	x8, [x29, #-0x28]
    6adc: f85e83a9     	ldur	x9, [x29, #-0x18]
    6ae0: eb090108     	subs	x8, x8, x9
    6ae4: f81c03a8     	stur	x8, [x29, #-0x40]
    6ae8: f85d03a0     	ldur	x0, [x29, #-0x30]
    6aec: 94000000     	bl	0x6aec <__ZNSt3__116__pad_and_outputB8ne180100IcNS_11char_traitsIcEEEENS_19ostreambuf_iteratorIT_T0_EES6_PKS4_S8_S8_RNS_8ios_baseES4_+0x58>
    6af0: f90027e0     	str	x0, [sp, #0x48]
    6af4: f94027e8     	ldr	x8, [sp, #0x48]
    6af8: f85c03a9     	ldur	x9, [x29, #-0x40]
    6afc: eb090108     	subs	x8, x8, x9
    6b00: 1a9fc7e8     	cset	w8, le
    6b04: 370000e8     	tbnz	w8, #0x0, 0x6b20 <__ZNSt3__116__pad_and_outputB8ne180100IcNS_11char_traitsIcEEEENS_19ostreambuf_iteratorIT_T0_EES6_PKS4_S8_S8_RNS_8ios_baseES4_+0x8c>
    6b08: 14000001     	b	0x6b0c <__ZNSt3__116__pad_and_outputB8ne180100IcNS_11char_traitsIcEEEENS_19ostreambuf_iteratorIT_T0_EES6_PKS4_S8_S8_RNS_8ios_baseES4_+0x78>
    6b0c: f85c03a9     	ldur	x9, [x29, #-0x40]
    6b10: f94027e8     	ldr	x8, [sp, #0x48]
    6b14: eb090108     	subs	x8, x8, x9
    6b18: f90027e8     	str	x8, [sp, #0x48]
    6b1c: 14000003     	b	0x6b28 <__ZNSt3__116__pad_and_outputB8ne180100IcNS_11char_traitsIcEEEENS_19ostreambuf_iteratorIT_T0_EES6_PKS4_S8_S8_RNS_8ios_baseES4_+0x94>
    6b20: f90027ff     	str	xzr, [sp, #0x48]
    6b24: 14000001     	b	0x6b28 <__ZNSt3__116__pad_and_outputB8ne180100IcNS_11char_traitsIcEEEENS_19ostreambuf_iteratorIT_T0_EES6_PKS4_S8_S8_RNS_8ios_baseES4_+0x94>
    6b28: f85e03a8     	ldur	x8, [x29, #-0x20]
    6b2c: f85e83a9     	ldur	x9, [x29, #-0x18]
    6b30: eb090108     	subs	x8, x8, x9
    6b34: f90023e8     	str	x8, [sp, #0x40]
    6b38: f94023e8     	ldr	x8, [sp, #0x40]
    6b3c: f1000108     	subs	x8, x8, #0x0
    6b40: 1a9fc7e8     	cset	w8, le
    6b44: 37000208     	tbnz	w8, #0x0, 0x6b84 <__ZNSt3__116__pad_and_outputB8ne180100IcNS_11char_traitsIcEEEENS_19ostreambuf_iteratorIT_T0_EES6_PKS4_S8_S8_RNS_8ios_baseES4_+0xf0>
    6b48: 14000001     	b	0x6b4c <__ZNSt3__116__pad_and_outputB8ne180100IcNS_11char_traitsIcEEEENS_19ostreambuf_iteratorIT_T0_EES6_PKS4_S8_S8_RNS_8ios_baseES4_+0xb8>
    6b4c: f85f03a0     	ldur	x0, [x29, #-0x10]
    6b50: f85e83a1     	ldur	x1, [x29, #-0x18]
    6b54: f94023e2     	ldr	x2, [sp, #0x40]
    6b58: 94000000     	bl	0x6b58 <__ZNSt3__116__pad_and_outputB8ne180100IcNS_11char_traitsIcEEEENS_19ostreambuf_iteratorIT_T0_EES6_PKS4_S8_S8_RNS_8ios_baseES4_+0xc4>
    6b5c: f94023e8     	ldr	x8, [sp, #0x40]
    6b60: eb080008     	subs	x8, x0, x8
    6b64: 1a9f17e8     	cset	w8, eq
    6b68: 370000c8     	tbnz	w8, #0x0, 0x6b80 <__ZNSt3__116__pad_and_outputB8ne180100IcNS_11char_traitsIcEEEENS_19ostreambuf_iteratorIT_T0_EES6_PKS4_S8_S8_RNS_8ios_baseES4_+0xec>
    6b6c: 14000001     	b	0x6b70 <__ZNSt3__116__pad_and_outputB8ne180100IcNS_11char_traitsIcEEEENS_19ostreambuf_iteratorIT_T0_EES6_PKS4_S8_S8_RNS_8ios_baseES4_+0xdc>
    6b70: f81f03bf     	stur	xzr, [x29, #-0x10]
    6b74: f85f03a8     	ldur	x8, [x29, #-0x10]
    6b78: f81f83a8     	stur	x8, [x29, #-0x8]
    6b7c: 14000050     	b	0x6cbc <__ZNSt3__116__pad_and_outputB8ne180100IcNS_11char_traitsIcEEEENS_19ostreambuf_iteratorIT_T0_EES6_PKS4_S8_S8_RNS_8ios_baseES4_+0x228>
    6b80: 14000001     	b	0x6b84 <__ZNSt3__116__pad_and_outputB8ne180100IcNS_11char_traitsIcEEEENS_19ostreambuf_iteratorIT_T0_EES6_PKS4_S8_S8_RNS_8ios_baseES4_+0xf0>
    6b84: f94027e8     	ldr	x8, [sp, #0x48]
    6b88: f1000108     	subs	x8, x8, #0x0
    6b8c: 1a9fc7e8     	cset	w8, le
    6b90: 370005c8     	tbnz	w8, #0x0, 0x6c48 <__ZNSt3__116__pad_and_outputB8ne180100IcNS_11char_traitsIcEEEENS_19ostreambuf_iteratorIT_T0_EES6_PKS4_S8_S8_RNS_8ios_baseES4_+0x1b4>
    6b94: 14000001     	b	0x6b98 <__ZNSt3__116__pad_and_outputB8ne180100IcNS_11char_traitsIcEEEENS_19ostreambuf_iteratorIT_T0_EES6_PKS4_S8_S8_RNS_8ios_baseES4_+0x104>
    6b98: f94027e1     	ldr	x1, [sp, #0x48]
    6b9c: 38dcf3a2     	ldursb	w2, [x29, #-0x31]
    6ba0: 9100a3e0     	add	x0, sp, #0x28
    6ba4: f90003e0     	str	x0, [sp]
    6ba8: 94000000     	bl	0x6ba8 <__ZNSt3__116__pad_and_outputB8ne180100IcNS_11char_traitsIcEEEENS_19ostreambuf_iteratorIT_T0_EES6_PKS4_S8_S8_RNS_8ios_baseES4_+0x114>
    6bac: f94003e0     	ldr	x0, [sp]
    6bb0: f85f03a8     	ldur	x8, [x29, #-0x10]
    6bb4: f90007e8     	str	x8, [sp, #0x8]
    6bb8: 94000000     	bl	0x6bb8 <__ZNSt3__116__pad_and_outputB8ne180100IcNS_11char_traitsIcEEEENS_19ostreambuf_iteratorIT_T0_EES6_PKS4_S8_S8_RNS_8ios_baseES4_+0x124>
    6bbc: aa0003e1     	mov	x1, x0
    6bc0: f94007e0     	ldr	x0, [sp, #0x8]
    6bc4: f94027e2     	ldr	x2, [sp, #0x48]
    6bc8: 94000000     	bl	0x6bc8 <__ZNSt3__116__pad_and_outputB8ne180100IcNS_11char_traitsIcEEEENS_19ostreambuf_iteratorIT_T0_EES6_PKS4_S8_S8_RNS_8ios_baseES4_+0x134>
    6bcc: f9000be0     	str	x0, [sp, #0x10]
    6bd0: 14000001     	b	0x6bd4 <__ZNSt3__116__pad_and_outputB8ne180100IcNS_11char_traitsIcEEEENS_19ostreambuf_iteratorIT_T0_EES6_PKS4_S8_S8_RNS_8ios_baseES4_+0x140>
    6bd4: f9400be8     	ldr	x8, [sp, #0x10]
    6bd8: f94027e9     	ldr	x9, [sp, #0x48]
    6bdc: eb090108     	subs	x8, x8, x9
    6be0: 1a9f17e8     	cset	w8, eq
    6be4: 370001c8     	tbnz	w8, #0x0, 0x6c1c <__ZNSt3__116__pad_and_outputB8ne180100IcNS_11char_traitsIcEEEENS_19ostreambuf_iteratorIT_T0_EES6_PKS4_S8_S8_RNS_8ios_baseES4_+0x188>
    6be8: 14000001     	b	0x6bec <__ZNSt3__116__pad_and_outputB8ne180100IcNS_11char_traitsIcEEEENS_19ostreambuf_iteratorIT_T0_EES6_PKS4_S8_S8_RNS_8ios_baseES4_+0x158>
    6bec: f81f03bf     	stur	xzr, [x29, #-0x10]
    6bf0: f85f03a8     	ldur	x8, [x29, #-0x10]
    6bf4: f81f83a8     	stur	x8, [x29, #-0x8]
    6bf8: 52800028     	mov	w8, #0x1                ; =1
    6bfc: b9001be8     	str	w8, [sp, #0x18]
    6c00: 14000009     	b	0x6c24 <__ZNSt3__116__pad_and_outputB8ne180100IcNS_11char_traitsIcEEEENS_19ostreambuf_iteratorIT_T0_EES6_PKS4_S8_S8_RNS_8ios_baseES4_+0x190>
    6c04: f90013e0     	str	x0, [sp, #0x20]
    6c08: aa0103e8     	mov	x8, x1
    6c0c: b9001fe8     	str	w8, [sp, #0x1c]
    6c10: 9100a3e0     	add	x0, sp, #0x28
    6c14: 94000000     	bl	0x6c14 <__ZNSt3__116__pad_and_outputB8ne180100IcNS_11char_traitsIcEEEENS_19ostreambuf_iteratorIT_T0_EES6_PKS4_S8_S8_RNS_8ios_baseES4_+0x180>
    6c18: 1400002d     	b	0x6ccc <__ZNSt3__116__pad_and_outputB8ne180100IcNS_11char_traitsIcEEEENS_19ostreambuf_iteratorIT_T0_EES6_PKS4_S8_S8_RNS_8ios_baseES4_+0x238>
    6c1c: b9001bff     	str	wzr, [sp, #0x18]
    6c20: 14000001     	b	0x6c24 <__ZNSt3__116__pad_and_outputB8ne180100IcNS_11char_traitsIcEEEENS_19ostreambuf_iteratorIT_T0_EES6_PKS4_S8_S8_RNS_8ios_baseES4_+0x190>
    6c24: 9100a3e0     	add	x0, sp, #0x28
    6c28: 94000000     	bl	0x6c28 <__ZNSt3__116__pad_and_outputB8ne180100IcNS_11char_traitsIcEEEENS_19ostreambuf_iteratorIT_T0_EES6_PKS4_S8_S8_RNS_8ios_baseES4_+0x194>
    6c2c: b9401be8     	ldr	w8, [sp, #0x18]
    6c30: 71000108     	subs	w8, w8, #0x0
    6c34: 1a9f17e8     	cset	w8, eq
    6c38: 37000068     	tbnz	w8, #0x0, 0x6c44 <__ZNSt3__116__pad_and_outputB8ne180100IcNS_11char_traitsIcEEEENS_19ostreambuf_iteratorIT_T0_EES6_PKS4_S8_S8_RNS_8ios_baseES4_+0x1b0>
    6c3c: 14000001     	b	0x6c40 <__ZNSt3__116__pad_and_outputB8ne180100IcNS_11char_traitsIcEEEENS_19ostreambuf_iteratorIT_T0_EES6_PKS4_S8_S8_RNS_8ios_baseES4_+0x1ac>
    6c40: 1400001f     	b	0x6cbc <__ZNSt3__116__pad_and_outputB8ne180100IcNS_11char_traitsIcEEEENS_19ostreambuf_iteratorIT_T0_EES6_PKS4_S8_S8_RNS_8ios_baseES4_+0x228>
    6c44: 14000001     	b	0x6c48 <__ZNSt3__116__pad_and_outputB8ne180100IcNS_11char_traitsIcEEEENS_19ostreambuf_iteratorIT_T0_EES6_PKS4_S8_S8_RNS_8ios_baseES4_+0x1b4>
    6c48: f85d83a8     	ldur	x8, [x29, #-0x28]
    6c4c: f85e03a9     	ldur	x9, [x29, #-0x20]
    6c50: eb090108     	subs	x8, x8, x9
    6c54: f90023e8     	str	x8, [sp, #0x40]
    6c58: f94023e8     	ldr	x8, [sp, #0x40]
    6c5c: f1000108     	subs	x8, x8, #0x0
    6c60: 1a9fc7e8     	cset	w8, le
    6c64: 37000208     	tbnz	w8, #0x0, 0x6ca4 <__ZNSt3__116__pad_and_outputB8ne180100IcNS_11char_traitsIcEEEENS_19ostreambuf_iteratorIT_T0_EES6_PKS4_S8_S8_RNS_8ios_baseES4_+0x210>
    6c68: 14000001     	b	0x6c6c <__ZNSt3__116__pad_and_outputB8ne180100IcNS_11char_traitsIcEEEENS_19ostreambuf_iteratorIT_T0_EES6_PKS4_S8_S8_RNS_8ios_baseES4_+0x1d8>
    6c6c: f85f03a0     	ldur	x0, [x29, #-0x10]
    6c70: f85e03a1     	ldur	x1, [x29, #-0x20]
    6c74: f94023e2     	ldr	x2, [sp, #0x40]
    6c78: 94000000     	bl	0x6c78 <__ZNSt3__116__pad_and_outputB8ne180100IcNS_11char_traitsIcEEEENS_19ostreambuf_iteratorIT_T0_EES6_PKS4_S8_S8_RNS_8ios_baseES4_+0x1e4>
    6c7c: f94023e8     	ldr	x8, [sp, #0x40]
    6c80: eb080008     	subs	x8, x0, x8
    6c84: 1a9f17e8     	cset	w8, eq
    6c88: 370000c8     	tbnz	w8, #0x0, 0x6ca0 <__ZNSt3__116__pad_and_outputB8ne180100IcNS_11char_traitsIcEEEENS_19ostreambuf_iteratorIT_T0_EES6_PKS4_S8_S8_RNS_8ios_baseES4_+0x20c>
    6c8c: 14000001     	b	0x6c90 <__ZNSt3__116__pad_and_outputB8ne180100IcNS_11char_traitsIcEEEENS_19ostreambuf_iteratorIT_T0_EES6_PKS4_S8_S8_RNS_8ios_baseES4_+0x1fc>
    6c90: f81f03bf     	stur	xzr, [x29, #-0x10]
    6c94: f85f03a8     	ldur	x8, [x29, #-0x10]
    6c98: f81f83a8     	stur	x8, [x29, #-0x8]
    6c9c: 14000008     	b	0x6cbc <__ZNSt3__116__pad_and_outputB8ne180100IcNS_11char_traitsIcEEEENS_19ostreambuf_iteratorIT_T0_EES6_PKS4_S8_S8_RNS_8ios_baseES4_+0x228>
    6ca0: 14000001     	b	0x6ca4 <__ZNSt3__116__pad_and_outputB8ne180100IcNS_11char_traitsIcEEEENS_19ostreambuf_iteratorIT_T0_EES6_PKS4_S8_S8_RNS_8ios_baseES4_+0x210>
    6ca4: f85d03a0     	ldur	x0, [x29, #-0x30]
    6ca8: d2800001     	mov	x1, #0x0                ; =0
    6cac: 94000000     	bl	0x6cac <__ZNSt3__116__pad_and_outputB8ne180100IcNS_11char_traitsIcEEEENS_19ostreambuf_iteratorIT_T0_EES6_PKS4_S8_S8_RNS_8ios_baseES4_+0x218>
    6cb0: f85f03a8     	ldur	x8, [x29, #-0x10]
    6cb4: f81f83a8     	stur	x8, [x29, #-0x8]
    6cb8: 14000001     	b	0x6cbc <__ZNSt3__116__pad_and_outputB8ne180100IcNS_11char_traitsIcEEEENS_19ostreambuf_iteratorIT_T0_EES6_PKS4_S8_S8_RNS_8ios_baseES4_+0x228>
    6cbc: f85f83a0     	ldur	x0, [x29, #-0x8]
    6cc0: a9497bfd     	ldp	x29, x30, [sp, #0x90]
    6cc4: 910283ff     	add	sp, sp, #0xa0
    6cc8: d65f03c0     	ret
    6ccc: f94013e0     	ldr	x0, [sp, #0x20]
    6cd0: 94000000     	bl	0x6cd0 <__ZNSt3__116__pad_and_outputB8ne180100IcNS_11char_traitsIcEEEENS_19ostreambuf_iteratorIT_T0_EES6_PKS4_S8_S8_RNS_8ios_baseES4_+0x23c>

0000000000006cd4 <__ZNSt3__119ostreambuf_iteratorIcNS_11char_traitsIcEEEC1B8ne180100ERNS_13basic_ostreamIcS2_EE>:
    6cd4: d100c3ff     	sub	sp, sp, #0x30
    6cd8: a9027bfd     	stp	x29, x30, [sp, #0x20]
    6cdc: 910083fd     	add	x29, sp, #0x20
    6ce0: f81f83a0     	stur	x0, [x29, #-0x8]
    6ce4: f9000be1     	str	x1, [sp, #0x10]
    6ce8: f85f83a0     	ldur	x0, [x29, #-0x8]
    6cec: f90007e0     	str	x0, [sp, #0x8]
    6cf0: f9400be1     	ldr	x1, [sp, #0x10]
    6cf4: 94000000     	bl	0x6cf4 <__ZNSt3__119ostreambuf_iteratorIcNS_11char_traitsIcEEEC1B8ne180100ERNS_13basic_ostreamIcS2_EE+0x20>
    6cf8: f94007e0     	ldr	x0, [sp, #0x8]
    6cfc: a9427bfd     	ldp	x29, x30, [sp, #0x20]
    6d00: 9100c3ff     	add	sp, sp, #0x30
    6d04: d65f03c0     	ret

0000000000006d08 <__ZNKSt3__18ios_base5flagsB8ne180100Ev>:
    6d08: d10043ff     	sub	sp, sp, #0x10
    6d0c: f90007e0     	str	x0, [sp, #0x8]
    6d10: f94007e8     	ldr	x8, [sp, #0x8]
    6d14: b9400900     	ldr	w0, [x8, #0x8]
    6d18: 910043ff     	add	sp, sp, #0x10
    6d1c: d65f03c0     	ret

0000000000006d20 <__ZNKSt3__19basic_iosIcNS_11char_traitsIcEEE4fillB8ne180100Ev>:
    6d20: d10083ff     	sub	sp, sp, #0x20
    6d24: a9017bfd     	stp	x29, x30, [sp, #0x10]
    6d28: 910043fd     	add	x29, sp, #0x10
    6d2c: f90007e0     	str	x0, [sp, #0x8]
    6d30: f94007e8     	ldr	x8, [sp, #0x8]
    6d34: f90003e8     	str	x8, [sp]
    6d38: 94000000     	bl	0x6d38 <__ZNKSt3__19basic_iosIcNS_11char_traitsIcEEE4fillB8ne180100Ev+0x18>
    6d3c: f94003e8     	ldr	x8, [sp]
    6d40: b9409101     	ldr	w1, [x8, #0x90]
    6d44: 94000000     	bl	0x6d44 <__ZNKSt3__19basic_iosIcNS_11char_traitsIcEEE4fillB8ne180100Ev+0x24>
    6d48: 36000120     	tbz	w0, #0x0, 0x6d6c <__ZNKSt3__19basic_iosIcNS_11char_traitsIcEEE4fillB8ne180100Ev+0x4c>
    6d4c: 14000001     	b	0x6d50 <__ZNKSt3__19basic_iosIcNS_11char_traitsIcEEE4fillB8ne180100Ev+0x30>
    6d50: f94003e0     	ldr	x0, [sp]
    6d54: 52800401     	mov	w1, #0x20               ; =32
    6d58: 94000000     	bl	0x6d58 <__ZNKSt3__19basic_iosIcNS_11char_traitsIcEEE4fillB8ne180100Ev+0x38>
    6d5c: f94003e9     	ldr	x9, [sp]
    6d60: 13001c08     	sxtb	w8, w0
    6d64: b9009128     	str	w8, [x9, #0x90]
    6d68: 14000001     	b	0x6d6c <__ZNKSt3__19basic_iosIcNS_11char_traitsIcEEE4fillB8ne180100Ev+0x4c>
    6d6c: f94003e8     	ldr	x8, [sp]
    6d70: b9409108     	ldr	w8, [x8, #0x90]
    6d74: 13001d00     	sxtb	w0, w8
    6d78: a9417bfd     	ldp	x29, x30, [sp, #0x10]
    6d7c: 910083ff     	add	sp, sp, #0x20
    6d80: d65f03c0     	ret

0000000000006d84 <__ZNKSt3__119ostreambuf_iteratorIcNS_11char_traitsIcEEE6failedB8ne180100Ev>:
    6d84: d10043ff     	sub	sp, sp, #0x10
    6d88: f90007e0     	str	x0, [sp, #0x8]
    6d8c: f94007e8     	ldr	x8, [sp, #0x8]
    6d90: f9400108     	ldr	x8, [x8]
    6d94: f1000108     	subs	x8, x8, #0x0
    6d98: 1a9f17e8     	cset	w8, eq
    6d9c: 12000100     	and	w0, w8, #0x1
    6da0: 910043ff     	add	sp, sp, #0x10
    6da4: d65f03c0     	ret

0000000000006da8 <__ZNSt3__19basic_iosIcNS_11char_traitsIcEEE8setstateB8ne180100Ej>:
    6da8: d10083ff     	sub	sp, sp, #0x20
    6dac: a9017bfd     	stp	x29, x30, [sp, #0x10]
    6db0: 910043fd     	add	x29, sp, #0x10
    6db4: f90007e0     	str	x0, [sp, #0x8]
    6db8: b90007e1     	str	w1, [sp, #0x4]
    6dbc: f94007e0     	ldr	x0, [sp, #0x8]
    6dc0: b94007e1     	ldr	w1, [sp, #0x4]
    6dc4: 94000000     	bl	0x6dc4 <__ZNSt3__19basic_iosIcNS_11char_traitsIcEEE8setstateB8ne180100Ej+0x1c>
    6dc8: a9417bfd     	ldp	x29, x30, [sp, #0x10]
    6dcc: 910083ff     	add	sp, sp, #0x20
    6dd0: d65f03c0     	ret

0000000000006dd4 <__ZNKSt3__18ios_base5widthB8ne180100Ev>:
    6dd4: d10043ff     	sub	sp, sp, #0x10
    6dd8: f90007e0     	str	x0, [sp, #0x8]
    6ddc: f94007e8     	ldr	x8, [sp, #0x8]
    6de0: f9400d00     	ldr	x0, [x8, #0x18]
    6de4: 910043ff     	add	sp, sp, #0x10
    6de8: d65f03c0     	ret

0000000000006dec <__ZNSt3__115basic_streambufIcNS_11char_traitsIcEEE5sputnB8ne180100EPKcl>:
    6dec: d100c3ff     	sub	sp, sp, #0x30
    6df0: a9027bfd     	stp	x29, x30, [sp, #0x20]
    6df4: 910083fd     	add	x29, sp, #0x20
    6df8: f81f83a0     	stur	x0, [x29, #-0x8]
    6dfc: f9000be1     	str	x1, [sp, #0x10]
    6e00: f90007e2     	str	x2, [sp, #0x8]
    6e04: f85f83a0     	ldur	x0, [x29, #-0x8]
    6e08: f9400be1     	ldr	x1, [sp, #0x10]
    6e0c: f94007e2     	ldr	x2, [sp, #0x8]
    6e10: f9400008     	ldr	x8, [x0]
    6e14: f9403108     	ldr	x8, [x8, #0x60]
    6e18: d63f0100     	blr	x8
    6e1c: a9427bfd     	ldp	x29, x30, [sp, #0x20]
    6e20: 9100c3ff     	add	sp, sp, #0x30
    6e24: d65f03c0     	ret

0000000000006e28 <__ZNSt3__112basic_stringIcNS_11char_traitsIcEENS_9allocatorIcEEEC1B8ne180100Emc>:
    6e28: d100c3ff     	sub	sp, sp, #0x30
    6e2c: a9027bfd     	stp	x29, x30, [sp, #0x20]
    6e30: 910083fd     	add	x29, sp, #0x20
    6e34: f81f83a0     	stur	x0, [x29, #-0x8]
    6e38: f9000be1     	str	x1, [sp, #0x10]
    6e3c: 39003fe2     	strb	w2, [sp, #0xf]
    6e40: f85f83a0     	ldur	x0, [x29, #-0x8]
    6e44: f90003e0     	str	x0, [sp]
    6e48: f9400be1     	ldr	x1, [sp, #0x10]
    6e4c: 39c03fe2     	ldrsb	w2, [sp, #0xf]
    6e50: 94000000     	bl	0x6e50 <__ZNSt3__112basic_stringIcNS_11char_traitsIcEENS_9allocatorIcEEEC1B8ne180100Emc+0x28>
    6e54: f94003e0     	ldr	x0, [sp]
    6e58: a9427bfd     	ldp	x29, x30, [sp, #0x20]
    6e5c: 9100c3ff     	add	sp, sp, #0x30
    6e60: d65f03c0     	ret

0000000000006e64 <__ZNSt3__112basic_stringIcNS_11char_traitsIcEENS_9allocatorIcEEE4dataB8ne180100Ev>:
    6e64: d10083ff     	sub	sp, sp, #0x20
    6e68: a9017bfd     	stp	x29, x30, [sp, #0x10]
    6e6c: 910043fd     	add	x29, sp, #0x10
    6e70: f90007e0     	str	x0, [sp, #0x8]
    6e74: f94007e0     	ldr	x0, [sp, #0x8]
    6e78: 94000000     	bl	0x6e78 <__ZNSt3__112basic_stringIcNS_11char_traitsIcEENS_9allocatorIcEEE4dataB8ne180100Ev+0x14>
    6e7c: 94000000     	bl	0x6e7c <__ZNSt3__112basic_stringIcNS_11char_traitsIcEENS_9allocatorIcEEE4dataB8ne180100Ev+0x18>
    6e80: a9417bfd     	ldp	x29, x30, [sp, #0x10]
    6e84: 910083ff     	add	sp, sp, #0x20
    6e88: d65f03c0     	ret

0000000000006e8c <__ZNSt3__18ios_base5widthB8ne180100El>:
    6e8c: d10083ff     	sub	sp, sp, #0x20
    6e90: f9000fe0     	str	x0, [sp, #0x18]
    6e94: f9000be1     	str	x1, [sp, #0x10]
    6e98: f9400fe9     	ldr	x9, [sp, #0x18]
    6e9c: f9400d28     	ldr	x8, [x9, #0x18]
    6ea0: f90007e8     	str	x8, [sp, #0x8]
    6ea4: f9400be8     	ldr	x8, [sp, #0x10]
    6ea8: f9000d28     	str	x8, [x9, #0x18]
    6eac: f94007e0     	ldr	x0, [sp, #0x8]
    6eb0: 910083ff     	add	sp, sp, #0x20
    6eb4: d65f03c0     	ret

0000000000006eb8 <__ZNSt3__112basic_stringIcNS_11char_traitsIcEENS_9allocatorIcEEEC2B8ne180100Emc>:
    6eb8: d100c3ff     	sub	sp, sp, #0x30
    6ebc: a9027bfd     	stp	x29, x30, [sp, #0x20]
    6ec0: 910083fd     	add	x29, sp, #0x20
    6ec4: f81f83a0     	stur	x0, [x29, #-0x8]
    6ec8: f9000be1     	str	x1, [sp, #0x10]
    6ecc: 39003fe2     	strb	w2, [sp, #0xf]
    6ed0: f85f83a0     	ldur	x0, [x29, #-0x8]
    6ed4: f90003e0     	str	x0, [sp]
    6ed8: 91003be1     	add	x1, sp, #0xe
    6edc: 910037e2     	add	x2, sp, #0xd
    6ee0: 94000000     	bl	0x6ee0 <__ZNSt3__112basic_stringIcNS_11char_traitsIcEENS_9allocatorIcEEEC2B8ne180100Emc+0x28>
    6ee4: f94003e0     	ldr	x0, [sp]
    6ee8: f9400be1     	ldr	x1, [sp, #0x10]
    6eec: 39c03fe2     	ldrsb	w2, [sp, #0xf]
    6ef0: 94000000     	bl	0x6ef0 <__ZNSt3__112basic_stringIcNS_11char_traitsIcEENS_9allocatorIcEEEC2B8ne180100Emc+0x38>
    6ef4: f94003e0     	ldr	x0, [sp]
    6ef8: a9427bfd     	ldp	x29, x30, [sp, #0x20]
    6efc: 9100c3ff     	add	sp, sp, #0x30
    6f00: d65f03c0     	ret

0000000000006f04 <__ZNSt3__112__to_addressB8ne180100IcEEPT_S2_>:
    6f04: d10043ff     	sub	sp, sp, #0x10
    6f08: f90007e0     	str	x0, [sp, #0x8]
    6f0c: f94007e0     	ldr	x0, [sp, #0x8]
    6f10: 910043ff     	add	sp, sp, #0x10
    6f14: d65f03c0     	ret

0000000000006f18 <__ZNSt3__119ostreambuf_iteratorIcNS_11char_traitsIcEEEC2B8ne180100ERNS_13basic_ostreamIcS2_EE>:
    6f18: d100c3ff     	sub	sp, sp, #0x30
    6f1c: a9027bfd     	stp	x29, x30, [sp, #0x20]
    6f20: 910083fd     	add	x29, sp, #0x20
    6f24: f81f83a0     	stur	x0, [x29, #-0x8]
    6f28: f9000be1     	str	x1, [sp, #0x10]
    6f2c: f85f83a8     	ldur	x8, [x29, #-0x8]
    6f30: f90003e8     	str	x8, [sp]
    6f34: f9400be8     	ldr	x8, [sp, #0x10]
    6f38: f9400109     	ldr	x9, [x8]
    6f3c: f85e8129     	ldur	x9, [x9, #-0x18]
    6f40: 8b090100     	add	x0, x8, x9
    6f44: 94000000     	bl	0x6f44 <__ZNSt3__119ostreambuf_iteratorIcNS_11char_traitsIcEEEC2B8ne180100ERNS_13basic_ostreamIcS2_EE+0x2c>
    6f48: f90007e0     	str	x0, [sp, #0x8]
    6f4c: 14000001     	b	0x6f50 <__ZNSt3__119ostreambuf_iteratorIcNS_11char_traitsIcEEEC2B8ne180100ERNS_13basic_ostreamIcS2_EE+0x38>
    6f50: f94003e0     	ldr	x0, [sp]
    6f54: f94007e8     	ldr	x8, [sp, #0x8]
    6f58: f9000008     	str	x8, [x0]
    6f5c: a9427bfd     	ldp	x29, x30, [sp, #0x20]
    6f60: 9100c3ff     	add	sp, sp, #0x30
    6f64: d65f03c0     	ret
    6f68: 94000000     	bl	0x6f68 <__ZNSt3__119ostreambuf_iteratorIcNS_11char_traitsIcEEEC2B8ne180100ERNS_13basic_ostreamIcS2_EE+0x50>

0000000000006f6c <__ZNKSt3__19basic_iosIcNS_11char_traitsIcEEE5rdbufB8ne180100Ev>:
    6f6c: d10083ff     	sub	sp, sp, #0x20
    6f70: a9017bfd     	stp	x29, x30, [sp, #0x10]
    6f74: 910043fd     	add	x29, sp, #0x10
    6f78: f90007e0     	str	x0, [sp, #0x8]
    6f7c: f94007e0     	ldr	x0, [sp, #0x8]
    6f80: 94000000     	bl	0x6f80 <__ZNKSt3__19basic_iosIcNS_11char_traitsIcEEE5rdbufB8ne180100Ev+0x14>
    6f84: a9417bfd     	ldp	x29, x30, [sp, #0x10]
    6f88: 910083ff     	add	sp, sp, #0x20
    6f8c: d65f03c0     	ret

0000000000006f90 <__ZNKSt3__18ios_base5rdbufB8ne180100Ev>:
    6f90: d10043ff     	sub	sp, sp, #0x10
    6f94: f90007e0     	str	x0, [sp, #0x8]
    6f98: f94007e8     	ldr	x8, [sp, #0x8]
    6f9c: f9401500     	ldr	x0, [x8, #0x28]
    6fa0: 910043ff     	add	sp, sp, #0x10
    6fa4: d65f03c0     	ret

0000000000006fa8 <__ZNSt3__111char_traitsIcE11eq_int_typeB8ne180100Eii>:
    6fa8: d10043ff     	sub	sp, sp, #0x10
    6fac: b9000fe0     	str	w0, [sp, #0xc]
    6fb0: b9000be1     	str	w1, [sp, #0x8]
    6fb4: b9400fe8     	ldr	w8, [sp, #0xc]
    6fb8: b9400be9     	ldr	w9, [sp, #0x8]
    6fbc: 6b090108     	subs	w8, w8, w9
    6fc0: 1a9f17e8     	cset	w8, eq
    6fc4: 12000100     	and	w0, w8, #0x1
    6fc8: 910043ff     	add	sp, sp, #0x10
    6fcc: d65f03c0     	ret

0000000000006fd0 <__ZNSt3__111char_traitsIcE3eofB8ne180100Ev>:
    6fd0: 12800000     	mov	w0, #-0x1               ; =-1
    6fd4: d65f03c0     	ret

0000000000006fd8 <__ZNKSt3__19basic_iosIcNS_11char_traitsIcEEE5widenB8ne180100Ec>:
    6fd8: d10143ff     	sub	sp, sp, #0x50
    6fdc: a9047bfd     	stp	x29, x30, [sp, #0x40]
    6fe0: 910103fd     	add	x29, sp, #0x40
    6fe4: f81f83a0     	stur	x0, [x29, #-0x8]
    6fe8: 381f73a1     	sturb	w1, [x29, #-0x9]
    6fec: f85f83a0     	ldur	x0, [x29, #-0x8]
    6ff0: d10063a8     	sub	x8, x29, #0x18
    6ff4: f90007e8     	str	x8, [sp, #0x8]
    6ff8: 94000000     	bl	0x6ff8 <__ZNKSt3__19basic_iosIcNS_11char_traitsIcEEE5widenB8ne180100Ec+0x20>
    6ffc: f94007e0     	ldr	x0, [sp, #0x8]
    7000: 94000000     	bl	0x7000 <__ZNKSt3__19basic_iosIcNS_11char_traitsIcEEE5widenB8ne180100Ec+0x28>
    7004: f9000be0     	str	x0, [sp, #0x10]
    7008: 14000001     	b	0x700c <__ZNKSt3__19basic_iosIcNS_11char_traitsIcEEE5widenB8ne180100Ec+0x34>
    700c: f9400be0     	ldr	x0, [sp, #0x10]
    7010: 38df73a1     	ldursb	w1, [x29, #-0x9]
    7014: 94000000     	bl	0x7014 <__ZNKSt3__19basic_iosIcNS_11char_traitsIcEEE5widenB8ne180100Ec+0x3c>
    7018: b90007e0     	str	w0, [sp, #0x4]
    701c: 14000001     	b	0x7020 <__ZNKSt3__19basic_iosIcNS_11char_traitsIcEEE5widenB8ne180100Ec+0x48>
    7020: d10063a0     	sub	x0, x29, #0x18
    7024: 94000000     	bl	0x7024 <__ZNKSt3__19basic_iosIcNS_11char_traitsIcEEE5widenB8ne180100Ec+0x4c>
    7028: b94007e8     	ldr	w8, [sp, #0x4]
    702c: 13001d00     	sxtb	w0, w8
    7030: a9447bfd     	ldp	x29, x30, [sp, #0x40]
    7034: 910143ff     	add	sp, sp, #0x50
    7038: d65f03c0     	ret
    703c: f90013e0     	str	x0, [sp, #0x20]
    7040: aa0103e8     	mov	x8, x1
    7044: b9001fe8     	str	w8, [sp, #0x1c]
    7048: d10063a0     	sub	x0, x29, #0x18
    704c: 94000000     	bl	0x704c <__ZNKSt3__19basic_iosIcNS_11char_traitsIcEEE5widenB8ne180100Ec+0x74>
    7050: 14000001     	b	0x7054 <__ZNKSt3__19basic_iosIcNS_11char_traitsIcEEE5widenB8ne180100Ec+0x7c>
    7054: f94013e0     	ldr	x0, [sp, #0x20]
    7058: 94000000     	bl	0x7058 <__ZNKSt3__19basic_iosIcNS_11char_traitsIcEEE5widenB8ne180100Ec+0x80>

000000000000705c <__ZNSt3__19use_facetB8ne180100INS_5ctypeIcEEEERKT_RKNS_6localeE>:
    705c: d10083ff     	sub	sp, sp, #0x20
    7060: a9017bfd     	stp	x29, x30, [sp, #0x10]
    7064: 910043fd     	add	x29, sp, #0x10
    7068: f90007e0     	str	x0, [sp, #0x8]
    706c: f94007e0     	ldr	x0, [sp, #0x8]
    7070: 90000001     	adrp	x1, 0x7000 <__ZNKSt3__19basic_iosIcNS_11char_traitsIcEEE5widenB8ne180100Ec+0x28>
    7074: f9400021     	ldr	x1, [x1]
    7078: 94000000     	bl	0x7078 <__ZNSt3__19use_facetB8ne180100INS_5ctypeIcEEEERKT_RKNS_6localeE+0x1c>
    707c: a9417bfd     	ldp	x29, x30, [sp, #0x10]
    7080: 910083ff     	add	sp, sp, #0x20
    7084: d65f03c0     	ret

0000000000007088 <__ZNKSt3__15ctypeIcE5widenB8ne180100Ec>:
    7088: d10083ff     	sub	sp, sp, #0x20
    708c: a9017bfd     	stp	x29, x30, [sp, #0x10]
    7090: 910043fd     	add	x29, sp, #0x10
    7094: f90007e0     	str	x0, [sp, #0x8]
    7098: 39001fe1     	strb	w1, [sp, #0x7]
    709c: f94007e0     	ldr	x0, [sp, #0x8]
    70a0: 39c01fe1     	ldrsb	w1, [sp, #0x7]
    70a4: f9400008     	ldr	x8, [x0]
    70a8: f9401d08     	ldr	x8, [x8, #0x38]
    70ac: d63f0100     	blr	x8
    70b0: 13001c00     	sxtb	w0, w0
    70b4: a9417bfd     	ldp	x29, x30, [sp, #0x10]
    70b8: 910083ff     	add	sp, sp, #0x20
    70bc: d65f03c0     	ret

00000000000070c0 <__ZNSt3__18ios_base8setstateB8ne180100Ej>:
    70c0: d10083ff     	sub	sp, sp, #0x20
    70c4: a9017bfd     	stp	x29, x30, [sp, #0x10]
    70c8: 910043fd     	add	x29, sp, #0x10
    70cc: f90007e0     	str	x0, [sp, #0x8]
    70d0: b90007e1     	str	w1, [sp, #0x4]
    70d4: f94007e0     	ldr	x0, [sp, #0x8]
    70d8: b9402008     	ldr	w8, [x0, #0x20]
    70dc: b94007e9     	ldr	w9, [sp, #0x4]
    70e0: 2a090101     	orr	w1, w8, w9
    70e4: 94000000     	bl	0x70e4 <__ZNSt3__18ios_base8setstateB8ne180100Ej+0x24>
    70e8: a9417bfd     	ldp	x29, x30, [sp, #0x10]
    70ec: 910083ff     	add	sp, sp, #0x20
    70f0: d65f03c0     	ret

00000000000070f4 <__ZNSt3__118__constexpr_strlenB8ne180100EPKc>:
    70f4: d10083ff     	sub	sp, sp, #0x20
    70f8: a9017bfd     	stp	x29, x30, [sp, #0x10]
    70fc: 910043fd     	add	x29, sp, #0x10
    7100: f90007e0     	str	x0, [sp, #0x8]
    7104: f94007e0     	ldr	x0, [sp, #0x8]
    7108: 94000000     	bl	0x7108 <__ZNSt3__118__constexpr_strlenB8ne180100EPKc+0x14>
    710c: a9417bfd     	ldp	x29, x30, [sp, #0x10]
    7110: 910083ff     	add	sp, sp, #0x20
    7114: d65f03c0     	ret

0000000000007118 <__ZNSt3__112basic_stringIcNS_11char_traitsIcEENS_9allocatorIcEEEC2B8ne180100ILi0EEEPKc>:
    7118: d10103ff     	sub	sp, sp, #0x40
    711c: a9037bfd     	stp	x29, x30, [sp, #0x30]
    7120: 9100c3fd     	add	x29, sp, #0x30
    7124: f81f83a0     	stur	x0, [x29, #-0x8]
    7128: f81f03a1     	stur	x1, [x29, #-0x10]
    712c: f85f83a0     	ldur	x0, [x29, #-0x8]
    7130: f9000be0     	str	x0, [sp, #0x10]
    7134: d10047a1     	sub	x1, x29, #0x11
    7138: d1004ba2     	sub	x2, x29, #0x12
    713c: 94000000     	bl	0x713c <__ZNSt3__112basic_stringIcNS_11char_traitsIcEENS_9allocatorIcEEEC2B8ne180100ILi0EEEPKc+0x24>
    7140: f85f03a8     	ldur	x8, [x29, #-0x10]
    7144: f90007e8     	str	x8, [sp, #0x8]
    7148: f85f03a0     	ldur	x0, [x29, #-0x10]
    714c: 94000000     	bl	0x714c <__ZNSt3__112basic_stringIcNS_11char_traitsIcEENS_9allocatorIcEEEC2B8ne180100ILi0EEEPKc+0x34>
    7150: f94007e1     	ldr	x1, [sp, #0x8]
    7154: aa0003e2     	mov	x2, x0
    7158: f9400be0     	ldr	x0, [sp, #0x10]
    715c: 94000000     	bl	0x715c <__ZNSt3__112basic_stringIcNS_11char_traitsIcEENS_9allocatorIcEEEC2B8ne180100ILi0EEEPKc+0x44>
    7160: f9400be0     	ldr	x0, [sp, #0x10]
    7164: a9437bfd     	ldp	x29, x30, [sp, #0x30]
    7168: 910103ff     	add	sp, sp, #0x40
    716c: d65f03c0     	ret

0000000000007170 <__ZNSt3__14__fs10filesystem4pathC2B8ne180100INS_12basic_stringIcNS_11char_traitsIcEENS_9allocatorIcEEEEvEERKT_NS2_6formatE>:
    7170: d10103ff     	sub	sp, sp, #0x40
    7174: a9037bfd     	stp	x29, x30, [sp, #0x30]
    7178: 9100c3fd     	add	x29, sp, #0x30
    717c: f81f83a0     	stur	x0, [x29, #-0x8]
    7180: f81f03a1     	stur	x1, [x29, #-0x10]
    7184: 381ef3a2     	sturb	w2, [x29, #-0x11]
    7188: f85f83a0     	ldur	x0, [x29, #-0x8]
    718c: f90003e0     	str	x0, [sp]
    7190: 94000000     	bl	0x7190 <__ZNSt3__14__fs10filesystem4pathC2B8ne180100INS_12basic_stringIcNS_11char_traitsIcEENS_9allocatorIcEEEEvEERKT_NS2_6formatE+0x20>
    7194: f94003e0     	ldr	x0, [sp]
    7198: f85f03a1     	ldur	x1, [x29, #-0x10]
    719c: 94000000     	bl	0x719c <__ZNSt3__14__fs10filesystem4pathC2B8ne180100INS_12basic_stringIcNS_11char_traitsIcEENS_9allocatorIcEEEEvEERKT_NS2_6formatE+0x2c>
    71a0: 14000001     	b	0x71a4 <__ZNSt3__14__fs10filesystem4pathC2B8ne180100INS_12basic_stringIcNS_11char_traitsIcEENS_9allocatorIcEEEEvEERKT_NS2_6formatE+0x34>
    71a4: f94003e0     	ldr	x0, [sp]
    71a8: a9437bfd     	ldp	x29, x30, [sp, #0x30]
    71ac: 910103ff     	add	sp, sp, #0x40
    71b0: d65f03c0     	ret
    71b4: aa0003e8     	mov	x8, x0
    71b8: f94003e0     	ldr	x0, [sp]
    71bc: f9000be8     	str	x8, [sp, #0x10]
    71c0: aa0103e8     	mov	x8, x1
    71c4: b9000fe8     	str	w8, [sp, #0xc]
    71c8: 94000000     	bl	0x71c8 <__ZNSt3__14__fs10filesystem4pathC2B8ne180100INS_12basic_stringIcNS_11char_traitsIcEENS_9allocatorIcEEEEvEERKT_NS2_6formatE+0x58>
    71cc: 14000001     	b	0x71d0 <__ZNSt3__14__fs10filesystem4pathC2B8ne180100INS_12basic_stringIcNS_11char_traitsIcEENS_9allocatorIcEEEEvEERKT_NS2_6formatE+0x60>
    71d0: f9400be0     	ldr	x0, [sp, #0x10]
    71d4: 94000000     	bl	0x71d4 <__ZNSt3__14__fs10filesystem4pathC2B8ne180100INS_12basic_stringIcNS_11char_traitsIcEENS_9allocatorIcEEEEvEERKT_NS2_6formatE+0x64>

00000000000071d8 <__ZNSt3__14__fs10filesystem8_PathCVTIcE15__append_sourceB8ne180100INS_12basic_stringIcNS_11char_traitsIcEENS_9allocatorIcEEEEEEvRSA_RKT_>:
    71d8: d100c3ff     	sub	sp, sp, #0x30
    71dc: a9027bfd     	stp	x29, x30, [sp, #0x20]
    71e0: 910083fd     	add	x29, sp, #0x20
    71e4: f81f83a0     	stur	x0, [x29, #-0x8]
    71e8: f9000be1     	str	x1, [sp, #0x10]
    71ec: f85f83a8     	ldur	x8, [x29, #-0x8]
    71f0: f90007e8     	str	x8, [sp, #0x8]
    71f4: f9400be0     	ldr	x0, [sp, #0x10]
    71f8: 94000000     	bl	0x71f8 <__ZNSt3__14__fs10filesystem8_PathCVTIcE15__append_sourceB8ne180100INS_12basic_stringIcNS_11char_traitsIcEENS_9allocatorIcEEEEEEvRSA_RKT_+0x20>
    71fc: f90003e0     	str	x0, [sp]
    7200: f9400be0     	ldr	x0, [sp, #0x10]
    7204: 94000000     	bl	0x7204 <__ZNSt3__14__fs10filesystem8_PathCVTIcE15__append_sourceB8ne180100INS_12basic_stringIcNS_11char_traitsIcEENS_9allocatorIcEEEEEEvRSA_RKT_+0x2c>
    7208: f94003e1     	ldr	x1, [sp]
    720c: aa0003e2     	mov	x2, x0
    7210: f94007e0     	ldr	x0, [sp, #0x8]
    7214: 94000000     	bl	0x7214 <__ZNSt3__14__fs10filesystem8_PathCVTIcE15__append_sourceB8ne180100INS_12basic_stringIcNS_11char_traitsIcEENS_9allocatorIcEEEEEEvRSA_RKT_+0x3c>
    7218: a9427bfd     	ldp	x29, x30, [sp, #0x20]
    721c: 9100c3ff     	add	sp, sp, #0x30
    7220: d65f03c0     	ret

0000000000007224 <__ZNSt3__14__fs10filesystem8_PathCVTIcE14__append_rangeB8ne180100IPKcLi0EEEvRNS_12basic_stringIcNS_11char_traitsIcEENS_9allocatorIcEEEET_SE_>:
    7224: d100c3ff     	sub	sp, sp, #0x30
    7228: a9027bfd     	stp	x29, x30, [sp, #0x20]
    722c: 910083fd     	add	x29, sp, #0x20
    7230: f81f83a0     	stur	x0, [x29, #-0x8]
    7234: f9000be1     	str	x1, [sp, #0x10]
    7238: f90007e2     	str	x2, [sp, #0x8]
    723c: f85f83a0     	ldur	x0, [x29, #-0x8]
    7240: f9400be1     	ldr	x1, [sp, #0x10]
    7244: f94007e2     	ldr	x2, [sp, #0x8]
    7248: 94000000     	bl	0x7248 <__ZNSt3__14__fs10filesystem8_PathCVTIcE14__append_rangeB8ne180100IPKcLi0EEEvRNS_12basic_stringIcNS_11char_traitsIcEENS_9allocatorIcEEEET_SE_+0x24>
    724c: a9427bfd     	ldp	x29, x30, [sp, #0x20]
    7250: 9100c3ff     	add	sp, sp, #0x30
    7254: d65f03c0     	ret

0000000000007258 <__ZNSt3__14__fs10filesystem20__is_pathable_stringINS_12basic_stringIcNS_11char_traitsIcEENS_9allocatorIcEEEEvE13__range_beginB8ne180100ERKS8_>:
    7258: d10083ff     	sub	sp, sp, #0x20
    725c: a9017bfd     	stp	x29, x30, [sp, #0x10]
    7260: 910043fd     	add	x29, sp, #0x10
    7264: f90007e0     	str	x0, [sp, #0x8]
    7268: f94007e0     	ldr	x0, [sp, #0x8]
    726c: 94000000     	bl	0x726c <__ZNSt3__14__fs10filesystem20__is_pathable_stringINS_12basic_stringIcNS_11char_traitsIcEENS_9allocatorIcEEEEvE13__range_beginB8ne180100ERKS8_+0x14>
    7270: a9417bfd     	ldp	x29, x30, [sp, #0x10]
    7274: 910083ff     	add	sp, sp, #0x20
    7278: d65f03c0     	ret

000000000000727c <__ZNSt3__14__fs10filesystem20__is_pathable_stringINS_12basic_stringIcNS_11char_traitsIcEENS_9allocatorIcEEEEvE11__range_endB8ne180100ERKS8_>:
    727c: d10083ff     	sub	sp, sp, #0x20
    7280: a9017bfd     	stp	x29, x30, [sp, #0x10]
    7284: 910043fd     	add	x29, sp, #0x10
    7288: f90007e0     	str	x0, [sp, #0x8]
    728c: f94007e0     	ldr	x0, [sp, #0x8]
    7290: 94000000     	bl	0x7290 <__ZNSt3__14__fs10filesystem20__is_pathable_stringINS_12basic_stringIcNS_11char_traitsIcEENS_9allocatorIcEEEEvE11__range_endB8ne180100ERKS8_+0x14>
    7294: f90003e0     	str	x0, [sp]
    7298: f94007e0     	ldr	x0, [sp, #0x8]
    729c: 94000000     	bl	0x729c <__ZNSt3__14__fs10filesystem20__is_pathable_stringINS_12basic_stringIcNS_11char_traitsIcEENS_9allocatorIcEEEEvE11__range_endB8ne180100ERKS8_+0x20>
    72a0: aa0003e8     	mov	x8, x0
    72a4: f94003e0     	ldr	x0, [sp]
    72a8: 8b080000     	add	x0, x0, x8
    72ac: a9417bfd     	ldp	x29, x30, [sp, #0x10]
    72b0: 910083ff     	add	sp, sp, #0x20
    72b4: d65f03c0     	ret

00000000000072b8 <__ZNSt3__112basic_stringIcNS_11char_traitsIcEENS_9allocatorIcEEE6appendB8ne180100IPKcLi0EEERS5_T_SA_>:
    72b8: d10283ff     	sub	sp, sp, #0xa0
    72bc: a9097bfd     	stp	x29, x30, [sp, #0x90]
    72c0: 910243fd     	add	x29, sp, #0x90
    72c4: f81f83a0     	stur	x0, [x29, #-0x8]
    72c8: f81f03a1     	stur	x1, [x29, #-0x10]
    72cc: f81e83a2     	stur	x2, [x29, #-0x18]
    72d0: f85f83a0     	ldur	x0, [x29, #-0x8]
    72d4: f90013e0     	str	x0, [sp, #0x20]
    72d8: 94000000     	bl	0x72d8 <__ZNSt3__112basic_stringIcNS_11char_traitsIcEENS_9allocatorIcEEE6appendB8ne180100IPKcLi0EEERS5_T_SA_+0x20>
    72dc: aa0003e8     	mov	x8, x0
    72e0: f94013e0     	ldr	x0, [sp, #0x20]
    72e4: f81e03a8     	stur	x8, [x29, #-0x20]
    72e8: 94000000     	bl	0x72e8 <__ZNSt3__112basic_stringIcNS_11char_traitsIcEENS_9allocatorIcEEE6appendB8ne180100IPKcLi0EEERS5_T_SA_+0x30>
    72ec: f81d83a0     	stur	x0, [x29, #-0x28]
    72f0: f85f03a0     	ldur	x0, [x29, #-0x10]
    72f4: f85e83a1     	ldur	x1, [x29, #-0x18]
    72f8: 94000000     	bl	0x72f8 <__ZNSt3__112basic_stringIcNS_11char_traitsIcEENS_9allocatorIcEEE6appendB8ne180100IPKcLi0EEERS5_T_SA_+0x40>
    72fc: f81d03a0     	stur	x0, [x29, #-0x30]
    7300: f85d03a8     	ldur	x8, [x29, #-0x30]
    7304: f1000108     	subs	x8, x8, #0x0
    7308: 1a9f17e8     	cset	w8, eq
    730c: 37000c28     	tbnz	w8, #0x0, 0x7490 <__ZNSt3__112basic_stringIcNS_11char_traitsIcEENS_9allocatorIcEEE6appendB8ne180100IPKcLi0EEERS5_T_SA_+0x1d8>
    7310: 14000001     	b	0x7314 <__ZNSt3__112basic_stringIcNS_11char_traitsIcEENS_9allocatorIcEEE6appendB8ne180100IPKcLi0EEERS5_T_SA_+0x5c>
    7314: f94013e0     	ldr	x0, [sp, #0x20]
    7318: f85f03a1     	ldur	x1, [x29, #-0x10]
    731c: 94000000     	bl	0x731c <__ZNSt3__112basic_stringIcNS_11char_traitsIcEENS_9allocatorIcEEE6appendB8ne180100IPKcLi0EEERS5_T_SA_+0x64>
    7320: 37000760     	tbnz	w0, #0x0, 0x740c <__ZNSt3__112basic_stringIcNS_11char_traitsIcEENS_9allocatorIcEEE6appendB8ne180100IPKcLi0EEERS5_T_SA_+0x154>
    7324: 14000001     	b	0x7328 <__ZNSt3__112basic_stringIcNS_11char_traitsIcEENS_9allocatorIcEEE6appendB8ne180100IPKcLi0EEERS5_T_SA_+0x70>
    7328: f85d83a8     	ldur	x8, [x29, #-0x28]
    732c: f85e03a9     	ldur	x9, [x29, #-0x20]
    7330: eb090108     	subs	x8, x8, x9
    7334: f85d03a9     	ldur	x9, [x29, #-0x30]
    7338: eb090108     	subs	x8, x8, x9
    733c: 1a9f37e8     	cset	w8, hs
    7340: 370001e8     	tbnz	w8, #0x0, 0x737c <__ZNSt3__112basic_stringIcNS_11char_traitsIcEENS_9allocatorIcEEE6appendB8ne180100IPKcLi0EEERS5_T_SA_+0xc4>
    7344: 14000001     	b	0x7348 <__ZNSt3__112basic_stringIcNS_11char_traitsIcEENS_9allocatorIcEEE6appendB8ne180100IPKcLi0EEERS5_T_SA_+0x90>
    7348: f94013e0     	ldr	x0, [sp, #0x20]
    734c: f85d83a1     	ldur	x1, [x29, #-0x28]
    7350: f85e03a8     	ldur	x8, [x29, #-0x20]
    7354: f85d03a9     	ldur	x9, [x29, #-0x30]
    7358: 8b090108     	add	x8, x8, x9
    735c: f85d83a9     	ldur	x9, [x29, #-0x28]
    7360: eb090102     	subs	x2, x8, x9
    7364: f85e03a3     	ldur	x3, [x29, #-0x20]
    7368: f85e03a4     	ldur	x4, [x29, #-0x20]
    736c: d2800006     	mov	x6, #0x0                ; =0
    7370: aa0603e5     	mov	x5, x6
    7374: 94000000     	bl	0x7374 <__ZNSt3__112basic_stringIcNS_11char_traitsIcEENS_9allocatorIcEEE6appendB8ne180100IPKcLi0EEERS5_T_SA_+0xbc>
    7378: 14000001     	b	0x737c <__ZNSt3__112basic_stringIcNS_11char_traitsIcEENS_9allocatorIcEEE6appendB8ne180100IPKcLi0EEERS5_T_SA_+0xc4>
    737c: f94013e0     	ldr	x0, [sp, #0x20]
    7380: f85d03a1     	ldur	x1, [x29, #-0x30]
    7384: 94000000     	bl	0x7384 <__ZNSt3__112basic_stringIcNS_11char_traitsIcEENS_9allocatorIcEEE6appendB8ne180100IPKcLi0EEERS5_T_SA_+0xcc>
    7388: f94013e0     	ldr	x0, [sp, #0x20]
    738c: 94000000     	bl	0x738c <__ZNSt3__112basic_stringIcNS_11char_traitsIcEENS_9allocatorIcEEE6appendB8ne180100IPKcLi0EEERS5_T_SA_+0xd4>
    7390: f85e03a8     	ldur	x8, [x29, #-0x20]
    7394: 8b080008     	add	x8, x0, x8
    7398: f81c83a8     	stur	x8, [x29, #-0x38]
    739c: 14000001     	b	0x73a0 <__ZNSt3__112basic_stringIcNS_11char_traitsIcEENS_9allocatorIcEEE6appendB8ne180100IPKcLi0EEERS5_T_SA_+0xe8>
    73a0: f85f03a8     	ldur	x8, [x29, #-0x10]
    73a4: f85e83a9     	ldur	x9, [x29, #-0x18]
    73a8: eb090108     	subs	x8, x8, x9
    73ac: 1a9f17e8     	cset	w8, eq
    73b0: 370001a8     	tbnz	w8, #0x0, 0x73e4 <__ZNSt3__112basic_stringIcNS_11char_traitsIcEENS_9allocatorIcEEE6appendB8ne180100IPKcLi0EEERS5_T_SA_+0x12c>
    73b4: 14000001     	b	0x73b8 <__ZNSt3__112basic_stringIcNS_11char_traitsIcEENS_9allocatorIcEEE6appendB8ne180100IPKcLi0EEERS5_T_SA_+0x100>
    73b8: f85c83a0     	ldur	x0, [x29, #-0x38]
    73bc: f85f03a1     	ldur	x1, [x29, #-0x10]
    73c0: 94000000     	bl	0x73c0 <__ZNSt3__112basic_stringIcNS_11char_traitsIcEENS_9allocatorIcEEE6appendB8ne180100IPKcLi0EEERS5_T_SA_+0x108>
    73c4: 14000001     	b	0x73c8 <__ZNSt3__112basic_stringIcNS_11char_traitsIcEENS_9allocatorIcEEE6appendB8ne180100IPKcLi0EEERS5_T_SA_+0x110>
    73c8: f85c83a8     	ldur	x8, [x29, #-0x38]
    73cc: 91000508     	add	x8, x8, #0x1
    73d0: f81c83a8     	stur	x8, [x29, #-0x38]
    73d4: f85f03a8     	ldur	x8, [x29, #-0x10]
    73d8: 91000508     	add	x8, x8, #0x1
    73dc: f81f03a8     	stur	x8, [x29, #-0x10]
    73e0: 17fffff0     	b	0x73a0 <__ZNSt3__112basic_stringIcNS_11char_traitsIcEENS_9allocatorIcEEE6appendB8ne180100IPKcLi0EEERS5_T_SA_+0xe8>
    73e4: f85c83a0     	ldur	x0, [x29, #-0x38]
    73e8: d100e7a1     	sub	x1, x29, #0x39
    73ec: 381c73bf     	sturb	wzr, [x29, #-0x39]
    73f0: 94000000     	bl	0x73f0 <__ZNSt3__112basic_stringIcNS_11char_traitsIcEENS_9allocatorIcEEE6appendB8ne180100IPKcLi0EEERS5_T_SA_+0x138>
    73f4: f94013e0     	ldr	x0, [sp, #0x20]
    73f8: f85e03a8     	ldur	x8, [x29, #-0x20]
    73fc: f85d03a9     	ldur	x9, [x29, #-0x30]
    7400: 8b090101     	add	x1, x8, x9
    7404: 94000000     	bl	0x7404 <__ZNSt3__112basic_stringIcNS_11char_traitsIcEENS_9allocatorIcEEE6appendB8ne180100IPKcLi0EEERS5_T_SA_+0x14c>
    7408: 14000021     	b	0x748c <__ZNSt3__112basic_stringIcNS_11char_traitsIcEENS_9allocatorIcEEE6appendB8ne180100IPKcLi0EEERS5_T_SA_+0x1d4>
    740c: f94013e0     	ldr	x0, [sp, #0x20]
    7410: f85f03a8     	ldur	x8, [x29, #-0x10]
    7414: f90003e8     	str	x8, [sp]
    7418: f85e83a8     	ldur	x8, [x29, #-0x18]
    741c: f90007e8     	str	x8, [sp, #0x8]
    7420: 94000000     	bl	0x7420 <__ZNSt3__112basic_stringIcNS_11char_traitsIcEENS_9allocatorIcEEE6appendB8ne180100IPKcLi0EEERS5_T_SA_+0x168>
    7424: f94003e1     	ldr	x1, [sp]
    7428: f94007e2     	ldr	x2, [sp, #0x8]
    742c: aa0003e3     	mov	x3, x0
    7430: 9100e3e0     	add	x0, sp, #0x38
    7434: f9000be0     	str	x0, [sp, #0x10]
    7438: 94000000     	bl	0x7438 <__ZNSt3__112basic_stringIcNS_11char_traitsIcEENS_9allocatorIcEEE6appendB8ne180100IPKcLi0EEERS5_T_SA_+0x180>
    743c: f9400be0     	ldr	x0, [sp, #0x10]
    7440: 94000000     	bl	0x7440 <__ZNSt3__112basic_stringIcNS_11char_traitsIcEENS_9allocatorIcEEE6appendB8ne180100IPKcLi0EEERS5_T_SA_+0x188>
    7444: aa0003e1     	mov	x1, x0
    7448: f9400be0     	ldr	x0, [sp, #0x10]
    744c: f9000fe1     	str	x1, [sp, #0x18]
    7450: 94000000     	bl	0x7450 <__ZNSt3__112basic_stringIcNS_11char_traitsIcEENS_9allocatorIcEEE6appendB8ne180100IPKcLi0EEERS5_T_SA_+0x198>
    7454: f9400fe1     	ldr	x1, [sp, #0x18]
    7458: aa0003e2     	mov	x2, x0
    745c: f94013e0     	ldr	x0, [sp, #0x20]
    7460: 94000000     	bl	0x7460 <__ZNSt3__112basic_stringIcNS_11char_traitsIcEENS_9allocatorIcEEE6appendB8ne180100IPKcLi0EEERS5_T_SA_+0x1a8>
    7464: 14000001     	b	0x7468 <__ZNSt3__112basic_stringIcNS_11char_traitsIcEENS_9allocatorIcEEE6appendB8ne180100IPKcLi0EEERS5_T_SA_+0x1b0>
    7468: 9100e3e0     	add	x0, sp, #0x38
    746c: 94000000     	bl	0x746c <__ZNSt3__112basic_stringIcNS_11char_traitsIcEENS_9allocatorIcEEE6appendB8ne180100IPKcLi0EEERS5_T_SA_+0x1b4>
    7470: 14000007     	b	0x748c <__ZNSt3__112basic_stringIcNS_11char_traitsIcEENS_9allocatorIcEEE6appendB8ne180100IPKcLi0EEERS5_T_SA_+0x1d4>
    7474: f9001be0     	str	x0, [sp, #0x30]
    7478: aa0103e8     	mov	x8, x1
    747c: b9002fe8     	str	w8, [sp, #0x2c]
    7480: 9100e3e0     	add	x0, sp, #0x38
    7484: 94000000     	bl	0x7484 <__ZNSt3__112basic_stringIcNS_11char_traitsIcEENS_9allocatorIcEEE6appendB8ne180100IPKcLi0EEERS5_T_SA_+0x1cc>
    7488: 14000006     	b	0x74a0 <__ZNSt3__112basic_stringIcNS_11char_traitsIcEENS_9allocatorIcEEE6appendB8ne180100IPKcLi0EEERS5_T_SA_+0x1e8>
    748c: 14000001     	b	0x7490 <__ZNSt3__112basic_stringIcNS_11char_traitsIcEENS_9allocatorIcEEE6appendB8ne180100IPKcLi0EEERS5_T_SA_+0x1d8>
    7490: f94013e0     	ldr	x0, [sp, #0x20]
    7494: a9497bfd     	ldp	x29, x30, [sp, #0x90]
    7498: 910283ff     	add	sp, sp, #0xa0
    749c: d65f03c0     	ret
    74a0: f9401be0     	ldr	x0, [sp, #0x30]
    74a4: 94000000     	bl	0x74a4 <__ZNSt3__112basic_stringIcNS_11char_traitsIcEENS_9allocatorIcEEE6appendB8ne180100IPKcLi0EEERS5_T_SA_+0x1ec>

00000000000074a8 <__ZNKSt3__112basic_stringIcNS_11char_traitsIcEENS_9allocatorIcEEE8capacityB8ne180100Ev>:
    74a8: d100c3ff     	sub	sp, sp, #0x30
    74ac: a9027bfd     	stp	x29, x30, [sp, #0x20]
    74b0: 910083fd     	add	x29, sp, #0x20
    74b4: f81f83a0     	stur	x0, [x29, #-0x8]
    74b8: f85f83a0     	ldur	x0, [x29, #-0x8]
    74bc: f9000be0     	str	x0, [sp, #0x10]
    74c0: 94000000     	bl	0x74c0 <__ZNKSt3__112basic_stringIcNS_11char_traitsIcEENS_9allocatorIcEEE8capacityB8ne180100Ev+0x18>
    74c4: 360000c0     	tbz	w0, #0x0, 0x74dc <__ZNKSt3__112basic_stringIcNS_11char_traitsIcEENS_9allocatorIcEEE8capacityB8ne180100Ev+0x34>
    74c8: 14000001     	b	0x74cc <__ZNKSt3__112basic_stringIcNS_11char_traitsIcEENS_9allocatorIcEEE8capacityB8ne180100Ev+0x24>
    74cc: f9400be0     	ldr	x0, [sp, #0x10]
    74d0: 94000000     	bl	0x74d0 <__ZNKSt3__112basic_stringIcNS_11char_traitsIcEENS_9allocatorIcEEE8capacityB8ne180100Ev+0x28>
    74d4: f90007e0     	str	x0, [sp, #0x8]
    74d8: 14000004     	b	0x74e8 <__ZNKSt3__112basic_stringIcNS_11char_traitsIcEENS_9allocatorIcEEE8capacityB8ne180100Ev+0x40>
    74dc: d28002e8     	mov	x8, #0x17               ; =23
    74e0: f90007e8     	str	x8, [sp, #0x8]
    74e4: 14000001     	b	0x74e8 <__ZNKSt3__112basic_stringIcNS_11char_traitsIcEENS_9allocatorIcEEE8capacityB8ne180100Ev+0x40>
    74e8: f94007e8     	ldr	x8, [sp, #0x8]
    74ec: f1000500     	subs	x0, x8, #0x1
    74f0: a9427bfd     	ldp	x29, x30, [sp, #0x20]
    74f4: 9100c3ff     	add	sp, sp, #0x30
    74f8: d65f03c0     	ret

00000000000074fc <__ZNSt3__18distanceB8ne180100IPKcEENS_15iterator_traitsIT_E15difference_typeES4_S4_>:
    74fc: d100c3ff     	sub	sp, sp, #0x30
    7500: a9027bfd     	stp	x29, x30, [sp, #0x20]
    7504: 910083fd     	add	x29, sp, #0x20
    7508: f81f83a0     	stur	x0, [x29, #-0x8]
    750c: f9000be1     	str	x1, [sp, #0x10]
    7510: f85f83a0     	ldur	x0, [x29, #-0x8]
    7514: f9400be1     	ldr	x1, [sp, #0x10]
    7518: 94000000     	bl	0x7518 <__ZNSt3__18distanceB8ne180100IPKcEENS_15iterator_traitsIT_E15difference_typeES4_S4_+0x1c>
    751c: a9427bfd     	ldp	x29, x30, [sp, #0x20]
    7520: 9100c3ff     	add	sp, sp, #0x30
    7524: d65f03c0     	ret

0000000000007528 <__ZNKSt3__112basic_stringIcNS_11char_traitsIcEENS_9allocatorIcEEE15__addr_in_rangeB8ne180100IcEEbRKT_>:
    7528: d10103ff     	sub	sp, sp, #0x40
    752c: a9037bfd     	stp	x29, x30, [sp, #0x30]
    7530: 9100c3fd     	add	x29, sp, #0x30
    7534: f81f83a0     	stur	x0, [x29, #-0x8]
    7538: f81f03a1     	stur	x1, [x29, #-0x10]
    753c: f85f83a0     	ldur	x0, [x29, #-0x8]
    7540: f90007e0     	str	x0, [sp, #0x8]
    7544: 94000000     	bl	0x7544 <__ZNKSt3__112basic_stringIcNS_11char_traitsIcEENS_9allocatorIcEEE15__addr_in_rangeB8ne180100IcEEbRKT_+0x1c>
    7548: aa0003e1     	mov	x1, x0
    754c: f94007e0     	ldr	x0, [sp, #0x8]
    7550: f9000fe1     	str	x1, [sp, #0x18]
    7554: 94000000     	bl	0x7554 <__ZNKSt3__112basic_stringIcNS_11char_traitsIcEENS_9allocatorIcEEE15__addr_in_rangeB8ne180100IcEEbRKT_+0x2c>
    7558: aa0003e8     	mov	x8, x0
    755c: f94007e0     	ldr	x0, [sp, #0x8]
    7560: f9000be8     	str	x8, [sp, #0x10]
    7564: 94000000     	bl	0x7564 <__ZNKSt3__112basic_stringIcNS_11char_traitsIcEENS_9allocatorIcEEE15__addr_in_rangeB8ne180100IcEEbRKT_+0x3c>
    7568: f9400be8     	ldr	x8, [sp, #0x10]
    756c: aa0003e9     	mov	x9, x0
    7570: f9400fe0     	ldr	x0, [sp, #0x18]
    7574: f85f03a2     	ldur	x2, [x29, #-0x10]
    7578: 8b090108     	add	x8, x8, x9
    757c: 91000501     	add	x1, x8, #0x1
    7580: 94000000     	bl	0x7580 <__ZNKSt3__112basic_stringIcNS_11char_traitsIcEENS_9allocatorIcEEE15__addr_in_rangeB8ne180100IcEEbRKT_+0x58>
    7584: 12000000     	and	w0, w0, #0x1
    7588: a9437bfd     	ldp	x29, x30, [sp, #0x30]
    758c: 910103ff     	add	sp, sp, #0x40
    7590: d65f03c0     	ret

0000000000007594 <__ZNSt3__112basic_stringIcNS_11char_traitsIcEENS_9allocatorIcEEE25__grow_by_without_replaceB8ne180100Emmmmmm>:
    7594: d10143ff     	sub	sp, sp, #0x50
    7598: a9047bfd     	stp	x29, x30, [sp, #0x40]
    759c: 910103fd     	add	x29, sp, #0x40
    75a0: f81f83a0     	stur	x0, [x29, #-0x8]
    75a4: f81f03a1     	stur	x1, [x29, #-0x10]
    75a8: f81e83a2     	stur	x2, [x29, #-0x18]
    75ac: f90013e3     	str	x3, [sp, #0x20]
    75b0: f9000fe4     	str	x4, [sp, #0x18]
    75b4: f9000be5     	str	x5, [sp, #0x10]
    75b8: f90007e6     	str	x6, [sp, #0x8]
    75bc: f85f83a0     	ldur	x0, [x29, #-0x8]
    75c0: f90003e0     	str	x0, [sp]
    75c4: f85f03a1     	ldur	x1, [x29, #-0x10]
    75c8: f85e83a2     	ldur	x2, [x29, #-0x18]
    75cc: f94013e3     	ldr	x3, [sp, #0x20]
    75d0: f9400fe4     	ldr	x4, [sp, #0x18]
    75d4: f9400be5     	ldr	x5, [sp, #0x10]
    75d8: f94007e6     	ldr	x6, [sp, #0x8]
    75dc: 94000000     	bl	0x75dc <__ZNSt3__112basic_stringIcNS_11char_traitsIcEENS_9allocatorIcEEE25__grow_by_without_replaceB8ne180100Emmmmmm+0x48>
    75e0: f94003e0     	ldr	x0, [sp]
    75e4: f94013e8     	ldr	x8, [sp, #0x20]
    75e8: f9400be9     	ldr	x9, [sp, #0x10]
    75ec: eb090108     	subs	x8, x8, x9
    75f0: f94007e9     	ldr	x9, [sp, #0x8]
    75f4: 8b090101     	add	x1, x8, x9
    75f8: 94000000     	bl	0x75f8 <__ZNSt3__112basic_stringIcNS_11char_traitsIcEENS_9allocatorIcEEE25__grow_by_without_replaceB8ne180100Emmmmmm+0x64>
    75fc: f94003e0     	ldr	x0, [sp]
    7600: f94013e8     	ldr	x8, [sp, #0x20]
    7604: f9400be9     	ldr	x9, [sp, #0x10]
    7608: eb090108     	subs	x8, x8, x9
    760c: f94007e9     	ldr	x9, [sp, #0x8]
    7610: 8b090101     	add	x1, x8, x9
    7614: 94000000     	bl	0x7614 <__ZNSt3__112basic_stringIcNS_11char_traitsIcEENS_9allocatorIcEEE25__grow_by_without_replaceB8ne180100Emmmmmm+0x80>
    7618: a9447bfd     	ldp	x29, x30, [sp, #0x40]
    761c: 910143ff     	add	sp, sp, #0x50
    7620: d65f03c0     	ret

0000000000007624 <__ZNKSt3__112basic_stringIcNS_11char_traitsIcEENS_9allocatorIcEEE19__annotate_increaseB8ne180100Em>:
    7624: d10043ff     	sub	sp, sp, #0x10
    7628: f90007e0     	str	x0, [sp, #0x8]
    762c: f90003e1     	str	x1, [sp]
    7630: 910043ff     	add	sp, sp, #0x10
    7634: d65f03c0     	ret

0000000000007638 <__ZNSt3__111char_traitsIcE6assignB8ne180100ERcRKc>:
    7638: d10043ff     	sub	sp, sp, #0x10
    763c: f90007e0     	str	x0, [sp, #0x8]
    7640: f90003e1     	str	x1, [sp]
    7644: f94003e8     	ldr	x8, [sp]
    7648: 39400108     	ldrb	w8, [x8]
    764c: f94007e9     	ldr	x9, [sp, #0x8]
    7650: 39000128     	strb	w8, [x9]
    7654: 910043ff     	add	sp, sp, #0x10
    7658: d65f03c0     	ret

000000000000765c <__ZNSt3__112basic_stringIcNS_11char_traitsIcEENS_9allocatorIcEEE10__set_sizeB8ne180100Em>:
    765c: d100c3ff     	sub	sp, sp, #0x30
    7660: a9027bfd     	stp	x29, x30, [sp, #0x20]
    7664: 910083fd     	add	x29, sp, #0x20
    7668: f81f83a0     	stur	x0, [x29, #-0x8]
    766c: f9000be1     	str	x1, [sp, #0x10]
    7670: f85f83a0     	ldur	x0, [x29, #-0x8]
    7674: f90007e0     	str	x0, [sp, #0x8]
    7678: 94000000     	bl	0x7678 <__ZNSt3__112basic_stringIcNS_11char_traitsIcEENS_9allocatorIcEEE10__set_sizeB8ne180100Em+0x1c>
    767c: 360000c0     	tbz	w0, #0x0, 0x7694 <__ZNSt3__112basic_stringIcNS_11char_traitsIcEENS_9allocatorIcEEE10__set_sizeB8ne180100Em+0x38>
    7680: 14000001     	b	0x7684 <__ZNSt3__112basic_stringIcNS_11char_traitsIcEENS_9allocatorIcEEE10__set_sizeB8ne180100Em+0x28>
    7684: f94007e0     	ldr	x0, [sp, #0x8]
    7688: f9400be1     	ldr	x1, [sp, #0x10]
    768c: 94000000     	bl	0x768c <__ZNSt3__112basic_stringIcNS_11char_traitsIcEENS_9allocatorIcEEE10__set_sizeB8ne180100Em+0x30>
    7690: 14000005     	b	0x76a4 <__ZNSt3__112basic_stringIcNS_11char_traitsIcEENS_9allocatorIcEEE10__set_sizeB8ne180100Em+0x48>
    7694: f94007e0     	ldr	x0, [sp, #0x8]
    7698: f9400be1     	ldr	x1, [sp, #0x10]
    769c: 94000000     	bl	0x769c <__ZNSt3__112basic_stringIcNS_11char_traitsIcEENS_9allocatorIcEEE10__set_sizeB8ne180100Em+0x40>
    76a0: 14000001     	b	0x76a4 <__ZNSt3__112basic_stringIcNS_11char_traitsIcEENS_9allocatorIcEEE10__set_sizeB8ne180100Em+0x48>
    76a4: a9427bfd     	ldp	x29, x30, [sp, #0x20]
    76a8: 9100c3ff     	add	sp, sp, #0x30
    76ac: d65f03c0     	ret

00000000000076b0 <__ZNSt3__112basic_stringIcNS_11char_traitsIcEENS_9allocatorIcEEE7__allocB8ne180100Ev>:
    76b0: d10083ff     	sub	sp, sp, #0x20
    76b4: a9017bfd     	stp	x29, x30, [sp, #0x10]
    76b8: 910043fd     	add	x29, sp, #0x10
    76bc: f90007e0     	str	x0, [sp, #0x8]
    76c0: f94007e0     	ldr	x0, [sp, #0x8]
    76c4: 94000000     	bl	0x76c4 <__ZNSt3__112basic_stringIcNS_11char_traitsIcEENS_9allocatorIcEEE7__allocB8ne180100Ev+0x14>
    76c8: a9417bfd     	ldp	x29, x30, [sp, #0x10]
    76cc: 910083ff     	add	sp, sp, #0x20
    76d0: d65f03c0     	ret

00000000000076d4 <__ZNSt3__112basic_stringIcNS_11char_traitsIcEENS_9allocatorIcEEEC1B8ne180100IPKcLi0EEET_S9_RKS4_>:
    76d4: d10103ff     	sub	sp, sp, #0x40
    76d8: a9037bfd     	stp	x29, x30, [sp, #0x30]
    76dc: 9100c3fd     	add	x29, sp, #0x30
    76e0: f81f83a0     	stur	x0, [x29, #-0x8]
    76e4: f81f03a1     	stur	x1, [x29, #-0x10]
    76e8: f9000fe2     	str	x2, [sp, #0x18]
    76ec: f9000be3     	str	x3, [sp, #0x10]
    76f0: f85f83a0     	ldur	x0, [x29, #-0x8]
    76f4: f90007e0     	str	x0, [sp, #0x8]
    76f8: f85f03a1     	ldur	x1, [x29, #-0x10]
    76fc: f9400fe2     	ldr	x2, [sp, #0x18]
    7700: f9400be3     	ldr	x3, [sp, #0x10]
    7704: 94000000     	bl	0x7704 <__ZNSt3__112basic_stringIcNS_11char_traitsIcEENS_9allocatorIcEEEC1B8ne180100IPKcLi0EEET_S9_RKS4_+0x30>
    7708: f94007e0     	ldr	x0, [sp, #0x8]
    770c: a9437bfd     	ldp	x29, x30, [sp, #0x30]
    7710: 910103ff     	add	sp, sp, #0x40
    7714: d65f03c0     	ret

0000000000007718 <__ZNKSt3__112basic_stringIcNS_11char_traitsIcEENS_9allocatorIcEEE4dataB8ne180100Ev>:
    7718: d10083ff     	sub	sp, sp, #0x20
    771c: a9017bfd     	stp	x29, x30, [sp, #0x10]
    7720: 910043fd     	add	x29, sp, #0x10
    7724: f90007e0     	str	x0, [sp, #0x8]
    7728: f94007e0     	ldr	x0, [sp, #0x8]
    772c: 94000000     	bl	0x772c <__ZNKSt3__112basic_stringIcNS_11char_traitsIcEENS_9allocatorIcEEE4dataB8ne180100Ev+0x14>
    7730: 94000000     	bl	0x7730 <__ZNKSt3__112basic_stringIcNS_11char_traitsIcEENS_9allocatorIcEEE4dataB8ne180100Ev+0x18>
    7734: a9417bfd     	ldp	x29, x30, [sp, #0x10]
    7738: 910083ff     	add	sp, sp, #0x20
    773c: d65f03c0     	ret

0000000000007740 <__ZNKSt3__112basic_stringIcNS_11char_traitsIcEENS_9allocatorIcEEE14__get_long_capB8ne180100Ev>:
    7740: d10083ff     	sub	sp, sp, #0x20
    7744: a9017bfd     	stp	x29, x30, [sp, #0x10]
    7748: 910043fd     	add	x29, sp, #0x10
    774c: f90007e0     	str	x0, [sp, #0x8]
    7750: f94007e0     	ldr	x0, [sp, #0x8]
    7754: 94000000     	bl	0x7754 <__ZNKSt3__112basic_stringIcNS_11char_traitsIcEENS_9allocatorIcEEE14__get_long_capB8ne180100Ev+0x14>
    7758: f9400808     	ldr	x8, [x0, #0x10]
    775c: 9240f908     	and	x8, x8, #0x7fffffffffffffff
    7760: d340fd00     	lsr	x0, x8, #0
    7764: a9417bfd     	ldp	x29, x30, [sp, #0x10]
    7768: 910083ff     	add	sp, sp, #0x20
    776c: d65f03c0     	ret

0000000000007770 <__ZNSt3__110__distanceB8ne180100IPKcEENS_15iterator_traitsIT_E15difference_typeES4_S4_NS_26random_access_iterator_tagE>:
    7770: d10083ff     	sub	sp, sp, #0x20
    7774: f9000be0     	str	x0, [sp, #0x10]
    7778: f90007e1     	str	x1, [sp, #0x8]
    777c: f94007e8     	ldr	x8, [sp, #0x8]
    7780: f9400be9     	ldr	x9, [sp, #0x10]
    7784: eb090100     	subs	x0, x8, x9
    7788: 910083ff     	add	sp, sp, #0x20
    778c: d65f03c0     	ret

0000000000007790 <__ZNSt3__121__is_pointer_in_rangeB8ne180100IccLi0EEEbPKT_S3_PKT0_>:
    7790: d100c3ff     	sub	sp, sp, #0x30
    7794: a9027bfd     	stp	x29, x30, [sp, #0x20]
    7798: 910083fd     	add	x29, sp, #0x20
    779c: aa0203e8     	mov	x8, x2
    77a0: d10023a2     	sub	x2, x29, #0x8
    77a4: f81f83a0     	stur	x0, [x29, #-0x8]
    77a8: f9000be1     	str	x1, [sp, #0x10]
    77ac: 910023e1     	add	x1, sp, #0x8
    77b0: f90007e8     	str	x8, [sp, #0x8]
    77b4: 91001fe0     	add	x0, sp, #0x7
    77b8: 94000000     	bl	0x77b8 <__ZNSt3__121__is_pointer_in_rangeB8ne180100IccLi0EEEbPKT_S3_PKT0_+0x28>
    77bc: 52800008     	mov	w8, #0x0                ; =0
    77c0: b90003e8     	str	w8, [sp]
    77c4: 37000100     	tbnz	w0, #0x0, 0x77e4 <__ZNSt3__121__is_pointer_in_rangeB8ne180100IccLi0EEEbPKT_S3_PKT0_+0x54>
    77c8: 14000001     	b	0x77cc <__ZNSt3__121__is_pointer_in_rangeB8ne180100IccLi0EEEbPKT_S3_PKT0_+0x3c>
    77cc: 91001be0     	add	x0, sp, #0x6
    77d0: 910023e1     	add	x1, sp, #0x8
    77d4: 910043e2     	add	x2, sp, #0x10
    77d8: 94000000     	bl	0x77d8 <__ZNSt3__121__is_pointer_in_rangeB8ne180100IccLi0EEEbPKT_S3_PKT0_+0x48>
    77dc: b90003e0     	str	w0, [sp]
    77e0: 14000001     	b	0x77e4 <__ZNSt3__121__is_pointer_in_rangeB8ne180100IccLi0EEEbPKT_S3_PKT0_+0x54>
    77e4: b94003e8     	ldr	w8, [sp]
    77e8: 12000100     	and	w0, w8, #0x1
    77ec: a9427bfd     	ldp	x29, x30, [sp, #0x20]
    77f0: 9100c3ff     	add	sp, sp, #0x30
    77f4: d65f03c0     	ret

00000000000077f8 <__ZNKSt3__16__lessIvvEclB8ne180100IPKcS4_EEbRKT_RKT0_>:
    77f8: d10083ff     	sub	sp, sp, #0x20
    77fc: f9000fe0     	str	x0, [sp, #0x18]
    7800: f9000be1     	str	x1, [sp, #0x10]
    7804: f90007e2     	str	x2, [sp, #0x8]
    7808: f9400be8     	ldr	x8, [sp, #0x10]
    780c: f9400108     	ldr	x8, [x8]
    7810: f94007e9     	ldr	x9, [sp, #0x8]
    7814: f9400129     	ldr	x9, [x9]
    7818: eb090108     	subs	x8, x8, x9
    781c: 1a9f27e8     	cset	w8, lo
    7820: 12000100     	and	w0, w8, #0x1
    7824: 910083ff     	add	sp, sp, #0x20
    7828: d65f03c0     	ret

000000000000782c <__ZNSt3__112basic_stringIcNS_11char_traitsIcEENS_9allocatorIcEEE15__set_long_sizeB8ne180100Em>:
    782c: d100c3ff     	sub	sp, sp, #0x30
    7830: a9027bfd     	stp	x29, x30, [sp, #0x20]
    7834: 910083fd     	add	x29, sp, #0x20
    7838: f81f83a0     	stur	x0, [x29, #-0x8]
    783c: f9000be1     	str	x1, [sp, #0x10]
    7840: f85f83a0     	ldur	x0, [x29, #-0x8]
    7844: f9400be8     	ldr	x8, [sp, #0x10]
    7848: f90007e8     	str	x8, [sp, #0x8]
    784c: 94000000     	bl	0x784c <__ZNSt3__112basic_stringIcNS_11char_traitsIcEENS_9allocatorIcEEE15__set_long_sizeB8ne180100Em+0x20>
    7850: f94007e8     	ldr	x8, [sp, #0x8]
    7854: f9000408     	str	x8, [x0, #0x8]
    7858: a9427bfd     	ldp	x29, x30, [sp, #0x20]
    785c: 9100c3ff     	add	sp, sp, #0x30
    7860: d65f03c0     	ret

0000000000007864 <__ZNSt3__112basic_stringIcNS_11char_traitsIcEENS_9allocatorIcEEE16__set_short_sizeB8ne180100Em>:
    7864: d10103ff     	sub	sp, sp, #0x40
    7868: a9037bfd     	stp	x29, x30, [sp, #0x30]
    786c: 9100c3fd     	add	x29, sp, #0x30
    7870: f81f83a0     	stur	x0, [x29, #-0x8]
    7874: f81f03a1     	stur	x1, [x29, #-0x10]
    7878: f85f83a0     	ldur	x0, [x29, #-0x8]
    787c: f9000be0     	str	x0, [sp, #0x10]
    7880: f85f03a8     	ldur	x8, [x29, #-0x10]
    7884: f90007e8     	str	x8, [sp, #0x8]
    7888: 94000000     	bl	0x7888 <__ZNSt3__112basic_stringIcNS_11char_traitsIcEENS_9allocatorIcEEE16__set_short_sizeB8ne180100Em+0x24>
    788c: f94007ea     	ldr	x10, [sp, #0x8]
    7890: aa0003e9     	mov	x9, x0
    7894: f9400be0     	ldr	x0, [sp, #0x10]
    7898: 39405d28     	ldrb	w8, [x9, #0x17]
    789c: 52800feb     	mov	w11, #0x7f              ; =127
    78a0: b81ec3ab     	stur	w11, [x29, #-0x14]
    78a4: 1200194a     	and	w10, w10, #0x7f
    78a8: 12196108     	and	w8, w8, #0xffffff80
    78ac: 2a0a0108     	orr	w8, w8, w10
    78b0: 39005d28     	strb	w8, [x9, #0x17]
    78b4: 94000000     	bl	0x78b4 <__ZNSt3__112basic_stringIcNS_11char_traitsIcEENS_9allocatorIcEEE16__set_short_sizeB8ne180100Em+0x50>
    78b8: b85ec3a9     	ldur	w9, [x29, #-0x14]
    78bc: 39405c08     	ldrb	w8, [x0, #0x17]
    78c0: 0a090108     	and	w8, w8, w9
    78c4: 52800009     	mov	w9, #0x0                ; =0
    78c8: 2a090108     	orr	w8, w8, w9
    78cc: 39005c08     	strb	w8, [x0, #0x17]
    78d0: a9437bfd     	ldp	x29, x30, [sp, #0x30]
    78d4: 910103ff     	add	sp, sp, #0x40
    78d8: d65f03c0     	ret

00000000000078dc <__ZNSt3__117__compressed_pairINS_12basic_stringIcNS_11char_traitsIcEENS_9allocatorIcEEE5__repES5_E6secondB8ne180100Ev>:
    78dc: d10083ff     	sub	sp, sp, #0x20
    78e0: a9017bfd     	stp	x29, x30, [sp, #0x10]
    78e4: 910043fd     	add	x29, sp, #0x10
    78e8: f90007e0     	str	x0, [sp, #0x8]
    78ec: f94007e0     	ldr	x0, [sp, #0x8]
    78f0: 94000000     	bl	0x78f0 <__ZNSt3__117__compressed_pairINS_12basic_stringIcNS_11char_traitsIcEENS_9allocatorIcEEE5__repES5_E6secondB8ne180100Ev+0x14>
    78f4: a9417bfd     	ldp	x29, x30, [sp, #0x10]
    78f8: 910083ff     	add	sp, sp, #0x20
    78fc: d65f03c0     	ret

0000000000007900 <__ZNSt3__122__compressed_pair_elemINS_9allocatorIcEELi1ELb1EE5__getB8ne180100Ev>:
    7900: d10043ff     	sub	sp, sp, #0x10
    7904: f90007e0     	str	x0, [sp, #0x8]
    7908: f94007e0     	ldr	x0, [sp, #0x8]
    790c: 910043ff     	add	sp, sp, #0x10
    7910: d65f03c0     	ret

0000000000007914 <__ZNSt3__112basic_stringIcNS_11char_traitsIcEENS_9allocatorIcEEEC2B8ne180100IPKcLi0EEET_S9_RKS4_>:
    7914: d10103ff     	sub	sp, sp, #0x40
    7918: a9037bfd     	stp	x29, x30, [sp, #0x30]
    791c: 9100c3fd     	add	x29, sp, #0x30
    7920: f81f83a0     	stur	x0, [x29, #-0x8]
    7924: f81f03a1     	stur	x1, [x29, #-0x10]
    7928: f9000fe2     	str	x2, [sp, #0x18]
    792c: f9000be3     	str	x3, [sp, #0x10]
    7930: f85f83a0     	ldur	x0, [x29, #-0x8]
    7934: f90003e0     	str	x0, [sp]
    7938: f9400be2     	ldr	x2, [sp, #0x10]
    793c: 91003fe1     	add	x1, sp, #0xf
    7940: 94000000     	bl	0x7940 <__ZNSt3__112basic_stringIcNS_11char_traitsIcEENS_9allocatorIcEEEC2B8ne180100IPKcLi0EEET_S9_RKS4_+0x2c>
    7944: f94003e0     	ldr	x0, [sp]
    7948: f85f03a1     	ldur	x1, [x29, #-0x10]
    794c: f9400fe2     	ldr	x2, [sp, #0x18]
    7950: 94000000     	bl	0x7950 <__ZNSt3__112basic_stringIcNS_11char_traitsIcEENS_9allocatorIcEEEC2B8ne180100IPKcLi0EEET_S9_RKS4_+0x3c>
    7954: f94003e0     	ldr	x0, [sp]
    7958: a9437bfd     	ldp	x29, x30, [sp, #0x30]
    795c: 910103ff     	add	sp, sp, #0x40
    7960: d65f03c0     	ret

0000000000007964 <__ZNSt3__117__compressed_pairINS_12basic_stringIcNS_11char_traitsIcEENS_9allocatorIcEEE5__repES5_EC1B8ne180100INS_18__default_init_tagERKS5_EEOT_OT0_>:
    7964: d100c3ff     	sub	sp, sp, #0x30
    7968: a9027bfd     	stp	x29, x30, [sp, #0x20]
    796c: 910083fd     	add	x29, sp, #0x20
    7970: f81f83a0     	stur	x0, [x29, #-0x8]
    7974: f9000be1     	str	x1, [sp, #0x10]
    7978: f90007e2     	str	x2, [sp, #0x8]
    797c: f85f83a0     	ldur	x0, [x29, #-0x8]
    7980: f90003e0     	str	x0, [sp]
    7984: f9400be1     	ldr	x1, [sp, #0x10]
    7988: f94007e2     	ldr	x2, [sp, #0x8]
    798c: 94000000     	bl	0x798c <__ZNSt3__117__compressed_pairINS_12basic_stringIcNS_11char_traitsIcEENS_9allocatorIcEEE5__repES5_EC1B8ne180100INS_18__default_init_tagERKS5_EEOT_OT0_+0x28>
    7990: f94003e0     	ldr	x0, [sp]
    7994: a9427bfd     	ldp	x29, x30, [sp, #0x20]
    7998: 9100c3ff     	add	sp, sp, #0x30
    799c: d65f03c0     	ret

00000000000079a0 <__ZNSt3__112basic_stringIcNS_11char_traitsIcEENS_9allocatorIcEEE6__initIPKcLi0EEEvT_S9_>:
    79a0: d10103ff     	sub	sp, sp, #0x40
    79a4: a9037bfd     	stp	x29, x30, [sp, #0x30]
    79a8: 9100c3fd     	add	x29, sp, #0x30
    79ac: f81f83a0     	stur	x0, [x29, #-0x8]
    79b0: f81f03a1     	stur	x1, [x29, #-0x10]
    79b4: f9000fe2     	str	x2, [sp, #0x18]
    79b8: f85f83a8     	ldur	x8, [x29, #-0x8]
    79bc: f90007e8     	str	x8, [sp, #0x8]
    79c0: f85f03a0     	ldur	x0, [x29, #-0x10]
    79c4: f9400fe1     	ldr	x1, [sp, #0x18]
    79c8: 94000000     	bl	0x79c8 <__ZNSt3__112basic_stringIcNS_11char_traitsIcEENS_9allocatorIcEEE6__initIPKcLi0EEEvT_S9_+0x28>
    79cc: aa0003e8     	mov	x8, x0
    79d0: f94007e0     	ldr	x0, [sp, #0x8]
    79d4: f9000be8     	str	x8, [sp, #0x10]
    79d8: f85f03a1     	ldur	x1, [x29, #-0x10]
    79dc: f9400fe2     	ldr	x2, [sp, #0x18]
    79e0: f9400be3     	ldr	x3, [sp, #0x10]
    79e4: 94000000     	bl	0x79e4 <__ZNSt3__112basic_stringIcNS_11char_traitsIcEENS_9allocatorIcEEE6__initIPKcLi0EEEvT_S9_+0x44>
    79e8: a9437bfd     	ldp	x29, x30, [sp, #0x30]
    79ec: 910103ff     	add	sp, sp, #0x40
    79f0: d65f03c0     	ret

00000000000079f4 <__ZNSt3__117__compressed_pairINS_12basic_stringIcNS_11char_traitsIcEENS_9allocatorIcEEE5__repES5_EC2B8ne180100INS_18__default_init_tagERKS5_EEOT_OT0_>:
    79f4: d10103ff     	sub	sp, sp, #0x40
    79f8: a9037bfd     	stp	x29, x30, [sp, #0x30]
    79fc: 9100c3fd     	add	x29, sp, #0x30
    7a00: f81f83a0     	stur	x0, [x29, #-0x8]
    7a04: f81f03a1     	stur	x1, [x29, #-0x10]
    7a08: f9000fe2     	str	x2, [sp, #0x18]
    7a0c: f85f83a0     	ldur	x0, [x29, #-0x8]
    7a10: f90007e0     	str	x0, [sp, #0x8]
    7a14: 94000000     	bl	0x7a14 <__ZNSt3__117__compressed_pairINS_12basic_stringIcNS_11char_traitsIcEENS_9allocatorIcEEE5__repES5_EC2B8ne180100INS_18__default_init_tagERKS5_EEOT_OT0_+0x20>
    7a18: f94007e0     	ldr	x0, [sp, #0x8]
    7a1c: f9400fe1     	ldr	x1, [sp, #0x18]
    7a20: 94000000     	bl	0x7a20 <__ZNSt3__117__compressed_pairINS_12basic_stringIcNS_11char_traitsIcEENS_9allocatorIcEEE5__repES5_EC2B8ne180100INS_18__default_init_tagERKS5_EEOT_OT0_+0x2c>
    7a24: f94007e0     	ldr	x0, [sp, #0x8]
    7a28: a9437bfd     	ldp	x29, x30, [sp, #0x30]
    7a2c: 910103ff     	add	sp, sp, #0x40
    7a30: d65f03c0     	ret

0000000000007a34 <__ZNSt3__122__compressed_pair_elemINS_9allocatorIcEELi1ELb1EEC2B8ne180100IRKS2_vEEOT_>:
    7a34: d10043ff     	sub	sp, sp, #0x10
    7a38: f90007e0     	str	x0, [sp, #0x8]
    7a3c: f90003e1     	str	x1, [sp]
    7a40: f94007e0     	ldr	x0, [sp, #0x8]
    7a44: 910043ff     	add	sp, sp, #0x10
    7a48: d65f03c0     	ret

0000000000007a4c <__ZNSt3__112basic_stringIcNS_11char_traitsIcEENS_9allocatorIcEEE16__init_with_sizeB8ne180100IPKcS8_EEvT_T0_m>:
    7a4c: d101c3ff     	sub	sp, sp, #0x70
    7a50: a9067bfd     	stp	x29, x30, [sp, #0x60]
    7a54: 910183fd     	add	x29, sp, #0x60
    7a58: f81f83a0     	stur	x0, [x29, #-0x8]
    7a5c: f81f03a1     	stur	x1, [x29, #-0x10]
    7a60: f81e83a2     	stur	x2, [x29, #-0x18]
    7a64: f81e03a3     	stur	x3, [x29, #-0x20]
    7a68: f85f83a0     	ldur	x0, [x29, #-0x8]
    7a6c: f9000be0     	str	x0, [sp, #0x10]
    7a70: f85e03a8     	ldur	x8, [x29, #-0x20]
    7a74: f9000fe8     	str	x8, [sp, #0x18]
    7a78: 94000000     	bl	0x7a78 <__ZNSt3__112basic_stringIcNS_11char_traitsIcEENS_9allocatorIcEEE16__init_with_sizeB8ne180100IPKcS8_EEvT_T0_m+0x2c>
    7a7c: f9400fe8     	ldr	x8, [sp, #0x18]
    7a80: eb000108     	subs	x8, x8, x0
    7a84: 1a9f87e8     	cset	w8, ls
    7a88: 37000088     	tbnz	w8, #0x0, 0x7a98 <__ZNSt3__112basic_stringIcNS_11char_traitsIcEENS_9allocatorIcEEE16__init_with_sizeB8ne180100IPKcS8_EEvT_T0_m+0x4c>
    7a8c: 14000001     	b	0x7a90 <__ZNSt3__112basic_stringIcNS_11char_traitsIcEENS_9allocatorIcEEE16__init_with_sizeB8ne180100IPKcS8_EEvT_T0_m+0x44>
    7a90: f9400be0     	ldr	x0, [sp, #0x10]
    7a94: 94000000     	bl	0x7a94 <__ZNSt3__112basic_stringIcNS_11char_traitsIcEENS_9allocatorIcEEE16__init_with_sizeB8ne180100IPKcS8_EEvT_T0_m+0x48>
    7a98: f85e03a0     	ldur	x0, [x29, #-0x20]
    7a9c: 94000000     	bl	0x7a9c <__ZNSt3__112basic_stringIcNS_11char_traitsIcEENS_9allocatorIcEEE16__init_with_sizeB8ne180100IPKcS8_EEvT_T0_m+0x50>
    7aa0: 36000120     	tbz	w0, #0x0, 0x7ac4 <__ZNSt3__112basic_stringIcNS_11char_traitsIcEENS_9allocatorIcEEE16__init_with_sizeB8ne180100IPKcS8_EEvT_T0_m+0x78>
    7aa4: 14000001     	b	0x7aa8 <__ZNSt3__112basic_stringIcNS_11char_traitsIcEENS_9allocatorIcEEE16__init_with_sizeB8ne180100IPKcS8_EEvT_T0_m+0x5c>
    7aa8: f9400be0     	ldr	x0, [sp, #0x10]
    7aac: f85e03a1     	ldur	x1, [x29, #-0x20]
    7ab0: 94000000     	bl	0x7ab0 <__ZNSt3__112basic_stringIcNS_11char_traitsIcEENS_9allocatorIcEEE16__init_with_sizeB8ne180100IPKcS8_EEvT_T0_m+0x64>
    7ab4: f9400be0     	ldr	x0, [sp, #0x10]
    7ab8: 94000000     	bl	0x7ab8 <__ZNSt3__112basic_stringIcNS_11char_traitsIcEENS_9allocatorIcEEE16__init_with_sizeB8ne180100IPKcS8_EEvT_T0_m+0x6c>
    7abc: f81d83a0     	stur	x0, [x29, #-0x28]
    7ac0: 1400001b     	b	0x7b2c <__ZNSt3__112basic_stringIcNS_11char_traitsIcEENS_9allocatorIcEEE16__init_with_sizeB8ne180100IPKcS8_EEvT_T0_m+0xe0>
    7ac4: f9400be0     	ldr	x0, [sp, #0x10]
    7ac8: 94000000     	bl	0x7ac8 <__ZNSt3__112basic_stringIcNS_11char_traitsIcEENS_9allocatorIcEEE16__init_with_sizeB8ne180100IPKcS8_EEvT_T0_m+0x7c>
    7acc: f90007e0     	str	x0, [sp, #0x8]
    7ad0: f85e03a0     	ldur	x0, [x29, #-0x20]
    7ad4: 94000000     	bl	0x7ad4 <__ZNSt3__112basic_stringIcNS_11char_traitsIcEENS_9allocatorIcEEE16__init_with_sizeB8ne180100IPKcS8_EEvT_T0_m+0x88>
    7ad8: aa0003e8     	mov	x8, x0
    7adc: f94007e0     	ldr	x0, [sp, #0x8]
    7ae0: 91000501     	add	x1, x8, #0x1
    7ae4: 94000000     	bl	0x7ae4 <__ZNSt3__112basic_stringIcNS_11char_traitsIcEENS_9allocatorIcEEE16__init_with_sizeB8ne180100IPKcS8_EEvT_T0_m+0x98>
    7ae8: f90017e0     	str	x0, [sp, #0x28]
    7aec: f9001be1     	str	x1, [sp, #0x30]
    7af0: f94017e8     	ldr	x8, [sp, #0x28]
    7af4: f81d83a8     	stur	x8, [x29, #-0x28]
    7af8: f85d83a0     	ldur	x0, [x29, #-0x28]
    7afc: f9401be1     	ldr	x1, [sp, #0x30]
    7b00: 94000000     	bl	0x7b00 <__ZNSt3__112basic_stringIcNS_11char_traitsIcEENS_9allocatorIcEEE16__init_with_sizeB8ne180100IPKcS8_EEvT_T0_m+0xb4>
    7b04: f9400be0     	ldr	x0, [sp, #0x10]
    7b08: f85d83a1     	ldur	x1, [x29, #-0x28]
    7b0c: 94000000     	bl	0x7b0c <__ZNSt3__112basic_stringIcNS_11char_traitsIcEENS_9allocatorIcEEE16__init_with_sizeB8ne180100IPKcS8_EEvT_T0_m+0xc0>
    7b10: f9400be0     	ldr	x0, [sp, #0x10]
    7b14: f9401be1     	ldr	x1, [sp, #0x30]
    7b18: 94000000     	bl	0x7b18 <__ZNSt3__112basic_stringIcNS_11char_traitsIcEENS_9allocatorIcEEE16__init_with_sizeB8ne180100IPKcS8_EEvT_T0_m+0xcc>
    7b1c: f9400be0     	ldr	x0, [sp, #0x10]
    7b20: f85e03a1     	ldur	x1, [x29, #-0x20]
    7b24: 94000000     	bl	0x7b24 <__ZNSt3__112basic_stringIcNS_11char_traitsIcEENS_9allocatorIcEEE16__init_with_sizeB8ne180100IPKcS8_EEvT_T0_m+0xd8>
    7b28: 14000001     	b	0x7b2c <__ZNSt3__112basic_stringIcNS_11char_traitsIcEENS_9allocatorIcEEE16__init_with_sizeB8ne180100IPKcS8_EEvT_T0_m+0xe0>
    7b2c: 14000001     	b	0x7b30 <__ZNSt3__112basic_stringIcNS_11char_traitsIcEENS_9allocatorIcEEE16__init_with_sizeB8ne180100IPKcS8_EEvT_T0_m+0xe4>
    7b30: f85f03a8     	ldur	x8, [x29, #-0x10]
    7b34: f85e83a9     	ldur	x9, [x29, #-0x18]
    7b38: eb090108     	subs	x8, x8, x9
    7b3c: 1a9f17e8     	cset	w8, eq
    7b40: 370001a8     	tbnz	w8, #0x0, 0x7b74 <__ZNSt3__112basic_stringIcNS_11char_traitsIcEENS_9allocatorIcEEE16__init_with_sizeB8ne180100IPKcS8_EEvT_T0_m+0x128>
    7b44: 14000001     	b	0x7b48 <__ZNSt3__112basic_stringIcNS_11char_traitsIcEENS_9allocatorIcEEE16__init_with_sizeB8ne180100IPKcS8_EEvT_T0_m+0xfc>
    7b48: f85d83a0     	ldur	x0, [x29, #-0x28]
    7b4c: f85f03a1     	ldur	x1, [x29, #-0x10]
    7b50: 94000000     	bl	0x7b50 <__ZNSt3__112basic_stringIcNS_11char_traitsIcEENS_9allocatorIcEEE16__init_with_sizeB8ne180100IPKcS8_EEvT_T0_m+0x104>
    7b54: 14000001     	b	0x7b58 <__ZNSt3__112basic_stringIcNS_11char_traitsIcEENS_9allocatorIcEEE16__init_with_sizeB8ne180100IPKcS8_EEvT_T0_m+0x10c>
    7b58: f85f03a8     	ldur	x8, [x29, #-0x10]
    7b5c: 91000508     	add	x8, x8, #0x1
    7b60: f81f03a8     	stur	x8, [x29, #-0x10]
    7b64: f85d83a8     	ldur	x8, [x29, #-0x28]
    7b68: 91000508     	add	x8, x8, #0x1
    7b6c: f81d83a8     	stur	x8, [x29, #-0x28]
    7b70: 17fffff0     	b	0x7b30 <__ZNSt3__112basic_stringIcNS_11char_traitsIcEENS_9allocatorIcEEE16__init_with_sizeB8ne180100IPKcS8_EEvT_T0_m+0xe4>
    7b74: f85d83a0     	ldur	x0, [x29, #-0x28]
    7b78: 91009fe1     	add	x1, sp, #0x27
    7b7c: 39009fff     	strb	wzr, [sp, #0x27]
    7b80: 94000000     	bl	0x7b80 <__ZNSt3__112basic_stringIcNS_11char_traitsIcEENS_9allocatorIcEEE16__init_with_sizeB8ne180100IPKcS8_EEvT_T0_m+0x134>
    7b84: f9400be0     	ldr	x0, [sp, #0x10]
    7b88: f85e03a1     	ldur	x1, [x29, #-0x20]
    7b8c: 94000000     	bl	0x7b8c <__ZNSt3__112basic_stringIcNS_11char_traitsIcEENS_9allocatorIcEEE16__init_with_sizeB8ne180100IPKcS8_EEvT_T0_m+0x140>
    7b90: a9467bfd     	ldp	x29, x30, [sp, #0x60]
    7b94: 9101c3ff     	add	sp, sp, #0x70
    7b98: d65f03c0     	ret

0000000000007b9c <__ZNKSt3__112basic_stringIcNS_11char_traitsIcEENS_9allocatorIcEEE8max_sizeB8ne180100Ev>:
    7b9c: d10103ff     	sub	sp, sp, #0x40
    7ba0: a9037bfd     	stp	x29, x30, [sp, #0x30]
    7ba4: 9100c3fd     	add	x29, sp, #0x30
    7ba8: f81f03a0     	stur	x0, [x29, #-0x10]
    7bac: f85f03a0     	ldur	x0, [x29, #-0x10]
    7bb0: 94000000     	bl	0x7bb0 <__ZNKSt3__112basic_stringIcNS_11char_traitsIcEENS_9allocatorIcEEE8max_sizeB8ne180100Ev+0x14>
    7bb4: 94000000     	bl	0x7bb4 <__ZNKSt3__112basic_stringIcNS_11char_traitsIcEENS_9allocatorIcEEE8max_sizeB8ne180100Ev+0x18>
    7bb8: f9000fe0     	str	x0, [sp, #0x18]
    7bbc: f9400fe8     	ldr	x8, [sp, #0x18]
    7bc0: f90007e8     	str	x8, [sp, #0x8]
    7bc4: 94000000     	bl	0x7bc4 <__ZNKSt3__112basic_stringIcNS_11char_traitsIcEENS_9allocatorIcEEE8max_sizeB8ne180100Ev+0x28>
    7bc8: f94007e8     	ldr	x8, [sp, #0x8]
    7bcc: d2800049     	mov	x9, #0x2                ; =2
    7bd0: 9ac90809     	udiv	x9, x0, x9
    7bd4: eb090108     	subs	x8, x8, x9
    7bd8: 1a9f97e8     	cset	w8, hi
    7bdc: 370000c8     	tbnz	w8, #0x0, 0x7bf4 <__ZNKSt3__112basic_stringIcNS_11char_traitsIcEENS_9allocatorIcEEE8max_sizeB8ne180100Ev+0x58>
    7be0: 14000001     	b	0x7be4 <__ZNKSt3__112basic_stringIcNS_11char_traitsIcEENS_9allocatorIcEEE8max_sizeB8ne180100Ev+0x48>
    7be4: f9400fe8     	ldr	x8, [sp, #0x18]
    7be8: f1002108     	subs	x8, x8, #0x8
    7bec: f81f83a8     	stur	x8, [x29, #-0x8]
    7bf0: 14000012     	b	0x7c38 <__ZNKSt3__112basic_stringIcNS_11char_traitsIcEENS_9allocatorIcEEE8max_sizeB8ne180100Ev+0x9c>
    7bf4: 39005fff     	strb	wzr, [sp, #0x17]
    7bf8: 39405fe8     	ldrb	w8, [sp, #0x17]
    7bfc: 360000c8     	tbz	w8, #0x0, 0x7c14 <__ZNKSt3__112basic_stringIcNS_11char_traitsIcEENS_9allocatorIcEEE8max_sizeB8ne180100Ev+0x78>
    7c00: 14000001     	b	0x7c04 <__ZNKSt3__112basic_stringIcNS_11char_traitsIcEENS_9allocatorIcEEE8max_sizeB8ne180100Ev+0x68>
    7c04: f9400fe8     	ldr	x8, [sp, #0x18]
    7c08: f1002108     	subs	x8, x8, #0x8
    7c0c: f90003e8     	str	x8, [sp]
    7c10: 14000007     	b	0x7c2c <__ZNKSt3__112basic_stringIcNS_11char_traitsIcEENS_9allocatorIcEEE8max_sizeB8ne180100Ev+0x90>
    7c14: f9400fe8     	ldr	x8, [sp, #0x18]
    7c18: d2800049     	mov	x9, #0x2                ; =2
    7c1c: 9ac90908     	udiv	x8, x8, x9
    7c20: f1002108     	subs	x8, x8, #0x8
    7c24: f90003e8     	str	x8, [sp]
    7c28: 14000001     	b	0x7c2c <__ZNKSt3__112basic_stringIcNS_11char_traitsIcEENS_9allocatorIcEEE8max_sizeB8ne180100Ev+0x90>
    7c2c: f94003e8     	ldr	x8, [sp]
    7c30: f81f83a8     	stur	x8, [x29, #-0x8]
    7c34: 14000001     	b	0x7c38 <__ZNKSt3__112basic_stringIcNS_11char_traitsIcEENS_9allocatorIcEEE8max_sizeB8ne180100Ev+0x9c>
    7c38: f85f83a0     	ldur	x0, [x29, #-0x8]
    7c3c: a9437bfd     	ldp	x29, x30, [sp, #0x30]
    7c40: 910103ff     	add	sp, sp, #0x40
    7c44: d65f03c0     	ret

0000000000007c48 <__ZNKSt3__112basic_stringIcNS_11char_traitsIcEENS_9allocatorIcEEE20__throw_length_errorB8ne180100Ev>:
    7c48: d10083ff     	sub	sp, sp, #0x20
    7c4c: a9017bfd     	stp	x29, x30, [sp, #0x10]
    7c50: 910043fd     	add	x29, sp, #0x10
    7c54: f90007e0     	str	x0, [sp, #0x8]
    7c58: 90000000     	adrp	x0, 0x7000 <__ZNKSt3__19basic_iosIcNS_11char_traitsIcEEE5widenB8ne180100Ec+0x28>
    7c5c: 91000000     	add	x0, x0, #0x0
    7c60: 94000000     	bl	0x7c60 <__ZNKSt3__112basic_stringIcNS_11char_traitsIcEENS_9allocatorIcEEE20__throw_length_errorB8ne180100Ev+0x18>

0000000000007c64 <__ZNSt3__112basic_stringIcNS_11char_traitsIcEENS_9allocatorIcEEE13__fits_in_ssoB8ne180100Em>:
    7c64: d10043ff     	sub	sp, sp, #0x10
    7c68: f90007e0     	str	x0, [sp, #0x8]
    7c6c: f94007e8     	ldr	x8, [sp, #0x8]
    7c70: f1005d08     	subs	x8, x8, #0x17
    7c74: 1a9f27e8     	cset	w8, lo
    7c78: 12000100     	and	w0, w8, #0x1
    7c7c: 910043ff     	add	sp, sp, #0x10
    7c80: d65f03c0     	ret

0000000000007c84 <__ZNSt3__119__allocate_at_leastB8ne180100INS_9allocatorIcEEEENS_19__allocation_resultINS_16allocator_traitsIT_E7pointerEEERS5_m>:
    7c84: d100c3ff     	sub	sp, sp, #0x30
    7c88: a9027bfd     	stp	x29, x30, [sp, #0x20]
    7c8c: 910083fd     	add	x29, sp, #0x20
    7c90: f90007e0     	str	x0, [sp, #0x8]
    7c94: f90003e1     	str	x1, [sp]
    7c98: f94007e0     	ldr	x0, [sp, #0x8]
    7c9c: f94003e1     	ldr	x1, [sp]
    7ca0: 94000000     	bl	0x7ca0 <__ZNSt3__119__allocate_at_leastB8ne180100INS_9allocatorIcEEEENS_19__allocation_resultINS_16allocator_traitsIT_E7pointerEEERS5_m+0x1c>
    7ca4: f9000be0     	str	x0, [sp, #0x10]
    7ca8: f94003e8     	ldr	x8, [sp]
    7cac: f9000fe8     	str	x8, [sp, #0x18]
    7cb0: f9400be0     	ldr	x0, [sp, #0x10]
    7cb4: f9400fe1     	ldr	x1, [sp, #0x18]
    7cb8: a9427bfd     	ldp	x29, x30, [sp, #0x20]
    7cbc: 9100c3ff     	add	sp, sp, #0x30
    7cc0: d65f03c0     	ret

0000000000007cc4 <__ZNSt3__112basic_stringIcNS_11char_traitsIcEENS_9allocatorIcEEE11__recommendB8ne180100Em>:
    7cc4: d100c3ff     	sub	sp, sp, #0x30
    7cc8: a9027bfd     	stp	x29, x30, [sp, #0x20]
    7ccc: 910083fd     	add	x29, sp, #0x20
    7cd0: f9000be0     	str	x0, [sp, #0x10]
    7cd4: f9400be8     	ldr	x8, [sp, #0x10]
    7cd8: f1005d08     	subs	x8, x8, #0x17
    7cdc: 1a9f37e8     	cset	w8, hs
    7ce0: 370000a8     	tbnz	w8, #0x0, 0x7cf4 <__ZNSt3__112basic_stringIcNS_11char_traitsIcEENS_9allocatorIcEEE11__recommendB8ne180100Em+0x30>
    7ce4: 14000001     	b	0x7ce8 <__ZNSt3__112basic_stringIcNS_11char_traitsIcEENS_9allocatorIcEEE11__recommendB8ne180100Em+0x24>
    7ce8: d28002c8     	mov	x8, #0x16               ; =22
    7cec: f81f83a8     	stur	x8, [x29, #-0x8]
    7cf0: 14000012     	b	0x7d38 <__ZNSt3__112basic_stringIcNS_11char_traitsIcEENS_9allocatorIcEEE11__recommendB8ne180100Em+0x74>
    7cf4: f9400be8     	ldr	x8, [sp, #0x10]
    7cf8: 91000500     	add	x0, x8, #0x1
    7cfc: 94000000     	bl	0x7cfc <__ZNSt3__112basic_stringIcNS_11char_traitsIcEENS_9allocatorIcEEE11__recommendB8ne180100Em+0x38>
    7d00: f1000408     	subs	x8, x0, #0x1
    7d04: f90007e8     	str	x8, [sp, #0x8]
    7d08: f94007e8     	ldr	x8, [sp, #0x8]
    7d0c: f1005d08     	subs	x8, x8, #0x17
    7d10: 1a9f07e8     	cset	w8, ne
    7d14: 370000c8     	tbnz	w8, #0x0, 0x7d2c <__ZNSt3__112basic_stringIcNS_11char_traitsIcEENS_9allocatorIcEEE11__recommendB8ne180100Em+0x68>
    7d18: 14000001     	b	0x7d1c <__ZNSt3__112basic_stringIcNS_11char_traitsIcEENS_9allocatorIcEEE11__recommendB8ne180100Em+0x58>
    7d1c: f94007e8     	ldr	x8, [sp, #0x8]
    7d20: 91000508     	add	x8, x8, #0x1
    7d24: f90007e8     	str	x8, [sp, #0x8]
    7d28: 14000001     	b	0x7d2c <__ZNSt3__112basic_stringIcNS_11char_traitsIcEENS_9allocatorIcEEE11__recommendB8ne180100Em+0x68>
    7d2c: f94007e8     	ldr	x8, [sp, #0x8]
    7d30: f81f83a8     	stur	x8, [x29, #-0x8]
    7d34: 14000001     	b	0x7d38 <__ZNSt3__112basic_stringIcNS_11char_traitsIcEENS_9allocatorIcEEE11__recommendB8ne180100Em+0x74>
    7d38: f85f83a0     	ldur	x0, [x29, #-0x8]
    7d3c: a9427bfd     	ldp	x29, x30, [sp, #0x20]
    7d40: 9100c3ff     	add	sp, sp, #0x30
    7d44: d65f03c0     	ret

0000000000007d48 <__ZNSt3__112basic_stringIcNS_11char_traitsIcEENS_9allocatorIcEEE16__begin_lifetimeB8ne180100EPcm>:
    7d48: d10043ff     	sub	sp, sp, #0x10
    7d4c: f90007e0     	str	x0, [sp, #0x8]
    7d50: f90003e1     	str	x1, [sp]
    7d54: 910043ff     	add	sp, sp, #0x10
    7d58: d65f03c0     	ret

0000000000007d5c <__ZNSt3__112basic_stringIcNS_11char_traitsIcEENS_9allocatorIcEEE18__set_long_pointerB8ne180100EPc>:
    7d5c: d100c3ff     	sub	sp, sp, #0x30
    7d60: a9027bfd     	stp	x29, x30, [sp, #0x20]
    7d64: 910083fd     	add	x29, sp, #0x20
    7d68: f81f83a0     	stur	x0, [x29, #-0x8]
    7d6c: f9000be1     	str	x1, [sp, #0x10]
    7d70: f85f83a0     	ldur	x0, [x29, #-0x8]
    7d74: f9400be8     	ldr	x8, [sp, #0x10]
    7d78: f90007e8     	str	x8, [sp, #0x8]
    7d7c: 94000000     	bl	0x7d7c <__ZNSt3__112basic_stringIcNS_11char_traitsIcEENS_9allocatorIcEEE18__set_long_pointerB8ne180100EPc+0x20>
    7d80: f94007e8     	ldr	x8, [sp, #0x8]
    7d84: f9000008     	str	x8, [x0]
    7d88: a9427bfd     	ldp	x29, x30, [sp, #0x20]
    7d8c: 9100c3ff     	add	sp, sp, #0x30
    7d90: d65f03c0     	ret

0000000000007d94 <__ZNSt3__112basic_stringIcNS_11char_traitsIcEENS_9allocatorIcEEE14__set_long_capB8ne180100Em>:
    7d94: d100c3ff     	sub	sp, sp, #0x30
    7d98: a9027bfd     	stp	x29, x30, [sp, #0x20]
    7d9c: 910083fd     	add	x29, sp, #0x20
    7da0: f81f83a0     	stur	x0, [x29, #-0x8]
    7da4: f9000be1     	str	x1, [sp, #0x10]
    7da8: f85f83a0     	ldur	x0, [x29, #-0x8]
    7dac: f90007e0     	str	x0, [sp, #0x8]
    7db0: f9400be8     	ldr	x8, [sp, #0x10]
    7db4: d2800029     	mov	x9, #0x1                ; =1
    7db8: 9ac90908     	udiv	x8, x8, x9
    7dbc: f90003e8     	str	x8, [sp]
    7dc0: 94000000     	bl	0x7dc0 <__ZNSt3__112basic_stringIcNS_11char_traitsIcEENS_9allocatorIcEEE14__set_long_capB8ne180100Em+0x2c>
    7dc4: f94003ea     	ldr	x10, [sp]
    7dc8: aa0003e9     	mov	x9, x0
    7dcc: f94007e0     	ldr	x0, [sp, #0x8]
    7dd0: f9400928     	ldr	x8, [x9, #0x10]
    7dd4: 9240f94a     	and	x10, x10, #0x7fffffffffffffff
    7dd8: 92410108     	and	x8, x8, #0x8000000000000000
    7ddc: aa0a0108     	orr	x8, x8, x10
    7de0: f9000928     	str	x8, [x9, #0x10]
    7de4: 94000000     	bl	0x7de4 <__ZNSt3__112basic_stringIcNS_11char_traitsIcEENS_9allocatorIcEEE14__set_long_capB8ne180100Em+0x50>
    7de8: f9400808     	ldr	x8, [x0, #0x10]
    7dec: 9240f908     	and	x8, x8, #0x7fffffffffffffff
    7df0: b2410108     	orr	x8, x8, #0x8000000000000000
    7df4: f9000808     	str	x8, [x0, #0x10]
    7df8: a9427bfd     	ldp	x29, x30, [sp, #0x20]
    7dfc: 9100c3ff     	add	sp, sp, #0x30
    7e00: d65f03c0     	ret

0000000000007e04 <__ZNSt3__116allocator_traitsINS_9allocatorIcEEE8max_sizeB8ne180100IS2_vEEmRKS2_>:
    7e04: d10083ff     	sub	sp, sp, #0x20
    7e08: a9017bfd     	stp	x29, x30, [sp, #0x10]
    7e0c: 910043fd     	add	x29, sp, #0x10
    7e10: f90007e0     	str	x0, [sp, #0x8]
    7e14: f94007e0     	ldr	x0, [sp, #0x8]
    7e18: 94000000     	bl	0x7e18 <__ZNSt3__116allocator_traitsINS_9allocatorIcEEE8max_sizeB8ne180100IS2_vEEmRKS2_+0x14>
    7e1c: a9417bfd     	ldp	x29, x30, [sp, #0x10]
    7e20: 910083ff     	add	sp, sp, #0x20
    7e24: d65f03c0     	ret

0000000000007e28 <__ZNKSt3__112basic_stringIcNS_11char_traitsIcEENS_9allocatorIcEEE7__allocB8ne180100Ev>:
    7e28: d10083ff     	sub	sp, sp, #0x20
    7e2c: a9017bfd     	stp	x29, x30, [sp, #0x10]
    7e30: 910043fd     	add	x29, sp, #0x10
    7e34: f90007e0     	str	x0, [sp, #0x8]
    7e38: f94007e0     	ldr	x0, [sp, #0x8]
    7e3c: 94000000     	bl	0x7e3c <__ZNKSt3__112basic_stringIcNS_11char_traitsIcEENS_9allocatorIcEEE7__allocB8ne180100Ev+0x14>
    7e40: a9417bfd     	ldp	x29, x30, [sp, #0x10]
    7e44: 910083ff     	add	sp, sp, #0x20
    7e48: d65f03c0     	ret

0000000000007e4c <__ZNSt3__114numeric_limitsImE3maxB8ne180100Ev>:
    7e4c: a9bf7bfd     	stp	x29, x30, [sp, #-0x10]!
    7e50: 910003fd     	mov	x29, sp
    7e54: 94000000     	bl	0x7e54 <__ZNSt3__114numeric_limitsImE3maxB8ne180100Ev+0x8>
    7e58: a8c17bfd     	ldp	x29, x30, [sp], #0x10
    7e5c: d65f03c0     	ret

0000000000007e60 <__ZNKSt3__19allocatorIcE8max_sizeB8ne180100Ev>:
    7e60: d10043ff     	sub	sp, sp, #0x10
    7e64: f90007e0     	str	x0, [sp, #0x8]
    7e68: 92800000     	mov	x0, #-0x1               ; =-1
    7e6c: 910043ff     	add	sp, sp, #0x10
    7e70: d65f03c0     	ret

0000000000007e74 <__ZNKSt3__117__compressed_pairINS_12basic_stringIcNS_11char_traitsIcEENS_9allocatorIcEEE5__repES5_E6secondB8ne180100Ev>:
    7e74: d10083ff     	sub	sp, sp, #0x20
    7e78: a9017bfd     	stp	x29, x30, [sp, #0x10]
    7e7c: 910043fd     	add	x29, sp, #0x10
    7e80: f90007e0     	str	x0, [sp, #0x8]
    7e84: f94007e0     	ldr	x0, [sp, #0x8]
    7e88: 94000000     	bl	0x7e88 <__ZNKSt3__117__compressed_pairINS_12basic_stringIcNS_11char_traitsIcEENS_9allocatorIcEEE5__repES5_E6secondB8ne180100Ev+0x14>
    7e8c: a9417bfd     	ldp	x29, x30, [sp, #0x10]
    7e90: 910083ff     	add	sp, sp, #0x20
    7e94: d65f03c0     	ret

0000000000007e98 <__ZNKSt3__122__compressed_pair_elemINS_9allocatorIcEELi1ELb1EE5__getB8ne180100Ev>:
    7e98: d10043ff     	sub	sp, sp, #0x10
    7e9c: f90007e0     	str	x0, [sp, #0x8]
    7ea0: f94007e0     	ldr	x0, [sp, #0x8]
    7ea4: 910043ff     	add	sp, sp, #0x10
    7ea8: d65f03c0     	ret

0000000000007eac <__ZNSt3__123__libcpp_numeric_limitsImLb1EE3maxB8ne180100Ev>:
    7eac: 92800000     	mov	x0, #-0x1               ; =-1
    7eb0: d65f03c0     	ret

0000000000007eb4 <__ZNSt3__120__throw_length_errorB8ne180100EPKc>:
    7eb4: d100c3ff     	sub	sp, sp, #0x30
    7eb8: a9027bfd     	stp	x29, x30, [sp, #0x20]
    7ebc: 910083fd     	add	x29, sp, #0x20
    7ec0: f81f83a0     	stur	x0, [x29, #-0x8]
    7ec4: d2800200     	mov	x0, #0x10               ; =16
    7ec8: 94000000     	bl	0x7ec8 <__ZNSt3__120__throw_length_errorB8ne180100EPKc+0x14>
    7ecc: f90003e0     	str	x0, [sp]
    7ed0: f85f83a1     	ldur	x1, [x29, #-0x8]
    7ed4: 94000000     	bl	0x7ed4 <__ZNSt3__120__throw_length_errorB8ne180100EPKc+0x20>
    7ed8: 14000001     	b	0x7edc <__ZNSt3__120__throw_length_errorB8ne180100EPKc+0x28>
    7edc: f94003e0     	ldr	x0, [sp]
    7ee0: 90000001     	adrp	x1, 0x7000 <__ZNKSt3__19basic_iosIcNS_11char_traitsIcEEE5widenB8ne180100Ec+0x28>
    7ee4: f9400021     	ldr	x1, [x1]
    7ee8: 90000002     	adrp	x2, 0x7000 <__ZNKSt3__19basic_iosIcNS_11char_traitsIcEEE5widenB8ne180100Ec+0x28>
    7eec: f9400042     	ldr	x2, [x2]
    7ef0: 94000000     	bl	0x7ef0 <__ZNSt3__120__throw_length_errorB8ne180100EPKc+0x3c>
    7ef4: aa0003e8     	mov	x8, x0
    7ef8: f94003e0     	ldr	x0, [sp]
    7efc: f9000be8     	str	x8, [sp, #0x10]
    7f00: aa0103e8     	mov	x8, x1
    7f04: b9000fe8     	str	w8, [sp, #0xc]
    7f08: 94000000     	bl	0x7f08 <__ZNSt3__120__throw_length_errorB8ne180100EPKc+0x54>
    7f0c: 14000001     	b	0x7f10 <__ZNSt3__120__throw_length_errorB8ne180100EPKc+0x5c>
    7f10: f9400be0     	ldr	x0, [sp, #0x10]
    7f14: 94000000     	bl	0x7f14 <__ZNSt3__120__throw_length_errorB8ne180100EPKc+0x60>

0000000000007f18 <__ZNSt12length_errorC1B8ne180100EPKc>:
    7f18: d100c3ff     	sub	sp, sp, #0x30
    7f1c: a9027bfd     	stp	x29, x30, [sp, #0x20]
    7f20: 910083fd     	add	x29, sp, #0x20
    7f24: f81f83a0     	stur	x0, [x29, #-0x8]
    7f28: f9000be1     	str	x1, [sp, #0x10]
    7f2c: f85f83a0     	ldur	x0, [x29, #-0x8]
    7f30: f90007e0     	str	x0, [sp, #0x8]
    7f34: f9400be1     	ldr	x1, [sp, #0x10]
    7f38: 94000000     	bl	0x7f38 <__ZNSt12length_errorC1B8ne180100EPKc+0x20>
    7f3c: f94007e0     	ldr	x0, [sp, #0x8]
    7f40: a9427bfd     	ldp	x29, x30, [sp, #0x20]
    7f44: 9100c3ff     	add	sp, sp, #0x30
    7f48: d65f03c0     	ret

0000000000007f4c <__ZNSt12length_errorC2B8ne180100EPKc>:
    7f4c: d100c3ff     	sub	sp, sp, #0x30
    7f50: a9027bfd     	stp	x29, x30, [sp, #0x20]
    7f54: 910083fd     	add	x29, sp, #0x20
    7f58: f81f83a0     	stur	x0, [x29, #-0x8]
    7f5c: f9000be1     	str	x1, [sp, #0x10]
    7f60: f85f83a0     	ldur	x0, [x29, #-0x8]
    7f64: f90007e0     	str	x0, [sp, #0x8]
    7f68: f9400be1     	ldr	x1, [sp, #0x10]
    7f6c: 94000000     	bl	0x7f6c <__ZNSt12length_errorC2B8ne180100EPKc+0x20>
    7f70: f94007e0     	ldr	x0, [sp, #0x8]
    7f74: 90000008     	adrp	x8, 0x7000 <__ZNKSt3__19basic_iosIcNS_11char_traitsIcEEE5widenB8ne180100Ec+0x28>
    7f78: f9400108     	ldr	x8, [x8]
    7f7c: 91004108     	add	x8, x8, #0x10
    7f80: f9000008     	str	x8, [x0]
    7f84: a9427bfd     	ldp	x29, x30, [sp, #0x20]
    7f88: 9100c3ff     	add	sp, sp, #0x30
    7f8c: d65f03c0     	ret

0000000000007f90 <__ZNSt3__19allocatorIcE8allocateB8ne180100Em>:
    7f90: d100c3ff     	sub	sp, sp, #0x30
    7f94: a9027bfd     	stp	x29, x30, [sp, #0x20]
    7f98: 910083fd     	add	x29, sp, #0x20
    7f9c: f81f83a0     	stur	x0, [x29, #-0x8]
    7fa0: f9000be1     	str	x1, [sp, #0x10]
    7fa4: f85f83a0     	ldur	x0, [x29, #-0x8]
    7fa8: f9400be8     	ldr	x8, [sp, #0x10]
    7fac: f90007e8     	str	x8, [sp, #0x8]
    7fb0: 94000000     	bl	0x7fb0 <__ZNSt3__19allocatorIcE8allocateB8ne180100Em+0x20>
    7fb4: f94007e8     	ldr	x8, [sp, #0x8]
    7fb8: eb000108     	subs	x8, x8, x0
    7fbc: 1a9f87e8     	cset	w8, ls
    7fc0: 37000068     	tbnz	w8, #0x0, 0x7fcc <__ZNSt3__19allocatorIcE8allocateB8ne180100Em+0x3c>
    7fc4: 14000001     	b	0x7fc8 <__ZNSt3__19allocatorIcE8allocateB8ne180100Em+0x38>
    7fc8: 94000000     	bl	0x7fc8 <__ZNSt3__19allocatorIcE8allocateB8ne180100Em+0x38>
    7fcc: f9400be8     	ldr	x8, [sp, #0x10]
    7fd0: d340fd00     	lsr	x0, x8, #0
    7fd4: d2800021     	mov	x1, #0x1                ; =1
    7fd8: 94000000     	bl	0x7fd8 <__ZNSt3__19allocatorIcE8allocateB8ne180100Em+0x48>
    7fdc: a9427bfd     	ldp	x29, x30, [sp, #0x20]
    7fe0: 9100c3ff     	add	sp, sp, #0x30
    7fe4: d65f03c0     	ret

0000000000007fe8 <__ZSt28__throw_bad_array_new_lengthB8ne180100v>:
    7fe8: d10083ff     	sub	sp, sp, #0x20
    7fec: a9017bfd     	stp	x29, x30, [sp, #0x10]
    7ff0: 910043fd     	add	x29, sp, #0x10
    7ff4: d2800100     	mov	x0, #0x8                ; =8
    7ff8: 94000000     	bl	0x7ff8 <__ZSt28__throw_bad_array_new_lengthB8ne180100v+0x10>
    7ffc: f90007e0     	str	x0, [sp, #0x8]
    8000: 94000000     	bl	0x8000 <__ZSt28__throw_bad_array_new_lengthB8ne180100v+0x18>
    8004: f94007e0     	ldr	x0, [sp, #0x8]
    8008: 90000001     	adrp	x1, 0x8000 <__ZSt28__throw_bad_array_new_lengthB8ne180100v+0x18>
    800c: f9400021     	ldr	x1, [x1]
    8010: 90000002     	adrp	x2, 0x8000 <__ZSt28__throw_bad_array_new_lengthB8ne180100v+0x18>
    8014: f9400042     	ldr	x2, [x2]
    8018: 94000000     	bl	0x8018 <__ZSt28__throw_bad_array_new_lengthB8ne180100v+0x30>

000000000000801c <__ZNSt3__117__libcpp_allocateB8ne180100Emm>:
    801c: d100c3ff     	sub	sp, sp, #0x30
    8020: a9027bfd     	stp	x29, x30, [sp, #0x20]
    8024: 910083fd     	add	x29, sp, #0x20
    8028: f9000be0     	str	x0, [sp, #0x10]
    802c: f90007e1     	str	x1, [sp, #0x8]
    8030: f94007e0     	ldr	x0, [sp, #0x8]
    8034: 94000000     	bl	0x8034 <__ZNSt3__117__libcpp_allocateB8ne180100Emm+0x18>
    8038: 36000120     	tbz	w0, #0x0, 0x805c <__ZNSt3__117__libcpp_allocateB8ne180100Emm+0x40>
    803c: 14000001     	b	0x8040 <__ZNSt3__117__libcpp_allocateB8ne180100Emm+0x24>
    8040: f94007e8     	ldr	x8, [sp, #0x8]
    8044: f90003e8     	str	x8, [sp]
    8048: f9400be0     	ldr	x0, [sp, #0x10]
    804c: f94003e1     	ldr	x1, [sp]
    8050: 94000000     	bl	0x8050 <__ZNSt3__117__libcpp_allocateB8ne180100Emm+0x34>
    8054: f81f83a0     	stur	x0, [x29, #-0x8]
    8058: 14000005     	b	0x806c <__ZNSt3__117__libcpp_allocateB8ne180100Emm+0x50>
    805c: f9400be0     	ldr	x0, [sp, #0x10]
    8060: 94000000     	bl	0x8060 <__ZNSt3__117__libcpp_allocateB8ne180100Emm+0x44>
    8064: f81f83a0     	stur	x0, [x29, #-0x8]
    8068: 14000001     	b	0x806c <__ZNSt3__117__libcpp_allocateB8ne180100Emm+0x50>
    806c: f85f83a0     	ldur	x0, [x29, #-0x8]
    8070: a9427bfd     	ldp	x29, x30, [sp, #0x20]
    8074: 9100c3ff     	add	sp, sp, #0x30
    8078: d65f03c0     	ret

000000000000807c <__ZNSt3__121__libcpp_operator_newB8ne180100IJmSt11align_val_tEEEPvDpT_>:
    807c: d10083ff     	sub	sp, sp, #0x20
    8080: a9017bfd     	stp	x29, x30, [sp, #0x10]
    8084: 910043fd     	add	x29, sp, #0x10
    8088: f90007e0     	str	x0, [sp, #0x8]
    808c: f90003e1     	str	x1, [sp]
    8090: f94007e0     	ldr	x0, [sp, #0x8]
    8094: f94003e1     	ldr	x1, [sp]
    8098: 94000000     	bl	0x8098 <__ZNSt3__121__libcpp_operator_newB8ne180100IJmSt11align_val_tEEEPvDpT_+0x1c>
    809c: a9417bfd     	ldp	x29, x30, [sp, #0x10]
    80a0: 910083ff     	add	sp, sp, #0x20
    80a4: d65f03c0     	ret

00000000000080a8 <__ZNSt3__121__libcpp_operator_newB8ne180100IJmEEEPvDpT_>:
    80a8: d10083ff     	sub	sp, sp, #0x20
    80ac: a9017bfd     	stp	x29, x30, [sp, #0x10]
    80b0: 910043fd     	add	x29, sp, #0x10
    80b4: f90007e0     	str	x0, [sp, #0x8]
    80b8: f94007e0     	ldr	x0, [sp, #0x8]
    80bc: 94000000     	bl	0x80bc <__ZNSt3__121__libcpp_operator_newB8ne180100IJmEEEPvDpT_+0x14>
    80c0: a9417bfd     	ldp	x29, x30, [sp, #0x10]
    80c4: 910083ff     	add	sp, sp, #0x20
    80c8: d65f03c0     	ret

00000000000080cc <__ZNSt3__112basic_stringIcNS_11char_traitsIcEENS_9allocatorIcEEE10__align_itB8ne180100ILm8EEEmm>:
    80cc: d10043ff     	sub	sp, sp, #0x10
    80d0: f90007e0     	str	x0, [sp, #0x8]
    80d4: f94007e8     	ldr	x8, [sp, #0x8]
    80d8: 91001d08     	add	x8, x8, #0x7
    80dc: 927df100     	and	x0, x8, #0xfffffffffffffff8
    80e0: 910043ff     	add	sp, sp, #0x10
    80e4: d65f03c0     	ret

00000000000080e8 <__ZNSt3__112__to_addressB8ne180100IKcEEPT_S3_>:
    80e8: d10043ff     	sub	sp, sp, #0x10
    80ec: f90007e0     	str	x0, [sp, #0x8]
    80f0: f94007e0     	ldr	x0, [sp, #0x8]
    80f4: 910043ff     	add	sp, sp, #0x10
    80f8: d65f03c0     	ret

00000000000080fc <__ZNKSt3__112basic_stringIcNS_11char_traitsIcEENS_9allocatorIcEEE13__get_pointerB8ne180100Ev>:
    80fc: d100c3ff     	sub	sp, sp, #0x30
    8100: a9027bfd     	stp	x29, x30, [sp, #0x20]
    8104: 910083fd     	add	x29, sp, #0x20
    8108: f81f83a0     	stur	x0, [x29, #-0x8]
    810c: f85f83a0     	ldur	x0, [x29, #-0x8]
    8110: f9000be0     	str	x0, [sp, #0x10]
    8114: 94000000     	bl	0x8114 <__ZNKSt3__112basic_stringIcNS_11char_traitsIcEENS_9allocatorIcEEE13__get_pointerB8ne180100Ev+0x18>
    8118: 360000c0     	tbz	w0, #0x0, 0x8130 <__ZNKSt3__112basic_stringIcNS_11char_traitsIcEENS_9allocatorIcEEE13__get_pointerB8ne180100Ev+0x34>
    811c: 14000001     	b	0x8120 <__ZNKSt3__112basic_stringIcNS_11char_traitsIcEENS_9allocatorIcEEE13__get_pointerB8ne180100Ev+0x24>
    8120: f9400be0     	ldr	x0, [sp, #0x10]
    8124: 94000000     	bl	0x8124 <__ZNKSt3__112basic_stringIcNS_11char_traitsIcEENS_9allocatorIcEEE13__get_pointerB8ne180100Ev+0x28>
    8128: f90007e0     	str	x0, [sp, #0x8]
    812c: 14000005     	b	0x8140 <__ZNKSt3__112basic_stringIcNS_11char_traitsIcEENS_9allocatorIcEEE13__get_pointerB8ne180100Ev+0x44>
    8130: f9400be0     	ldr	x0, [sp, #0x10]
    8134: 94000000     	bl	0x8134 <__ZNKSt3__112basic_stringIcNS_11char_traitsIcEENS_9allocatorIcEEE13__get_pointerB8ne180100Ev+0x38>
    8138: f90007e0     	str	x0, [sp, #0x8]
    813c: 14000001     	b	0x8140 <__ZNKSt3__112basic_stringIcNS_11char_traitsIcEENS_9allocatorIcEEE13__get_pointerB8ne180100Ev+0x44>
    8140: f94007e0     	ldr	x0, [sp, #0x8]
    8144: a9427bfd     	ldp	x29, x30, [sp, #0x20]
    8148: 9100c3ff     	add	sp, sp, #0x30
    814c: d65f03c0     	ret

0000000000008150 <__ZNKSt3__112basic_stringIcNS_11char_traitsIcEENS_9allocatorIcEEE18__get_long_pointerB8ne180100Ev>:
    8150: d10083ff     	sub	sp, sp, #0x20
    8154: a9017bfd     	stp	x29, x30, [sp, #0x10]
    8158: 910043fd     	add	x29, sp, #0x10
    815c: f90007e0     	str	x0, [sp, #0x8]
    8160: f94007e0     	ldr	x0, [sp, #0x8]
    8164: 94000000     	bl	0x8164 <__ZNKSt3__112basic_stringIcNS_11char_traitsIcEENS_9allocatorIcEEE18__get_long_pointerB8ne180100Ev+0x14>
    8168: f9400000     	ldr	x0, [x0]
    816c: a9417bfd     	ldp	x29, x30, [sp, #0x10]
    8170: 910083ff     	add	sp, sp, #0x20
    8174: d65f03c0     	ret

0000000000008178 <__ZNKSt3__112basic_stringIcNS_11char_traitsIcEENS_9allocatorIcEEE19__get_short_pointerB8ne180100Ev>:
    8178: d10083ff     	sub	sp, sp, #0x20
    817c: a9017bfd     	stp	x29, x30, [sp, #0x10]
    8180: 910043fd     	add	x29, sp, #0x10
    8184: f90007e0     	str	x0, [sp, #0x8]
    8188: f94007e0     	ldr	x0, [sp, #0x8]
    818c: 94000000     	bl	0x818c <__ZNKSt3__112basic_stringIcNS_11char_traitsIcEENS_9allocatorIcEEE19__get_short_pointerB8ne180100Ev+0x14>
    8190: 94000000     	bl	0x8190 <__ZNKSt3__112basic_stringIcNS_11char_traitsIcEENS_9allocatorIcEEE19__get_short_pointerB8ne180100Ev+0x18>
    8194: a9417bfd     	ldp	x29, x30, [sp, #0x10]
    8198: 910083ff     	add	sp, sp, #0x20
    819c: d65f03c0     	ret

00000000000081a0 <__ZNSt3__114pointer_traitsIPKcE10pointer_toB8ne180100ERS1_>:
    81a0: d10043ff     	sub	sp, sp, #0x10
    81a4: f90007e0     	str	x0, [sp, #0x8]
    81a8: f94007e0     	ldr	x0, [sp, #0x8]
    81ac: 910043ff     	add	sp, sp, #0x10
    81b0: d65f03c0     	ret

00000000000081b4 <__ZNKSt3__112basic_stringIcNS_11char_traitsIcEENS_9allocatorIcEEE6lengthB8ne180100Ev>:
    81b4: d10083ff     	sub	sp, sp, #0x20
    81b8: a9017bfd     	stp	x29, x30, [sp, #0x10]
    81bc: 910043fd     	add	x29, sp, #0x10
    81c0: f90007e0     	str	x0, [sp, #0x8]
    81c4: f94007e0     	ldr	x0, [sp, #0x8]
    81c8: 94000000     	bl	0x81c8 <__ZNKSt3__112basic_stringIcNS_11char_traitsIcEENS_9allocatorIcEEE6lengthB8ne180100Ev+0x14>
    81cc: a9417bfd     	ldp	x29, x30, [sp, #0x10]
    81d0: 910083ff     	add	sp, sp, #0x20
    81d4: d65f03c0     	ret

00000000000081d8 <__ZNSt3__110__list_impINS_12basic_stringIcNS_11char_traitsIcEENS_9allocatorIcEEEENS4_IS6_EEE13__create_nodeB8ne180100IJRKS6_EEEPNS_11__list_nodeIS6_PvEEPNS_16__list_node_baseIS6_SD_EESI_DpOT_>:
    81d8: d10283ff     	sub	sp, sp, #0xa0
    81dc: a9097bfd     	stp	x29, x30, [sp, #0x90]
    81e0: 910243fd     	add	x29, sp, #0x90
    81e4: f81f83a0     	stur	x0, [x29, #-0x8]
    81e8: d10043a8     	sub	x8, x29, #0x10
    81ec: f90017e8     	str	x8, [sp, #0x28]
    81f0: f81f03a1     	stur	x1, [x29, #-0x10]
    81f4: d10063a8     	sub	x8, x29, #0x18
    81f8: f9001be8     	str	x8, [sp, #0x30]
    81fc: f81e83a2     	stur	x2, [x29, #-0x18]
    8200: f81e03a3     	stur	x3, [x29, #-0x20]
    8204: f85f83a0     	ldur	x0, [x29, #-0x8]
    8208: 94000000     	bl	0x8208 <__ZNSt3__110__list_impINS_12basic_stringIcNS_11char_traitsIcEENS_9allocatorIcEEEENS4_IS6_EEE13__create_nodeB8ne180100IJRKS6_EEEPNS_11__list_nodeIS6_PvEEPNS_16__list_node_baseIS6_SD_EESI_DpOT_+0x30>
    820c: f81d83a0     	stur	x0, [x29, #-0x28]
    8210: d10103a0     	sub	x0, x29, #0x40
    8214: f90013e0     	str	x0, [sp, #0x20]
    8218: d2800021     	mov	x1, #0x1                ; =1
    821c: 94000000     	bl	0x821c <__ZNSt3__110__list_impINS_12basic_stringIcNS_11char_traitsIcEENS_9allocatorIcEEEENS4_IS6_EEE13__create_nodeB8ne180100IJRKS6_EEEPNS_11__list_nodeIS6_PvEEPNS_16__list_node_baseIS6_SD_EESI_DpOT_+0x44>
    8220: f94013e0     	ldr	x0, [sp, #0x20]
    8224: 94000000     	bl	0x8224 <__ZNSt3__110__list_impINS_12basic_stringIcNS_11char_traitsIcEENS_9allocatorIcEEEENS4_IS6_EEE13__create_nodeB8ne180100IJRKS6_EEEPNS_11__list_nodeIS6_PvEEPNS_16__list_node_baseIS6_SD_EESI_DpOT_+0x4c>
    8228: f94017e1     	ldr	x1, [sp, #0x28]
    822c: f9401be2     	ldr	x2, [sp, #0x30]
    8230: 94000000     	bl	0x8230 <__ZNSt3__110__list_impINS_12basic_stringIcNS_11char_traitsIcEENS_9allocatorIcEEEENS4_IS6_EEE13__create_nodeB8ne180100IJRKS6_EEEPNS_11__list_nodeIS6_PvEEPNS_16__list_node_baseIS6_SD_EESI_DpOT_+0x58>
    8234: 14000001     	b	0x8238 <__ZNSt3__110__list_impINS_12basic_stringIcNS_11char_traitsIcEENS_9allocatorIcEEEENS4_IS6_EEE13__create_nodeB8ne180100IJRKS6_EEEPNS_11__list_nodeIS6_PvEEPNS_16__list_node_baseIS6_SD_EESI_DpOT_+0x60>
    8238: f85d83a8     	ldur	x8, [x29, #-0x28]
    823c: f9000fe8     	str	x8, [sp, #0x18]
    8240: d10103a0     	sub	x0, x29, #0x40
    8244: 94000000     	bl	0x8244 <__ZNSt3__110__list_impINS_12basic_stringIcNS_11char_traitsIcEENS_9allocatorIcEEEENS4_IS6_EEE13__create_nodeB8ne180100IJRKS6_EEEPNS_11__list_nodeIS6_PvEEPNS_16__list_node_baseIS6_SD_EESI_DpOT_+0x6c>
    8248: 94000000     	bl	0x8248 <__ZNSt3__110__list_impINS_12basic_stringIcNS_11char_traitsIcEENS_9allocatorIcEEEENS4_IS6_EEE13__create_nodeB8ne180100IJRKS6_EEEPNS_11__list_nodeIS6_PvEEPNS_16__list_node_baseIS6_SD_EESI_DpOT_+0x70>
    824c: aa0003e1     	mov	x1, x0
    8250: f9400fe0     	ldr	x0, [sp, #0x18]
    8254: f85e03a2     	ldur	x2, [x29, #-0x20]
    8258: 94000000     	bl	0x8258 <__ZNSt3__110__list_impINS_12basic_stringIcNS_11char_traitsIcEENS_9allocatorIcEEEENS4_IS6_EEE13__create_nodeB8ne180100IJRKS6_EEEPNS_11__list_nodeIS6_PvEEPNS_16__list_node_baseIS6_SD_EESI_DpOT_+0x80>
    825c: 14000001     	b	0x8260 <__ZNSt3__110__list_impINS_12basic_stringIcNS_11char_traitsIcEENS_9allocatorIcEEEENS4_IS6_EEE13__create_nodeB8ne180100IJRKS6_EEEPNS_11__list_nodeIS6_PvEEPNS_16__list_node_baseIS6_SD_EESI_DpOT_+0x88>
    8260: d10103a0     	sub	x0, x29, #0x40
    8264: f90007e0     	str	x0, [sp, #0x8]
    8268: 94000000     	bl	0x8268 <__ZNSt3__110__list_impINS_12basic_stringIcNS_11char_traitsIcEENS_9allocatorIcEEEENS4_IS6_EEE13__create_nodeB8ne180100IJRKS6_EEEPNS_11__list_nodeIS6_PvEEPNS_16__list_node_baseIS6_SD_EESI_DpOT_+0x90>
    826c: aa0003e1     	mov	x1, x0
    8270: f94007e0     	ldr	x0, [sp, #0x8]
    8274: f9000be1     	str	x1, [sp, #0x10]
    8278: 94000000     	bl	0x8278 <__ZNSt3__110__list_impINS_12basic_stringIcNS_11char_traitsIcEENS_9allocatorIcEEEENS4_IS6_EEE13__create_nodeB8ne180100IJRKS6_EEEPNS_11__list_nodeIS6_PvEEPNS_16__list_node_baseIS6_SD_EESI_DpOT_+0xa0>
    827c: f9400be0     	ldr	x0, [sp, #0x10]
    8280: a9497bfd     	ldp	x29, x30, [sp, #0x90]
    8284: 910283ff     	add	sp, sp, #0xa0
    8288: d65f03c0     	ret
    828c: f90023e0     	str	x0, [sp, #0x40]
    8290: aa0103e8     	mov	x8, x1
    8294: b9003fe8     	str	w8, [sp, #0x3c]
    8298: d10103a0     	sub	x0, x29, #0x40
    829c: 94000000     	bl	0x829c <__ZNSt3__110__list_impINS_12basic_stringIcNS_11char_traitsIcEENS_9allocatorIcEEEENS4_IS6_EEE13__create_nodeB8ne180100IJRKS6_EEEPNS_11__list_nodeIS6_PvEEPNS_16__list_node_baseIS6_SD_EESI_DpOT_+0xc4>
    82a0: 14000001     	b	0x82a4 <__ZNSt3__110__list_impINS_12basic_stringIcNS_11char_traitsIcEENS_9allocatorIcEEEENS4_IS6_EEE13__create_nodeB8ne180100IJRKS6_EEEPNS_11__list_nodeIS6_PvEEPNS_16__list_node_baseIS6_SD_EESI_DpOT_+0xcc>
    82a4: f94023e0     	ldr	x0, [sp, #0x40]
    82a8: 94000000     	bl	0x82a8 <__ZNSt3__110__list_impINS_12basic_stringIcNS_11char_traitsIcEENS_9allocatorIcEEEENS4_IS6_EEE13__create_nodeB8ne180100IJRKS6_EEEPNS_11__list_nodeIS6_PvEEPNS_16__list_node_baseIS6_SD_EESI_DpOT_+0xd0>

00000000000082ac <__ZNSt3__111__list_nodeINS_12basic_stringIcNS_11char_traitsIcEENS_9allocatorIcEEEEPvE9__as_linkB8ne180100Ev>:
    82ac: d10083ff     	sub	sp, sp, #0x20
    82b0: a9017bfd     	stp	x29, x30, [sp, #0x10]
    82b4: 910043fd     	add	x29, sp, #0x10
    82b8: f90007e0     	str	x0, [sp, #0x8]
    82bc: f94007e0     	ldr	x0, [sp, #0x8]
    82c0: 94000000     	bl	0x82c0 <__ZNSt3__111__list_nodeINS_12basic_stringIcNS_11char_traitsIcEENS_9allocatorIcEEEEPvE9__as_linkB8ne180100Ev+0x14>
    82c4: a9417bfd     	ldp	x29, x30, [sp, #0x10]
    82c8: 910083ff     	add	sp, sp, #0x20
    82cc: d65f03c0     	ret

00000000000082d0 <__ZNSt3__14listINS_12basic_stringIcNS_11char_traitsIcEENS_9allocatorIcEEEENS4_IS6_EEE20__link_nodes_at_backEPNS_16__list_node_baseIS6_PvEESC_>:
    82d0: d100c3ff     	sub	sp, sp, #0x30
    82d4: a9027bfd     	stp	x29, x30, [sp, #0x20]
    82d8: 910083fd     	add	x29, sp, #0x20
    82dc: f81f83a0     	stur	x0, [x29, #-0x8]
    82e0: f9000be1     	str	x1, [sp, #0x10]
    82e4: f90007e2     	str	x2, [sp, #0x8]
    82e8: f85f83a0     	ldur	x0, [x29, #-0x8]
    82ec: f90003e0     	str	x0, [sp]
    82f0: 94000000     	bl	0x82f0 <__ZNSt3__14listINS_12basic_stringIcNS_11char_traitsIcEENS_9allocatorIcEEEENS4_IS6_EEE20__link_nodes_at_backEPNS_16__list_node_baseIS6_PvEESC_+0x20>
    82f4: f94003e9     	ldr	x9, [sp]
    82f8: f94007e8     	ldr	x8, [sp, #0x8]
    82fc: f9000500     	str	x0, [x8, #0x8]
    8300: f9400128     	ldr	x8, [x9]
    8304: f9400bea     	ldr	x10, [sp, #0x10]
    8308: f9000148     	str	x8, [x10]
    830c: f9400be8     	ldr	x8, [sp, #0x10]
    8310: f9400bea     	ldr	x10, [sp, #0x10]
    8314: f940014a     	ldr	x10, [x10]
    8318: f9000548     	str	x8, [x10, #0x8]
    831c: f94007e8     	ldr	x8, [sp, #0x8]
    8320: f9000128     	str	x8, [x9]
    8324: a9427bfd     	ldp	x29, x30, [sp, #0x20]
    8328: 9100c3ff     	add	sp, sp, #0x30
    832c: d65f03c0     	ret

0000000000008330 <__ZNSt3__118__allocation_guardINS_9allocatorINS_11__list_nodeINS_12basic_stringIcNS_11char_traitsIcEENS1_IcEEEEPvEEEEEC1B8ne180100ISA_EET_m>:
    8330: d100c3ff     	sub	sp, sp, #0x30
    8334: a9027bfd     	stp	x29, x30, [sp, #0x20]
    8338: 910083fd     	add	x29, sp, #0x20
    833c: f9000be0     	str	x0, [sp, #0x10]
    8340: f90007e1     	str	x1, [sp, #0x8]
    8344: f9400be0     	ldr	x0, [sp, #0x10]
    8348: f90003e0     	str	x0, [sp]
    834c: f94007e1     	ldr	x1, [sp, #0x8]
    8350: 94000000     	bl	0x8350 <__ZNSt3__118__allocation_guardINS_9allocatorINS_11__list_nodeINS_12basic_stringIcNS_11char_traitsIcEENS1_IcEEEEPvEEEEEC1B8ne180100ISA_EET_m+0x20>
    8354: f94003e0     	ldr	x0, [sp]
    8358: a9427bfd     	ldp	x29, x30, [sp, #0x20]
    835c: 9100c3ff     	add	sp, sp, #0x30
    8360: d65f03c0     	ret

0000000000008364 <__ZNSt3__114__construct_atB8ne180100INS_11__list_nodeINS_12basic_stringIcNS_11char_traitsIcEENS_9allocatorIcEEEEPvEEJRPNS_16__list_node_baseIS7_S8_EESD_EPS9_EEPT_SG_DpOT0_>:
    8364: d100c3ff     	sub	sp, sp, #0x30
    8368: a9027bfd     	stp	x29, x30, [sp, #0x20]
    836c: 910083fd     	add	x29, sp, #0x20
    8370: f81f83a0     	stur	x0, [x29, #-0x8]
    8374: f9000be1     	str	x1, [sp, #0x10]
    8378: f90007e2     	str	x2, [sp, #0x8]
    837c: f85f83a0     	ldur	x0, [x29, #-0x8]
    8380: f90003e0     	str	x0, [sp]
    8384: f9400be8     	ldr	x8, [sp, #0x10]
    8388: f9400101     	ldr	x1, [x8]
    838c: f94007e8     	ldr	x8, [sp, #0x8]
    8390: f9400102     	ldr	x2, [x8]
    8394: 94000000     	bl	0x8394 <__ZNSt3__114__construct_atB8ne180100INS_11__list_nodeINS_12basic_stringIcNS_11char_traitsIcEENS_9allocatorIcEEEEPvEEJRPNS_16__list_node_baseIS7_S8_EESD_EPS9_EEPT_SG_DpOT0_+0x30>
    8398: f94003e0     	ldr	x0, [sp]
    839c: a9427bfd     	ldp	x29, x30, [sp, #0x20]
    83a0: 9100c3ff     	add	sp, sp, #0x30
    83a4: d65f03c0     	ret

00000000000083a8 <__ZNKSt3__118__allocation_guardINS_9allocatorINS_11__list_nodeINS_12basic_stringIcNS_11char_traitsIcEENS1_IcEEEEPvEEEEE5__getB8ne180100Ev>:
    83a8: d10043ff     	sub	sp, sp, #0x10
    83ac: f90007e0     	str	x0, [sp, #0x8]
    83b0: f94007e8     	ldr	x8, [sp, #0x8]
    83b4: f9400900     	ldr	x0, [x8, #0x10]
    83b8: 910043ff     	add	sp, sp, #0x10
    83bc: d65f03c0     	ret

00000000000083c0 <__ZNSt3__116allocator_traitsINS_9allocatorINS_11__list_nodeINS_12basic_stringIcNS_11char_traitsIcEENS1_IcEEEEPvEEEEE9constructB8ne180100IS7_JRKS7_EvEEvRSA_PT_DpOT0_>:
    83c0: d100c3ff     	sub	sp, sp, #0x30
    83c4: a9027bfd     	stp	x29, x30, [sp, #0x20]
    83c8: 910083fd     	add	x29, sp, #0x20
    83cc: f81f83a0     	stur	x0, [x29, #-0x8]
    83d0: f9000be1     	str	x1, [sp, #0x10]
    83d4: f90007e2     	str	x2, [sp, #0x8]
    83d8: f85f83a0     	ldur	x0, [x29, #-0x8]
    83dc: f9400be1     	ldr	x1, [sp, #0x10]
    83e0: f94007e2     	ldr	x2, [sp, #0x8]
    83e4: 94000000     	bl	0x83e4 <__ZNSt3__116allocator_traitsINS_9allocatorINS_11__list_nodeINS_12basic_stringIcNS_11char_traitsIcEENS1_IcEEEEPvEEEEE9constructB8ne180100IS7_JRKS7_EvEEvRSA_PT_DpOT0_+0x24>
    83e8: a9427bfd     	ldp	x29, x30, [sp, #0x20]
    83ec: 9100c3ff     	add	sp, sp, #0x30
    83f0: d65f03c0     	ret

00000000000083f4 <__ZNSt3__118__allocation_guardINS_9allocatorINS_11__list_nodeINS_12basic_stringIcNS_11char_traitsIcEENS1_IcEEEEPvEEEEE13__release_ptrB8ne180100Ev>:
    83f4: d10043ff     	sub	sp, sp, #0x10
    83f8: f90007e0     	str	x0, [sp, #0x8]
    83fc: f94007e8     	ldr	x8, [sp, #0x8]
    8400: f9400909     	ldr	x9, [x8, #0x10]
    8404: f90003e9     	str	x9, [sp]
    8408: f900091f     	str	xzr, [x8, #0x10]
    840c: f94003e0     	ldr	x0, [sp]
    8410: 910043ff     	add	sp, sp, #0x10
    8414: d65f03c0     	ret

0000000000008418 <__ZNSt3__118__allocation_guardINS_9allocatorINS_11__list_nodeINS_12basic_stringIcNS_11char_traitsIcEENS1_IcEEEEPvEEEEED1B8ne180100Ev>:
    8418: d10083ff     	sub	sp, sp, #0x20
    841c: a9017bfd     	stp	x29, x30, [sp, #0x10]
    8420: 910043fd     	add	x29, sp, #0x10
    8424: f90007e0     	str	x0, [sp, #0x8]
    8428: f94007e0     	ldr	x0, [sp, #0x8]
    842c: f90003e0     	str	x0, [sp]
    8430: 94000000     	bl	0x8430 <__ZNSt3__118__allocation_guardINS_9allocatorINS_11__list_nodeINS_12basic_stringIcNS_11char_traitsIcEENS1_IcEEEEPvEEEEED1B8ne180100Ev+0x18>
    8434: f94003e0     	ldr	x0, [sp]
    8438: a9417bfd     	ldp	x29, x30, [sp, #0x10]
    843c: 910083ff     	add	sp, sp, #0x20
    8440: d65f03c0     	ret

0000000000008444 <__ZNSt3__118__allocation_guardINS_9allocatorINS_11__list_nodeINS_12basic_stringIcNS_11char_traitsIcEENS1_IcEEEEPvEEEEEC2B8ne180100ISA_EET_m>:
    8444: d100c3ff     	sub	sp, sp, #0x30
    8448: a9027bfd     	stp	x29, x30, [sp, #0x20]
    844c: 910083fd     	add	x29, sp, #0x20
    8450: f9000be0     	str	x0, [sp, #0x10]
    8454: f90007e1     	str	x1, [sp, #0x8]
    8458: f9400be0     	ldr	x0, [sp, #0x10]
    845c: f90003e0     	str	x0, [sp]
    8460: f94007e8     	ldr	x8, [sp, #0x8]
    8464: f9000408     	str	x8, [x0, #0x8]
    8468: f9400401     	ldr	x1, [x0, #0x8]
    846c: 94000000     	bl	0x846c <__ZNSt3__118__allocation_guardINS_9allocatorINS_11__list_nodeINS_12basic_stringIcNS_11char_traitsIcEENS1_IcEEEEPvEEEEEC2B8ne180100ISA_EET_m+0x28>
    8470: aa0003e8     	mov	x8, x0
    8474: f94003e0     	ldr	x0, [sp]
    8478: f9000808     	str	x8, [x0, #0x10]
    847c: a9427bfd     	ldp	x29, x30, [sp, #0x20]
    8480: 9100c3ff     	add	sp, sp, #0x30
    8484: d65f03c0     	ret

0000000000008488 <__ZNSt3__116allocator_traitsINS_9allocatorINS_11__list_nodeINS_12basic_stringIcNS_11char_traitsIcEENS1_IcEEEEPvEEEEE8allocateB8ne180100ERSA_m>:
    8488: d10083ff     	sub	sp, sp, #0x20
    848c: a9017bfd     	stp	x29, x30, [sp, #0x10]
    8490: 910043fd     	add	x29, sp, #0x10
    8494: f90007e0     	str	x0, [sp, #0x8]
    8498: f90003e1     	str	x1, [sp]
    849c: f94007e0     	ldr	x0, [sp, #0x8]
    84a0: f94003e1     	ldr	x1, [sp]
    84a4: 94000000     	bl	0x84a4 <__ZNSt3__116allocator_traitsINS_9allocatorINS_11__list_nodeINS_12basic_stringIcNS_11char_traitsIcEENS1_IcEEEEPvEEEEE8allocateB8ne180100ERSA_m+0x1c>
    84a8: a9417bfd     	ldp	x29, x30, [sp, #0x10]
    84ac: 910083ff     	add	sp, sp, #0x20
    84b0: d65f03c0     	ret

00000000000084b4 <__ZNSt3__19allocatorINS_11__list_nodeINS_12basic_stringIcNS_11char_traitsIcEENS0_IcEEEEPvEEE8allocateB8ne180100Em>:
    84b4: d100c3ff     	sub	sp, sp, #0x30
    84b8: a9027bfd     	stp	x29, x30, [sp, #0x20]
    84bc: 910083fd     	add	x29, sp, #0x20
    84c0: f81f83a0     	stur	x0, [x29, #-0x8]
    84c4: f9000be1     	str	x1, [sp, #0x10]
    84c8: f85f83a0     	ldur	x0, [x29, #-0x8]
    84cc: f9400be8     	ldr	x8, [sp, #0x10]
    84d0: f90007e8     	str	x8, [sp, #0x8]
    84d4: 94000000     	bl	0x84d4 <__ZNSt3__19allocatorINS_11__list_nodeINS_12basic_stringIcNS_11char_traitsIcEENS0_IcEEEEPvEEE8allocateB8ne180100Em+0x20>
    84d8: f94007e8     	ldr	x8, [sp, #0x8]
    84dc: eb000108     	subs	x8, x8, x0
    84e0: 1a9f87e8     	cset	w8, ls
    84e4: 37000068     	tbnz	w8, #0x0, 0x84f0 <__ZNSt3__19allocatorINS_11__list_nodeINS_12basic_stringIcNS_11char_traitsIcEENS0_IcEEEEPvEEE8allocateB8ne180100Em+0x3c>
    84e8: 14000001     	b	0x84ec <__ZNSt3__19allocatorINS_11__list_nodeINS_12basic_stringIcNS_11char_traitsIcEENS0_IcEEEEPvEEE8allocateB8ne180100Em+0x38>
    84ec: 94000000     	bl	0x84ec <__ZNSt3__19allocatorINS_11__list_nodeINS_12basic_stringIcNS_11char_traitsIcEENS0_IcEEEEPvEEE8allocateB8ne180100Em+0x38>
    84f0: f9400be8     	ldr	x8, [sp, #0x10]
    84f4: d2800509     	mov	x9, #0x28               ; =40
    84f8: 9b097d00     	mul	x0, x8, x9
    84fc: d2800101     	mov	x1, #0x8                ; =8
    8500: 94000000     	bl	0x8500 <__ZNSt3__19allocatorINS_11__list_nodeINS_12basic_stringIcNS_11char_traitsIcEENS0_IcEEEEPvEEE8allocateB8ne180100Em+0x4c>
    8504: a9427bfd     	ldp	x29, x30, [sp, #0x20]
    8508: 9100c3ff     	add	sp, sp, #0x30
    850c: d65f03c0     	ret

0000000000008510 <__ZNSt3__116allocator_traitsINS_9allocatorINS_11__list_nodeINS_12basic_stringIcNS_11char_traitsIcEENS1_IcEEEEPvEEEEE8max_sizeB8ne180100ISA_vEEmRKSA_>:
    8510: d10083ff     	sub	sp, sp, #0x20
    8514: a9017bfd     	stp	x29, x30, [sp, #0x10]
    8518: 910043fd     	add	x29, sp, #0x10
    851c: f90007e0     	str	x0, [sp, #0x8]
    8520: f94007e0     	ldr	x0, [sp, #0x8]
    8524: 94000000     	bl	0x8524 <__ZNSt3__116allocator_traitsINS_9allocatorINS_11__list_nodeINS_12basic_stringIcNS_11char_traitsIcEENS1_IcEEEEPvEEEEE8max_sizeB8ne180100ISA_vEEmRKSA_+0x14>
    8528: a9417bfd     	ldp	x29, x30, [sp, #0x10]
    852c: 910083ff     	add	sp, sp, #0x20
    8530: d65f03c0     	ret

0000000000008534 <__ZNKSt3__19allocatorINS_11__list_nodeINS_12basic_stringIcNS_11char_traitsIcEENS0_IcEEEEPvEEE8max_sizeB8ne180100Ev>:
    8534: d10043ff     	sub	sp, sp, #0x10
    8538: f90007e0     	str	x0, [sp, #0x8]
    853c: b203e7e0     	mov	x0, #0x6666666666666666 ; =7378697629483820646
    8540: f2e0ccc0     	movk	x0, #0x666, lsl #48
    8544: 910043ff     	add	sp, sp, #0x10
    8548: d65f03c0     	ret

000000000000854c <__ZNSt3__111__list_nodeINS_12basic_stringIcNS_11char_traitsIcEENS_9allocatorIcEEEEPvEC1B8ne180100EPNS_16__list_node_baseIS6_S7_EESB_>:
    854c: d100c3ff     	sub	sp, sp, #0x30
    8550: a9027bfd     	stp	x29, x30, [sp, #0x20]
    8554: 910083fd     	add	x29, sp, #0x20
    8558: f81f83a0     	stur	x0, [x29, #-0x8]
    855c: f9000be1     	str	x1, [sp, #0x10]
    8560: f90007e2     	str	x2, [sp, #0x8]
    8564: f85f83a0     	ldur	x0, [x29, #-0x8]
    8568: f90003e0     	str	x0, [sp]
    856c: f9400be1     	ldr	x1, [sp, #0x10]
    8570: f94007e2     	ldr	x2, [sp, #0x8]
    8574: 94000000     	bl	0x8574 <__ZNSt3__111__list_nodeINS_12basic_stringIcNS_11char_traitsIcEENS_9allocatorIcEEEEPvEC1B8ne180100EPNS_16__list_node_baseIS6_S7_EESB_+0x28>
    8578: f94003e0     	ldr	x0, [sp]
    857c: a9427bfd     	ldp	x29, x30, [sp, #0x20]
    8580: 9100c3ff     	add	sp, sp, #0x30
    8584: d65f03c0     	ret

0000000000008588 <__ZNSt3__111__list_nodeINS_12basic_stringIcNS_11char_traitsIcEENS_9allocatorIcEEEEPvEC2B8ne180100EPNS_16__list_node_baseIS6_S7_EESB_>:
    8588: d100c3ff     	sub	sp, sp, #0x30
    858c: a9027bfd     	stp	x29, x30, [sp, #0x20]
    8590: 910083fd     	add	x29, sp, #0x20
    8594: f81f83a0     	stur	x0, [x29, #-0x8]
    8598: f9000be1     	str	x1, [sp, #0x10]
    859c: f90007e2     	str	x2, [sp, #0x8]
    85a0: f85f83a0     	ldur	x0, [x29, #-0x8]
    85a4: f90003e0     	str	x0, [sp]
    85a8: f9400be1     	ldr	x1, [sp, #0x10]
    85ac: f94007e2     	ldr	x2, [sp, #0x8]
    85b0: 94000000     	bl	0x85b0 <__ZNSt3__111__list_nodeINS_12basic_stringIcNS_11char_traitsIcEENS_9allocatorIcEEEEPvEC2B8ne180100EPNS_16__list_node_baseIS6_S7_EESB_+0x28>
    85b4: f94003e0     	ldr	x0, [sp]
    85b8: a9427bfd     	ldp	x29, x30, [sp, #0x20]
    85bc: 9100c3ff     	add	sp, sp, #0x30
    85c0: d65f03c0     	ret

00000000000085c4 <__ZNSt3__116__list_node_baseINS_12basic_stringIcNS_11char_traitsIcEENS_9allocatorIcEEEEPvEC2B8ne180100EPS8_S9_>:
    85c4: d10083ff     	sub	sp, sp, #0x20
    85c8: f9000fe0     	str	x0, [sp, #0x18]
    85cc: f9000be1     	str	x1, [sp, #0x10]
    85d0: f90007e2     	str	x2, [sp, #0x8]
    85d4: f9400fe0     	ldr	x0, [sp, #0x18]
    85d8: f9400be8     	ldr	x8, [sp, #0x10]
    85dc: f9000008     	str	x8, [x0]
    85e0: f94007e8     	ldr	x8, [sp, #0x8]
    85e4: f9000408     	str	x8, [x0, #0x8]
    85e8: 910083ff     	add	sp, sp, #0x20
    85ec: d65f03c0     	ret

00000000000085f0 <__ZNSt3__19allocatorINS_11__list_nodeINS_12basic_stringIcNS_11char_traitsIcEENS0_IcEEEEPvEEE9constructB8ne180100IS6_JRKS6_EEEvPT_DpOT0_>:
    85f0: d100c3ff     	sub	sp, sp, #0x30
    85f4: a9027bfd     	stp	x29, x30, [sp, #0x20]
    85f8: 910083fd     	add	x29, sp, #0x20
    85fc: f81f83a0     	stur	x0, [x29, #-0x8]
    8600: f9000be1     	str	x1, [sp, #0x10]
    8604: f90007e2     	str	x2, [sp, #0x8]
    8608: f9400be0     	ldr	x0, [sp, #0x10]
    860c: f94007e1     	ldr	x1, [sp, #0x8]
    8610: 94000000     	bl	0x8610 <__ZNSt3__19allocatorINS_11__list_nodeINS_12basic_stringIcNS_11char_traitsIcEENS0_IcEEEEPvEEE9constructB8ne180100IS6_JRKS6_EEEvPT_DpOT0_+0x20>
    8614: a9427bfd     	ldp	x29, x30, [sp, #0x20]
    8618: 9100c3ff     	add	sp, sp, #0x30
    861c: d65f03c0     	ret

0000000000008620 <__ZNSt3__118__allocation_guardINS_9allocatorINS_11__list_nodeINS_12basic_stringIcNS_11char_traitsIcEENS1_IcEEEEPvEEEEED2B8ne180100Ev>:
    8620: d10083ff     	sub	sp, sp, #0x20
    8624: a9017bfd     	stp	x29, x30, [sp, #0x10]
    8628: 910043fd     	add	x29, sp, #0x10
    862c: f90007e0     	str	x0, [sp, #0x8]
    8630: f94007e0     	ldr	x0, [sp, #0x8]
    8634: f90003e0     	str	x0, [sp]
    8638: 94000000     	bl	0x8638 <__ZNSt3__118__allocation_guardINS_9allocatorINS_11__list_nodeINS_12basic_stringIcNS_11char_traitsIcEENS1_IcEEEEPvEEEEED2B8ne180100Ev+0x18>
    863c: f94003e0     	ldr	x0, [sp]
    8640: a9417bfd     	ldp	x29, x30, [sp, #0x10]
    8644: 910083ff     	add	sp, sp, #0x20
    8648: d65f03c0     	ret

000000000000864c <__ZNSt3__118__allocation_guardINS_9allocatorINS_11__list_nodeINS_12basic_stringIcNS_11char_traitsIcEENS1_IcEEEEPvEEEEE9__destroyB8ne180100Ev>:
    864c: d10083ff     	sub	sp, sp, #0x20
    8650: a9017bfd     	stp	x29, x30, [sp, #0x10]
    8654: 910043fd     	add	x29, sp, #0x10
    8658: f90007e0     	str	x0, [sp, #0x8]
    865c: f94007e8     	ldr	x8, [sp, #0x8]
    8660: f90003e8     	str	x8, [sp]
    8664: f9400908     	ldr	x8, [x8, #0x10]
    8668: f1000108     	subs	x8, x8, #0x0
    866c: 1a9f17e8     	cset	w8, eq
    8670: 370000e8     	tbnz	w8, #0x0, 0x868c <__ZNSt3__118__allocation_guardINS_9allocatorINS_11__list_nodeINS_12basic_stringIcNS_11char_traitsIcEENS1_IcEEEEPvEEEEE9__destroyB8ne180100Ev+0x40>
    8674: 14000001     	b	0x8678 <__ZNSt3__118__allocation_guardINS_9allocatorINS_11__list_nodeINS_12basic_stringIcNS_11char_traitsIcEENS1_IcEEEEPvEEEEE9__destroyB8ne180100Ev+0x2c>
    8678: f94003e0     	ldr	x0, [sp]
    867c: f9400801     	ldr	x1, [x0, #0x10]
    8680: f9400402     	ldr	x2, [x0, #0x8]
    8684: 94000000     	bl	0x8684 <__ZNSt3__118__allocation_guardINS_9allocatorINS_11__list_nodeINS_12basic_stringIcNS_11char_traitsIcEENS1_IcEEEEPvEEEEE9__destroyB8ne180100Ev+0x38>
    8688: 14000001     	b	0x868c <__ZNSt3__118__allocation_guardINS_9allocatorINS_11__list_nodeINS_12basic_stringIcNS_11char_traitsIcEENS1_IcEEEEPvEEEEE9__destroyB8ne180100Ev+0x40>
    868c: a9417bfd     	ldp	x29, x30, [sp, #0x10]
    8690: 910083ff     	add	sp, sp, #0x20
    8694: d65f03c0     	ret

0000000000008698 <__ZNSt3__14__fs10filesystem4pathC2B8ne180100IA7_cvEERKT_NS2_6formatE>:
    8698: d10103ff     	sub	sp, sp, #0x40
    869c: a9037bfd     	stp	x29, x30, [sp, #0x30]
    86a0: 9100c3fd     	add	x29, sp, #0x30
    86a4: f81f83a0     	stur	x0, [x29, #-0x8]
    86a8: f81f03a1     	stur	x1, [x29, #-0x10]
    86ac: 381ef3a2     	sturb	w2, [x29, #-0x11]
    86b0: f85f83a0     	ldur	x0, [x29, #-0x8]
    86b4: f90003e0     	str	x0, [sp]
    86b8: 94000000     	bl	0x86b8 <__ZNSt3__14__fs10filesystem4pathC2B8ne180100IA7_cvEERKT_NS2_6formatE+0x20>
    86bc: f94003e0     	ldr	x0, [sp]
    86c0: f85f03a1     	ldur	x1, [x29, #-0x10]
    86c4: 94000000     	bl	0x86c4 <__ZNSt3__14__fs10filesystem4pathC2B8ne180100IA7_cvEERKT_NS2_6formatE+0x2c>
    86c8: 14000001     	b	0x86cc <__ZNSt3__14__fs10filesystem4pathC2B8ne180100IA7_cvEERKT_NS2_6formatE+0x34>
    86cc: f94003e0     	ldr	x0, [sp]
    86d0: a9437bfd     	ldp	x29, x30, [sp, #0x30]
    86d4: 910103ff     	add	sp, sp, #0x40
    86d8: d65f03c0     	ret
    86dc: aa0003e8     	mov	x8, x0
    86e0: f94003e0     	ldr	x0, [sp]
    86e4: f9000be8     	str	x8, [sp, #0x10]
    86e8: aa0103e8     	mov	x8, x1
    86ec: b9000fe8     	str	w8, [sp, #0xc]
    86f0: 94000000     	bl	0x86f0 <__ZNSt3__14__fs10filesystem4pathC2B8ne180100IA7_cvEERKT_NS2_6formatE+0x58>
    86f4: 14000001     	b	0x86f8 <__ZNSt3__14__fs10filesystem4pathC2B8ne180100IA7_cvEERKT_NS2_6formatE+0x60>
    86f8: f9400be0     	ldr	x0, [sp, #0x10]
    86fc: 94000000     	bl	0x86fc <__ZNSt3__14__fs10filesystem4pathC2B8ne180100IA7_cvEERKT_NS2_6formatE+0x64>

0000000000008700 <__ZNSt3__14__fs10filesystem8_PathCVTIcE15__append_sourceB8ne180100IA7_cEEvRNS_12basic_stringIcNS_11char_traitsIcEENS_9allocatorIcEEEERKT_>:
    8700: d100c3ff     	sub	sp, sp, #0x30
    8704: a9027bfd     	stp	x29, x30, [sp, #0x20]
    8708: 910083fd     	add	x29, sp, #0x20
    870c: f81f83a0     	stur	x0, [x29, #-0x8]
    8710: f9000be1     	str	x1, [sp, #0x10]
    8714: f85f83a8     	ldur	x8, [x29, #-0x8]
    8718: f90007e8     	str	x8, [sp, #0x8]
    871c: f9400be0     	ldr	x0, [sp, #0x10]
    8720: 94000000     	bl	0x8720 <__ZNSt3__14__fs10filesystem8_PathCVTIcE15__append_sourceB8ne180100IA7_cEEvRNS_12basic_stringIcNS_11char_traitsIcEENS_9allocatorIcEEEERKT_+0x20>
    8724: f90003e0     	str	x0, [sp]
    8728: f9400be0     	ldr	x0, [sp, #0x10]
    872c: 94000000     	bl	0x872c <__ZNSt3__14__fs10filesystem8_PathCVTIcE15__append_sourceB8ne180100IA7_cEEvRNS_12basic_stringIcNS_11char_traitsIcEENS_9allocatorIcEEEERKT_+0x2c>
    8730: f94003e1     	ldr	x1, [sp]
    8734: aa0003e2     	mov	x2, x0
    8738: f94007e0     	ldr	x0, [sp, #0x8]
    873c: 94000000     	bl	0x873c <__ZNSt3__14__fs10filesystem8_PathCVTIcE15__append_sourceB8ne180100IA7_cEEvRNS_12basic_stringIcNS_11char_traitsIcEENS_9allocatorIcEEEERKT_+0x3c>
    8740: a9427bfd     	ldp	x29, x30, [sp, #0x20]
    8744: 9100c3ff     	add	sp, sp, #0x30
    8748: d65f03c0     	ret

000000000000874c <__ZNSt3__14__fs10filesystem24__is_pathable_char_arrayIA7_cPccLb1EE13__range_beginB8ne180100EPKc>:
    874c: d10043ff     	sub	sp, sp, #0x10
    8750: f90007e0     	str	x0, [sp, #0x8]
    8754: f94007e0     	ldr	x0, [sp, #0x8]
    8758: 910043ff     	add	sp, sp, #0x10
    875c: d65f03c0     	ret

0000000000008760 <__ZNSt3__14__fs10filesystem24__is_pathable_char_arrayIA7_cPccLb1EE11__range_endB8ne180100EPKc>:
    8760: d10083ff     	sub	sp, sp, #0x20
    8764: f9000fe0     	str	x0, [sp, #0x18]
    8768: 39005fff     	strb	wzr, [sp, #0x17]
    876c: f9400fe8     	ldr	x8, [sp, #0x18]
    8770: f90007e8     	str	x8, [sp, #0x8]
    8774: 14000001     	b	0x8778 <__ZNSt3__14__fs10filesystem24__is_pathable_char_arrayIA7_cPccLb1EE11__range_endB8ne180100EPKc+0x18>
    8778: f94007e8     	ldr	x8, [sp, #0x8]
    877c: 39c00108     	ldrsb	w8, [x8]
    8780: 71000108     	subs	w8, w8, #0x0
    8784: 1a9f17e8     	cset	w8, eq
    8788: 370000e8     	tbnz	w8, #0x0, 0x87a4 <__ZNSt3__14__fs10filesystem24__is_pathable_char_arrayIA7_cPccLb1EE11__range_endB8ne180100EPKc+0x44>
    878c: 14000001     	b	0x8790 <__ZNSt3__14__fs10filesystem24__is_pathable_char_arrayIA7_cPccLb1EE11__range_endB8ne180100EPKc+0x30>
    8790: 14000001     	b	0x8794 <__ZNSt3__14__fs10filesystem24__is_pathable_char_arrayIA7_cPccLb1EE11__range_endB8ne180100EPKc+0x34>
    8794: f94007e8     	ldr	x8, [sp, #0x8]
    8798: 91000508     	add	x8, x8, #0x1
    879c: f90007e8     	str	x8, [sp, #0x8]
    87a0: 17fffff6     	b	0x8778 <__ZNSt3__14__fs10filesystem24__is_pathable_char_arrayIA7_cPccLb1EE11__range_endB8ne180100EPKc+0x18>
    87a4: f94007e0     	ldr	x0, [sp, #0x8]
    87a8: 910083ff     	add	sp, sp, #0x20
    87ac: d65f03c0     	ret

00000000000087b0 <__ZNSt3__110__list_impINS_12basic_stringIcNS_11char_traitsIcEENS_9allocatorIcEEEENS4_IS6_EEE5beginB8ne180100Ev>:
    87b0: d10083ff     	sub	sp, sp, #0x20
    87b4: a9017bfd     	stp	x29, x30, [sp, #0x10]
    87b8: 910043fd     	add	x29, sp, #0x10
    87bc: f90003e0     	str	x0, [sp]
    87c0: f94003e8     	ldr	x8, [sp]
    87c4: f9400501     	ldr	x1, [x8, #0x8]
    87c8: 910023e0     	add	x0, sp, #0x8
    87cc: 94000000     	bl	0x87cc <__ZNSt3__110__list_impINS_12basic_stringIcNS_11char_traitsIcEENS_9allocatorIcEEEENS4_IS6_EEE5beginB8ne180100Ev+0x1c>
    87d0: f94007e0     	ldr	x0, [sp, #0x8]
    87d4: a9417bfd     	ldp	x29, x30, [sp, #0x10]
    87d8: 910083ff     	add	sp, sp, #0x20
    87dc: d65f03c0     	ret

00000000000087e0 <__ZNSt3__115__list_iteratorINS_12basic_stringIcNS_11char_traitsIcEENS_9allocatorIcEEEEPvEC1B8ne180100EPNS_16__list_node_baseIS6_S7_EE>:
    87e0: d100c3ff     	sub	sp, sp, #0x30
    87e4: a9027bfd     	stp	x29, x30, [sp, #0x20]
    87e8: 910083fd     	add	x29, sp, #0x20
    87ec: f81f83a0     	stur	x0, [x29, #-0x8]
    87f0: f9000be1     	str	x1, [sp, #0x10]
    87f4: f85f83a0     	ldur	x0, [x29, #-0x8]
    87f8: f90007e0     	str	x0, [sp, #0x8]
    87fc: f9400be1     	ldr	x1, [sp, #0x10]
    8800: 94000000     	bl	0x8800 <__ZNSt3__115__list_iteratorINS_12basic_stringIcNS_11char_traitsIcEENS_9allocatorIcEEEEPvEC1B8ne180100EPNS_16__list_node_baseIS6_S7_EE+0x20>
    8804: f94007e0     	ldr	x0, [sp, #0x8]
    8808: a9427bfd     	ldp	x29, x30, [sp, #0x20]
    880c: 9100c3ff     	add	sp, sp, #0x30
    8810: d65f03c0     	ret

0000000000008814 <__ZNSt3__115__list_iteratorINS_12basic_stringIcNS_11char_traitsIcEENS_9allocatorIcEEEEPvEC2B8ne180100EPNS_16__list_node_baseIS6_S7_EE>:
    8814: d10043ff     	sub	sp, sp, #0x10
    8818: f90007e0     	str	x0, [sp, #0x8]
    881c: f90003e1     	str	x1, [sp]
    8820: f94007e0     	ldr	x0, [sp, #0x8]
    8824: f94003e8     	ldr	x8, [sp]
    8828: f9000008     	str	x8, [x0]
    882c: 910043ff     	add	sp, sp, #0x10
    8830: d65f03c0     	ret

0000000000008834 <__ZNSt3__110__list_impINS_12basic_stringIcNS_11char_traitsIcEENS_9allocatorIcEEEENS4_IS6_EEE3endB8ne180100Ev>:
    8834: d10083ff     	sub	sp, sp, #0x20
    8838: a9017bfd     	stp	x29, x30, [sp, #0x10]
    883c: 910043fd     	add	x29, sp, #0x10
    8840: f90003e0     	str	x0, [sp]
    8844: f94003e0     	ldr	x0, [sp]
    8848: 94000000     	bl	0x8848 <__ZNSt3__110__list_impINS_12basic_stringIcNS_11char_traitsIcEENS_9allocatorIcEEEENS4_IS6_EEE3endB8ne180100Ev+0x14>
    884c: aa0003e1     	mov	x1, x0
    8850: 910023e0     	add	x0, sp, #0x8
    8854: 94000000     	bl	0x8854 <__ZNSt3__110__list_impINS_12basic_stringIcNS_11char_traitsIcEENS_9allocatorIcEEEENS4_IS6_EEE3endB8ne180100Ev+0x20>
    8858: f94007e0     	ldr	x0, [sp, #0x8]
    885c: a9417bfd     	ldp	x29, x30, [sp, #0x10]
    8860: 910083ff     	add	sp, sp, #0x20
    8864: d65f03c0     	ret

0000000000008868 <__ZNSt3__1eqB8ne180100ERKNS_15__list_iteratorINS_12basic_stringIcNS_11char_traitsIcEENS_9allocatorIcEEEEPvEESA_>:
    8868: d10043ff     	sub	sp, sp, #0x10
    886c: f90007e0     	str	x0, [sp, #0x8]
    8870: f90003e1     	str	x1, [sp]
    8874: f94007e8     	ldr	x8, [sp, #0x8]
    8878: f9400108     	ldr	x8, [x8]
    887c: f94003e9     	ldr	x9, [sp]
    8880: f9400129     	ldr	x9, [x9]
    8884: eb090108     	subs	x8, x8, x9
    8888: 1a9f17e8     	cset	w8, eq
    888c: 12000100     	and	w0, w8, #0x1
    8890: 910043ff     	add	sp, sp, #0x10
    8894: d65f03c0     	ret

0000000000008898 <__ZNSt3__110__str_findB8ne180100IcmNS_11char_traitsIcEELm18446744073709551615EEET0_PKT_S3_S6_S3_S3_>:
    8898: d10143ff     	sub	sp, sp, #0x50
    889c: a9047bfd     	stp	x29, x30, [sp, #0x40]
    88a0: 910103fd     	add	x29, sp, #0x40
    88a4: f81f03a0     	stur	x0, [x29, #-0x10]
    88a8: f81e83a1     	stur	x1, [x29, #-0x18]
    88ac: f90013e2     	str	x2, [sp, #0x20]
    88b0: f9000fe3     	str	x3, [sp, #0x18]
    88b4: f9000be4     	str	x4, [sp, #0x10]
    88b8: f9400fe8     	ldr	x8, [sp, #0x18]
    88bc: f85e83a9     	ldur	x9, [x29, #-0x18]
    88c0: eb090108     	subs	x8, x8, x9
    88c4: 1a9f87e8     	cset	w8, ls
    88c8: 370000a8     	tbnz	w8, #0x0, 0x88dc <__ZNSt3__110__str_findB8ne180100IcmNS_11char_traitsIcEELm18446744073709551615EEET0_PKT_S3_S6_S3_S3_+0x44>
    88cc: 14000001     	b	0x88d0 <__ZNSt3__110__str_findB8ne180100IcmNS_11char_traitsIcEELm18446744073709551615EEET0_PKT_S3_S6_S3_S3_+0x38>
    88d0: 92800008     	mov	x8, #-0x1               ; =-1
    88d4: f81f83a8     	stur	x8, [x29, #-0x8]
    88d8: 14000025     	b	0x896c <__ZNSt3__110__str_findB8ne180100IcmNS_11char_traitsIcEELm18446744073709551615EEET0_PKT_S3_S6_S3_S3_+0xd4>
    88dc: f9400be8     	ldr	x8, [sp, #0x10]
    88e0: f1000108     	subs	x8, x8, #0x0
    88e4: 1a9f07e8     	cset	w8, ne
    88e8: 370000a8     	tbnz	w8, #0x0, 0x88fc <__ZNSt3__110__str_findB8ne180100IcmNS_11char_traitsIcEELm18446744073709551615EEET0_PKT_S3_S6_S3_S3_+0x64>
    88ec: 14000001     	b	0x88f0 <__ZNSt3__110__str_findB8ne180100IcmNS_11char_traitsIcEELm18446744073709551615EEET0_PKT_S3_S6_S3_S3_+0x58>
    88f0: f9400fe8     	ldr	x8, [sp, #0x18]
    88f4: f81f83a8     	stur	x8, [x29, #-0x8]
    88f8: 1400001d     	b	0x896c <__ZNSt3__110__str_findB8ne180100IcmNS_11char_traitsIcEELm18446744073709551615EEET0_PKT_S3_S6_S3_S3_+0xd4>
    88fc: f85f03a8     	ldur	x8, [x29, #-0x10]
    8900: f9400fe9     	ldr	x9, [sp, #0x18]
    8904: 8b090100     	add	x0, x8, x9
    8908: f85f03a8     	ldur	x8, [x29, #-0x10]
    890c: f85e83a9     	ldur	x9, [x29, #-0x18]
    8910: 8b090101     	add	x1, x8, x9
    8914: f94013e2     	ldr	x2, [sp, #0x20]
    8918: f94013e8     	ldr	x8, [sp, #0x20]
    891c: f9400be9     	ldr	x9, [sp, #0x10]
    8920: 8b090103     	add	x3, x8, x9
    8924: 94000000     	bl	0x8924 <__ZNSt3__110__str_findB8ne180100IcmNS_11char_traitsIcEELm18446744073709551615EEET0_PKT_S3_S6_S3_S3_+0x8c>
    8928: f90007e0     	str	x0, [sp, #0x8]
    892c: f94007e8     	ldr	x8, [sp, #0x8]
    8930: f85f03a9     	ldur	x9, [x29, #-0x10]
    8934: f85e83aa     	ldur	x10, [x29, #-0x18]
    8938: 8b0a0129     	add	x9, x9, x10
    893c: eb090108     	subs	x8, x8, x9
    8940: 1a9f07e8     	cset	w8, ne
    8944: 370000a8     	tbnz	w8, #0x0, 0x8958 <__ZNSt3__110__str_findB8ne180100IcmNS_11char_traitsIcEELm18446744073709551615EEET0_PKT_S3_S6_S3_S3_+0xc0>
    8948: 14000001     	b	0x894c <__ZNSt3__110__str_findB8ne180100IcmNS_11char_traitsIcEELm18446744073709551615EEET0_PKT_S3_S6_S3_S3_+0xb4>
    894c: 92800008     	mov	x8, #-0x1               ; =-1
    8950: f81f83a8     	stur	x8, [x29, #-0x8]
    8954: 14000006     	b	0x896c <__ZNSt3__110__str_findB8ne180100IcmNS_11char_traitsIcEELm18446744073709551615EEET0_PKT_S3_S6_S3_S3_+0xd4>
    8958: f94007e8     	ldr	x8, [sp, #0x8]
    895c: f85f03a9     	ldur	x9, [x29, #-0x10]
    8960: eb090108     	subs	x8, x8, x9
    8964: f81f83a8     	stur	x8, [x29, #-0x8]
    8968: 14000001     	b	0x896c <__ZNSt3__110__str_findB8ne180100IcmNS_11char_traitsIcEELm18446744073709551615EEET0_PKT_S3_S6_S3_S3_+0xd4>
    896c: f85f83a0     	ldur	x0, [x29, #-0x8]
    8970: a9447bfd     	ldp	x29, x30, [sp, #0x40]
    8974: 910143ff     	add	sp, sp, #0x50
    8978: d65f03c0     	ret

000000000000897c <__ZNSt3__118__search_substringB8ne180100IcNS_11char_traitsIcEEEEPKT_S5_S5_S5_S5_>:
    897c: d10143ff     	sub	sp, sp, #0x50
    8980: a9047bfd     	stp	x29, x30, [sp, #0x40]
    8984: 910103fd     	add	x29, sp, #0x40
    8988: f81f03a0     	stur	x0, [x29, #-0x10]
    898c: f81e83a1     	stur	x1, [x29, #-0x18]
    8990: f90013e2     	str	x2, [sp, #0x20]
    8994: f9000fe3     	str	x3, [sp, #0x18]
    8998: f9400fe8     	ldr	x8, [sp, #0x18]
    899c: f94013e9     	ldr	x9, [sp, #0x20]
    89a0: eb090108     	subs	x8, x8, x9
    89a4: f9000be8     	str	x8, [sp, #0x10]
    89a8: f9400be8     	ldr	x8, [sp, #0x10]
    89ac: f1000108     	subs	x8, x8, #0x0
    89b0: 1a9f07e8     	cset	w8, ne
    89b4: 370000a8     	tbnz	w8, #0x0, 0x89c8 <__ZNSt3__118__search_substringB8ne180100IcNS_11char_traitsIcEEEEPKT_S5_S5_S5_S5_+0x4c>
    89b8: 14000001     	b	0x89bc <__ZNSt3__118__search_substringB8ne180100IcNS_11char_traitsIcEEEEPKT_S5_S5_S5_S5_+0x40>
    89bc: f85f03a8     	ldur	x8, [x29, #-0x10]
    89c0: f81f83a8     	stur	x8, [x29, #-0x8]
    89c4: 1400003f     	b	0x8ac0 <__ZNSt3__118__search_substringB8ne180100IcNS_11char_traitsIcEEEEPKT_S5_S5_S5_S5_+0x144>
    89c8: f85e83a8     	ldur	x8, [x29, #-0x18]
    89cc: f85f03a9     	ldur	x9, [x29, #-0x10]
    89d0: eb090108     	subs	x8, x8, x9
    89d4: f90007e8     	str	x8, [sp, #0x8]
    89d8: f94007e8     	ldr	x8, [sp, #0x8]
    89dc: f9400be9     	ldr	x9, [sp, #0x10]
    89e0: eb090108     	subs	x8, x8, x9
    89e4: 1a9fb7e8     	cset	w8, ge
    89e8: 370000a8     	tbnz	w8, #0x0, 0x89fc <__ZNSt3__118__search_substringB8ne180100IcNS_11char_traitsIcEEEEPKT_S5_S5_S5_S5_+0x80>
    89ec: 14000001     	b	0x89f0 <__ZNSt3__118__search_substringB8ne180100IcNS_11char_traitsIcEEEEPKT_S5_S5_S5_S5_+0x74>
    89f0: f85e83a8     	ldur	x8, [x29, #-0x18]
    89f4: f81f83a8     	stur	x8, [x29, #-0x8]
    89f8: 14000032     	b	0x8ac0 <__ZNSt3__118__search_substringB8ne180100IcNS_11char_traitsIcEEEEPKT_S5_S5_S5_S5_+0x144>
    89fc: f94013e8     	ldr	x8, [sp, #0x20]
    8a00: 39400108     	ldrb	w8, [x8]
    8a04: 39001fe8     	strb	w8, [sp, #0x7]
    8a08: 14000001     	b	0x8a0c <__ZNSt3__118__search_substringB8ne180100IcNS_11char_traitsIcEEEEPKT_S5_S5_S5_S5_+0x90>
    8a0c: 14000001     	b	0x8a10 <__ZNSt3__118__search_substringB8ne180100IcNS_11char_traitsIcEEEEPKT_S5_S5_S5_S5_+0x94>
    8a10: f85e83a8     	ldur	x8, [x29, #-0x18]
    8a14: f85f03a9     	ldur	x9, [x29, #-0x10]
    8a18: eb090108     	subs	x8, x8, x9
    8a1c: f90007e8     	str	x8, [sp, #0x8]
    8a20: f94007e8     	ldr	x8, [sp, #0x8]
    8a24: f9400be9     	ldr	x9, [sp, #0x10]
    8a28: eb090108     	subs	x8, x8, x9
    8a2c: 1a9fb7e8     	cset	w8, ge
    8a30: 370000a8     	tbnz	w8, #0x0, 0x8a44 <__ZNSt3__118__search_substringB8ne180100IcNS_11char_traitsIcEEEEPKT_S5_S5_S5_S5_+0xc8>
    8a34: 14000001     	b	0x8a38 <__ZNSt3__118__search_substringB8ne180100IcNS_11char_traitsIcEEEEPKT_S5_S5_S5_S5_+0xbc>
    8a38: f85e83a8     	ldur	x8, [x29, #-0x18]
    8a3c: f81f83a8     	stur	x8, [x29, #-0x8]
    8a40: 14000020     	b	0x8ac0 <__ZNSt3__118__search_substringB8ne180100IcNS_11char_traitsIcEEEEPKT_S5_S5_S5_S5_+0x144>
    8a44: f85f03a0     	ldur	x0, [x29, #-0x10]
    8a48: f94007e8     	ldr	x8, [sp, #0x8]
    8a4c: f9400be9     	ldr	x9, [sp, #0x10]
    8a50: eb090108     	subs	x8, x8, x9
    8a54: 91000501     	add	x1, x8, #0x1
    8a58: 91001fe2     	add	x2, sp, #0x7
    8a5c: 94000000     	bl	0x8a5c <__ZNSt3__118__search_substringB8ne180100IcNS_11char_traitsIcEEEEPKT_S5_S5_S5_S5_+0xe0>
    8a60: f81f03a0     	stur	x0, [x29, #-0x10]
    8a64: f85f03a8     	ldur	x8, [x29, #-0x10]
    8a68: f1000108     	subs	x8, x8, #0x0
    8a6c: 1a9f07e8     	cset	w8, ne
    8a70: 370000a8     	tbnz	w8, #0x0, 0x8a84 <__ZNSt3__118__search_substringB8ne180100IcNS_11char_traitsIcEEEEPKT_S5_S5_S5_S5_+0x108>
    8a74: 14000001     	b	0x8a78 <__ZNSt3__118__search_substringB8ne180100IcNS_11char_traitsIcEEEEPKT_S5_S5_S5_S5_+0xfc>
    8a78: f85e83a8     	ldur	x8, [x29, #-0x18]
    8a7c: f81f83a8     	stur	x8, [x29, #-0x8]
    8a80: 14000010     	b	0x8ac0 <__ZNSt3__118__search_substringB8ne180100IcNS_11char_traitsIcEEEEPKT_S5_S5_S5_S5_+0x144>
    8a84: f85f03a0     	ldur	x0, [x29, #-0x10]
    8a88: f94013e1     	ldr	x1, [sp, #0x20]
    8a8c: f9400be2     	ldr	x2, [sp, #0x10]
    8a90: 94000000     	bl	0x8a90 <__ZNSt3__118__search_substringB8ne180100IcNS_11char_traitsIcEEEEPKT_S5_S5_S5_S5_+0x114>
    8a94: 71000008     	subs	w8, w0, #0x0
    8a98: 1a9f07e8     	cset	w8, ne
    8a9c: 370000a8     	tbnz	w8, #0x0, 0x8ab0 <__ZNSt3__118__search_substringB8ne180100IcNS_11char_traitsIcEEEEPKT_S5_S5_S5_S5_+0x134>
    8aa0: 14000001     	b	0x8aa4 <__ZNSt3__118__search_substringB8ne180100IcNS_11char_traitsIcEEEEPKT_S5_S5_S5_S5_+0x128>
    8aa4: f85f03a8     	ldur	x8, [x29, #-0x10]
    8aa8: f81f83a8     	stur	x8, [x29, #-0x8]
    8aac: 14000005     	b	0x8ac0 <__ZNSt3__118__search_substringB8ne180100IcNS_11char_traitsIcEEEEPKT_S5_S5_S5_S5_+0x144>
    8ab0: f85f03a8     	ldur	x8, [x29, #-0x10]
    8ab4: 91000508     	add	x8, x8, #0x1
    8ab8: f81f03a8     	stur	x8, [x29, #-0x10]
    8abc: 17ffffd4     	b	0x8a0c <__ZNSt3__118__search_substringB8ne180100IcNS_11char_traitsIcEEEEPKT_S5_S5_S5_S5_+0x90>
    8ac0: f85f83a0     	ldur	x0, [x29, #-0x8]
    8ac4: a9447bfd     	ldp	x29, x30, [sp, #0x40]
    8ac8: 910143ff     	add	sp, sp, #0x50
    8acc: d65f03c0     	ret

0000000000008ad0 <__ZNSt3__111char_traitsIcE4findB8ne180100EPKcmRS2_>:
    8ad0: d10103ff     	sub	sp, sp, #0x40
    8ad4: a9037bfd     	stp	x29, x30, [sp, #0x30]
    8ad8: 9100c3fd     	add	x29, sp, #0x30
    8adc: f81f03a0     	stur	x0, [x29, #-0x10]
    8ae0: f9000fe1     	str	x1, [sp, #0x18]
    8ae4: f9000be2     	str	x2, [sp, #0x10]
    8ae8: f9400fe8     	ldr	x8, [sp, #0x18]
    8aec: f1000108     	subs	x8, x8, #0x0
    8af0: 1a9f07e8     	cset	w8, ne
    8af4: 37000088     	tbnz	w8, #0x0, 0x8b04 <__ZNSt3__111char_traitsIcE4findB8ne180100EPKcmRS2_+0x34>
    8af8: 14000001     	b	0x8afc <__ZNSt3__111char_traitsIcE4findB8ne180100EPKcmRS2_+0x2c>
    8afc: f81f83bf     	stur	xzr, [x29, #-0x8]
    8b00: 1400000b     	b	0x8b2c <__ZNSt3__111char_traitsIcE4findB8ne180100EPKcmRS2_+0x5c>
    8b04: f85f03a0     	ldur	x0, [x29, #-0x10]
    8b08: f9400be8     	ldr	x8, [sp, #0x10]
    8b0c: 39c00101     	ldrsb	w1, [x8]
    8b10: f9400fe2     	ldr	x2, [sp, #0x18]
    8b14: 94000000     	bl	0x8b14 <__ZNSt3__111char_traitsIcE4findB8ne180100EPKcmRS2_+0x44>
    8b18: f90007e0     	str	x0, [sp, #0x8]
    8b1c: 14000001     	b	0x8b20 <__ZNSt3__111char_traitsIcE4findB8ne180100EPKcmRS2_+0x50>
    8b20: f94007e8     	ldr	x8, [sp, #0x8]
    8b24: f81f83a8     	stur	x8, [x29, #-0x8]
    8b28: 14000001     	b	0x8b2c <__ZNSt3__111char_traitsIcE4findB8ne180100EPKcmRS2_+0x5c>
    8b2c: f85f83a0     	ldur	x0, [x29, #-0x8]
    8b30: a9437bfd     	ldp	x29, x30, [sp, #0x30]
    8b34: 910103ff     	add	sp, sp, #0x40
    8b38: d65f03c0     	ret
    8b3c: 94000000     	bl	0x8b3c <__ZNSt3__111char_traitsIcE4findB8ne180100EPKcmRS2_+0x6c>

0000000000008b40 <__ZNSt3__111char_traitsIcE7compareB8ne180100EPKcS3_m>:
    8b40: d100c3ff     	sub	sp, sp, #0x30
    8b44: a9027bfd     	stp	x29, x30, [sp, #0x20]
    8b48: 910083fd     	add	x29, sp, #0x20
    8b4c: f81f83a0     	stur	x0, [x29, #-0x8]
    8b50: f9000be1     	str	x1, [sp, #0x10]
    8b54: f90007e2     	str	x2, [sp, #0x8]
    8b58: f85f83a0     	ldur	x0, [x29, #-0x8]
    8b5c: f9400be1     	ldr	x1, [sp, #0x10]
    8b60: f94007e2     	ldr	x2, [sp, #0x8]
    8b64: 94000000     	bl	0x8b64 <__ZNSt3__111char_traitsIcE7compareB8ne180100EPKcS3_m+0x24>
    8b68: a9427bfd     	ldp	x29, x30, [sp, #0x20]
    8b6c: 9100c3ff     	add	sp, sp, #0x30
    8b70: d65f03c0     	ret

0000000000008b74 <__ZNSt3__118__constexpr_memchrB8ne180100IKccEEPT_S3_T0_m>:
    8b74: d100c3ff     	sub	sp, sp, #0x30
    8b78: a9027bfd     	stp	x29, x30, [sp, #0x20]
    8b7c: 910083fd     	add	x29, sp, #0x20
    8b80: f81f83a0     	stur	x0, [x29, #-0x8]
    8b84: 381f73a1     	sturb	w1, [x29, #-0x9]
    8b88: f90007e2     	str	x2, [sp, #0x8]
    8b8c: 39001fff     	strb	wzr, [sp, #0x7]
    8b90: 385f73a8     	ldurb	w8, [x29, #-0x9]
    8b94: 39001fe8     	strb	w8, [sp, #0x7]
    8b98: f85f83a0     	ldur	x0, [x29, #-0x8]
    8b9c: 39c01fe1     	ldrsb	w1, [sp, #0x7]
    8ba0: f94007e2     	ldr	x2, [sp, #0x8]
    8ba4: 94000000     	bl	0x8ba4 <__ZNSt3__118__constexpr_memchrB8ne180100IKccEEPT_S3_T0_m+0x30>
    8ba8: a9427bfd     	ldp	x29, x30, [sp, #0x20]
    8bac: 9100c3ff     	add	sp, sp, #0x30
    8bb0: d65f03c0     	ret

0000000000008bb4 <__ZNSt3__19allocatorIcEC1B8ne180100Ev>:
    8bb4: d10083ff     	sub	sp, sp, #0x20
    8bb8: a9017bfd     	stp	x29, x30, [sp, #0x10]
    8bbc: 910043fd     	add	x29, sp, #0x10
    8bc0: f90007e0     	str	x0, [sp, #0x8]
    8bc4: f94007e0     	ldr	x0, [sp, #0x8]
    8bc8: f90003e0     	str	x0, [sp]
    8bcc: 94000000     	bl	0x8bcc <__ZNSt3__19allocatorIcEC1B8ne180100Ev+0x18>
    8bd0: f94003e0     	ldr	x0, [sp]
    8bd4: a9417bfd     	ldp	x29, x30, [sp, #0x10]
    8bd8: 910083ff     	add	sp, sp, #0x20
    8bdc: d65f03c0     	ret

0000000000008be0 <__ZNKSt3__19basic_iosIcNS_11char_traitsIcEEE4failB8ne180100Ev>:
    8be0: d10083ff     	sub	sp, sp, #0x20
    8be4: a9017bfd     	stp	x29, x30, [sp, #0x10]
    8be8: 910043fd     	add	x29, sp, #0x10
    8bec: f90007e0     	str	x0, [sp, #0x8]
    8bf0: f94007e0     	ldr	x0, [sp, #0x8]
    8bf4: 94000000     	bl	0x8bf4 <__ZNKSt3__19basic_iosIcNS_11char_traitsIcEEE4failB8ne180100Ev+0x14>
    8bf8: 12000000     	and	w0, w0, #0x1
    8bfc: a9417bfd     	ldp	x29, x30, [sp, #0x10]
    8c00: 910083ff     	add	sp, sp, #0x20
    8c04: d65f03c0     	ret

0000000000008c08 <__ZNKSt3__18ios_base4failB8ne180100Ev>:
    8c08: d10043ff     	sub	sp, sp, #0x10
    8c0c: f90007e0     	str	x0, [sp, #0x8]
    8c10: f94007e8     	ldr	x8, [sp, #0x8]
    8c14: b9402108     	ldr	w8, [x8, #0x20]
    8c18: 528000a9     	mov	w9, #0x5                ; =5
    8c1c: 6a090108     	ands	w8, w8, w9
    8c20: 1a9f07e8     	cset	w8, ne
    8c24: 12000100     	and	w0, w8, #0x1
    8c28: 910043ff     	add	sp, sp, #0x10
    8c2c: d65f03c0     	ret

0000000000008c30 <__ZNKSt3__113basic_istreamIcNS_11char_traitsIcEEE6sentrycvbB8ne180100Ev>:
    8c30: d10043ff     	sub	sp, sp, #0x10
    8c34: f90007e0     	str	x0, [sp, #0x8]
    8c38: f94007e8     	ldr	x8, [sp, #0x8]
    8c3c: 39400108     	ldrb	w8, [x8]
    8c40: 12000100     	and	w0, w8, #0x1
    8c44: 910043ff     	add	sp, sp, #0x10
    8c48: d65f03c0     	ret

0000000000008c4c <__ZNSt3__112basic_stringIcNS_11char_traitsIcEENS_9allocatorIcEEE5clearB8ne180100Ev>:
    8c4c: d100c3ff     	sub	sp, sp, #0x30
    8c50: a9027bfd     	stp	x29, x30, [sp, #0x20]
    8c54: 910083fd     	add	x29, sp, #0x20
    8c58: f81f83a0     	stur	x0, [x29, #-0x8]
    8c5c: f85f83a0     	ldur	x0, [x29, #-0x8]
    8c60: f90003e0     	str	x0, [sp]
    8c64: 94000000     	bl	0x8c64 <__ZNSt3__112basic_stringIcNS_11char_traitsIcEENS_9allocatorIcEEE5clearB8ne180100Ev+0x18>
    8c68: aa0003e8     	mov	x8, x0
    8c6c: f94003e0     	ldr	x0, [sp]
    8c70: f9000be8     	str	x8, [sp, #0x10]
    8c74: 94000000     	bl	0x8c74 <__ZNSt3__112basic_stringIcNS_11char_traitsIcEENS_9allocatorIcEEE5clearB8ne180100Ev+0x28>
    8c78: 36000160     	tbz	w0, #0x0, 0x8ca4 <__ZNSt3__112basic_stringIcNS_11char_traitsIcEENS_9allocatorIcEEE5clearB8ne180100Ev+0x58>
    8c7c: 14000001     	b	0x8c80 <__ZNSt3__112basic_stringIcNS_11char_traitsIcEENS_9allocatorIcEEE5clearB8ne180100Ev+0x34>
    8c80: f94003e0     	ldr	x0, [sp]
    8c84: 94000000     	bl	0x8c84 <__ZNSt3__112basic_stringIcNS_11char_traitsIcEENS_9allocatorIcEEE5clearB8ne180100Ev+0x38>
    8c88: 91003fe1     	add	x1, sp, #0xf
    8c8c: 39003fff     	strb	wzr, [sp, #0xf]
    8c90: 94000000     	bl	0x8c90 <__ZNSt3__112basic_stringIcNS_11char_traitsIcEENS_9allocatorIcEEE5clearB8ne180100Ev+0x44>
    8c94: f94003e0     	ldr	x0, [sp]
    8c98: d2800001     	mov	x1, #0x0                ; =0
    8c9c: 94000000     	bl	0x8c9c <__ZNSt3__112basic_stringIcNS_11char_traitsIcEENS_9allocatorIcEEE5clearB8ne180100Ev+0x50>
    8ca0: 1400000a     	b	0x8cc8 <__ZNSt3__112basic_stringIcNS_11char_traitsIcEENS_9allocatorIcEEE5clearB8ne180100Ev+0x7c>
    8ca4: f94003e0     	ldr	x0, [sp]
    8ca8: 94000000     	bl	0x8ca8 <__ZNSt3__112basic_stringIcNS_11char_traitsIcEENS_9allocatorIcEEE5clearB8ne180100Ev+0x5c>
    8cac: 91003be1     	add	x1, sp, #0xe
    8cb0: 39003bff     	strb	wzr, [sp, #0xe]
    8cb4: 94000000     	bl	0x8cb4 <__ZNSt3__112basic_stringIcNS_11char_traitsIcEENS_9allocatorIcEEE5clearB8ne180100Ev+0x68>
    8cb8: f94003e0     	ldr	x0, [sp]
    8cbc: d2800001     	mov	x1, #0x0                ; =0
    8cc0: 94000000     	bl	0x8cc0 <__ZNSt3__112basic_stringIcNS_11char_traitsIcEENS_9allocatorIcEEE5clearB8ne180100Ev+0x74>
    8cc4: 14000001     	b	0x8cc8 <__ZNSt3__112basic_stringIcNS_11char_traitsIcEENS_9allocatorIcEEE5clearB8ne180100Ev+0x7c>
    8cc8: f94003e0     	ldr	x0, [sp]
    8ccc: f9400be1     	ldr	x1, [sp, #0x10]
    8cd0: 94000000     	bl	0x8cd0 <__ZNSt3__112basic_stringIcNS_11char_traitsIcEENS_9allocatorIcEEE5clearB8ne180100Ev+0x84>
    8cd4: a9427bfd     	ldp	x29, x30, [sp, #0x20]
    8cd8: 9100c3ff     	add	sp, sp, #0x30
    8cdc: d65f03c0     	ret

0000000000008ce0 <__ZNSt3__115basic_streambufIcNS_11char_traitsIcEEE5sgetcB8ne180100Ev>:
    8ce0: d100c3ff     	sub	sp, sp, #0x30
    8ce4: a9027bfd     	stp	x29, x30, [sp, #0x20]
    8ce8: 910083fd     	add	x29, sp, #0x20
    8cec: f9000be0     	str	x0, [sp, #0x10]
    8cf0: f9400be9     	ldr	x9, [sp, #0x10]
    8cf4: f90007e9     	str	x9, [sp, #0x8]
    8cf8: f9400d28     	ldr	x8, [x9, #0x18]
    8cfc: f9401129     	ldr	x9, [x9, #0x20]
    8d00: eb090108     	subs	x8, x8, x9
    8d04: 1a9f07e8     	cset	w8, ne
    8d08: 37000108     	tbnz	w8, #0x0, 0x8d28 <__ZNSt3__115basic_streambufIcNS_11char_traitsIcEEE5sgetcB8ne180100Ev+0x48>
    8d0c: 14000001     	b	0x8d10 <__ZNSt3__115basic_streambufIcNS_11char_traitsIcEEE5sgetcB8ne180100Ev+0x30>
    8d10: f94007e0     	ldr	x0, [sp, #0x8]
    8d14: f9400008     	ldr	x8, [x0]
    8d18: f9402508     	ldr	x8, [x8, #0x48]
    8d1c: d63f0100     	blr	x8
    8d20: b81fc3a0     	stur	w0, [x29, #-0x4]
    8d24: 14000007     	b	0x8d40 <__ZNSt3__115basic_streambufIcNS_11char_traitsIcEEE5sgetcB8ne180100Ev+0x60>
    8d28: f94007e8     	ldr	x8, [sp, #0x8]
    8d2c: f9400d08     	ldr	x8, [x8, #0x18]
    8d30: 39c00100     	ldrsb	w0, [x8]
    8d34: 94000000     	bl	0x8d34 <__ZNSt3__115basic_streambufIcNS_11char_traitsIcEEE5sgetcB8ne180100Ev+0x54>
    8d38: b81fc3a0     	stur	w0, [x29, #-0x4]
    8d3c: 14000001     	b	0x8d40 <__ZNSt3__115basic_streambufIcNS_11char_traitsIcEEE5sgetcB8ne180100Ev+0x60>
    8d40: b85fc3a0     	ldur	w0, [x29, #-0x4]
    8d44: a9427bfd     	ldp	x29, x30, [sp, #0x20]
    8d48: 9100c3ff     	add	sp, sp, #0x30
    8d4c: d65f03c0     	ret

0000000000008d50 <__ZNSt3__111char_traitsIcE12to_char_typeB8ne180100Ei>:
    8d50: d10043ff     	sub	sp, sp, #0x10
    8d54: b9000fe0     	str	w0, [sp, #0xc]
    8d58: b9400fe8     	ldr	w8, [sp, #0xc]
    8d5c: 13001d00     	sxtb	w0, w8
    8d60: 910043ff     	add	sp, sp, #0x10
    8d64: d65f03c0     	ret

0000000000008d68 <__ZNKSt3__15ctypeIcE2isB8ne180100Ejc>:
    8d68: d100c3ff     	sub	sp, sp, #0x30
    8d6c: a9027bfd     	stp	x29, x30, [sp, #0x20]
    8d70: 910083fd     	add	x29, sp, #0x20
    8d74: f81f83a0     	stur	x0, [x29, #-0x8]
    8d78: b81f43a1     	stur	w1, [x29, #-0xc]
    8d7c: 381f33a2     	sturb	w2, [x29, #-0xd]
    8d80: f85f83a8     	ldur	x8, [x29, #-0x8]
    8d84: f90007e8     	str	x8, [sp, #0x8]
    8d88: 38df33a0     	ldursb	w0, [x29, #-0xd]
    8d8c: 94000000     	bl	0x8d8c <__ZNKSt3__15ctypeIcE2isB8ne180100Ejc+0x24>
    8d90: 71000008     	subs	w8, w0, #0x0
    8d94: 1a9f17e8     	cset	w8, eq
    8d98: 37000168     	tbnz	w8, #0x0, 0x8dc4 <__ZNKSt3__15ctypeIcE2isB8ne180100Ejc+0x5c>
    8d9c: 14000001     	b	0x8da0 <__ZNKSt3__15ctypeIcE2isB8ne180100Ejc+0x38>
    8da0: f94007e8     	ldr	x8, [sp, #0x8]
    8da4: f9400908     	ldr	x8, [x8, #0x10]
    8da8: 389f33a9     	ldursb	x9, [x29, #-0xd]
    8dac: b8697908     	ldr	w8, [x8, x9, lsl #2]
    8db0: b85f43a9     	ldur	w9, [x29, #-0xc]
    8db4: 6a090108     	ands	w8, w8, w9
    8db8: 1a9f07e8     	cset	w8, ne
    8dbc: b90007e8     	str	w8, [sp, #0x4]
    8dc0: 14000004     	b	0x8dd0 <__ZNKSt3__15ctypeIcE2isB8ne180100Ejc+0x68>
    8dc4: 52800008     	mov	w8, #0x0                ; =0
    8dc8: b90007e8     	str	w8, [sp, #0x4]
    8dcc: 14000001     	b	0x8dd0 <__ZNKSt3__15ctypeIcE2isB8ne180100Ejc+0x68>
    8dd0: b94007e8     	ldr	w8, [sp, #0x4]
    8dd4: 12000100     	and	w0, w8, #0x1
    8dd8: a9427bfd     	ldp	x29, x30, [sp, #0x20]
    8ddc: 9100c3ff     	add	sp, sp, #0x30
    8de0: d65f03c0     	ret

0000000000008de4 <__ZNSt3__115basic_streambufIcNS_11char_traitsIcEEE6sbumpcB8ne180100Ev>:
    8de4: d100c3ff     	sub	sp, sp, #0x30
    8de8: a9027bfd     	stp	x29, x30, [sp, #0x20]
    8dec: 910083fd     	add	x29, sp, #0x20
    8df0: f9000be0     	str	x0, [sp, #0x10]
    8df4: f9400be9     	ldr	x9, [sp, #0x10]
    8df8: f90007e9     	str	x9, [sp, #0x8]
    8dfc: f9400d28     	ldr	x8, [x9, #0x18]
    8e00: f9401129     	ldr	x9, [x9, #0x20]
    8e04: eb090108     	subs	x8, x8, x9
    8e08: 1a9f07e8     	cset	w8, ne
    8e0c: 37000108     	tbnz	w8, #0x0, 0x8e2c <__ZNSt3__115basic_streambufIcNS_11char_traitsIcEEE6sbumpcB8ne180100Ev+0x48>
    8e10: 14000001     	b	0x8e14 <__ZNSt3__115basic_streambufIcNS_11char_traitsIcEEE6sbumpcB8ne180100Ev+0x30>
    8e14: f94007e0     	ldr	x0, [sp, #0x8]
    8e18: f9400008     	ldr	x8, [x0]
    8e1c: f9402908     	ldr	x8, [x8, #0x50]
    8e20: d63f0100     	blr	x8
    8e24: b81fc3a0     	stur	w0, [x29, #-0x4]
    8e28: 14000009     	b	0x8e4c <__ZNSt3__115basic_streambufIcNS_11char_traitsIcEEE6sbumpcB8ne180100Ev+0x68>
    8e2c: f94007ea     	ldr	x10, [sp, #0x8]
    8e30: f9400d48     	ldr	x8, [x10, #0x18]
    8e34: 91000509     	add	x9, x8, #0x1
    8e38: f9000d49     	str	x9, [x10, #0x18]
    8e3c: 39c00100     	ldrsb	w0, [x8]
    8e40: 94000000     	bl	0x8e40 <__ZNSt3__115basic_streambufIcNS_11char_traitsIcEEE6sbumpcB8ne180100Ev+0x5c>
    8e44: b81fc3a0     	stur	w0, [x29, #-0x4]
    8e48: 14000001     	b	0x8e4c <__ZNSt3__115basic_streambufIcNS_11char_traitsIcEEE6sbumpcB8ne180100Ev+0x68>
    8e4c: b85fc3a0     	ldur	w0, [x29, #-0x4]
    8e50: a9427bfd     	ldp	x29, x30, [sp, #0x20]
    8e54: 9100c3ff     	add	sp, sp, #0x30
    8e58: d65f03c0     	ret

0000000000008e5c <__ZNSt3__18ios_base18__setstate_nothrowB8ne180100Ej>:
    8e5c: d10083ff     	sub	sp, sp, #0x20
    8e60: f9000fe0     	str	x0, [sp, #0x18]
    8e64: b90017e1     	str	w1, [sp, #0x14]
    8e68: f9400fe8     	ldr	x8, [sp, #0x18]
    8e6c: f90007e8     	str	x8, [sp, #0x8]
    8e70: f9401508     	ldr	x8, [x8, #0x28]
    8e74: f1000108     	subs	x8, x8, #0x0
    8e78: 1a9f17e8     	cset	w8, eq
    8e7c: 37000108     	tbnz	w8, #0x0, 0x8e9c <__ZNSt3__18ios_base18__setstate_nothrowB8ne180100Ej+0x40>
    8e80: 14000001     	b	0x8e84 <__ZNSt3__18ios_base18__setstate_nothrowB8ne180100Ej+0x28>
    8e84: f94007e9     	ldr	x9, [sp, #0x8]
    8e88: b94017ea     	ldr	w10, [sp, #0x14]
    8e8c: b9402128     	ldr	w8, [x9, #0x20]
    8e90: 2a0a0108     	orr	w8, w8, w10
    8e94: b9002128     	str	w8, [x9, #0x20]
    8e98: 14000008     	b	0x8eb8 <__ZNSt3__18ios_base18__setstate_nothrowB8ne180100Ej+0x5c>
    8e9c: f94007e9     	ldr	x9, [sp, #0x8]
    8ea0: b94017e8     	ldr	w8, [sp, #0x14]
    8ea4: 3200010a     	orr	w10, w8, #0x1
    8ea8: b9402128     	ldr	w8, [x9, #0x20]
    8eac: 2a0a0108     	orr	w8, w8, w10
    8eb0: b9002128     	str	w8, [x9, #0x20]
    8eb4: 14000001     	b	0x8eb8 <__ZNSt3__18ios_base18__setstate_nothrowB8ne180100Ej+0x5c>
    8eb8: 910083ff     	add	sp, sp, #0x20
    8ebc: d65f03c0     	ret

0000000000008ec0 <__ZNKSt3__19basic_iosIcNS_11char_traitsIcEEE10exceptionsB8ne180100Ev>:
    8ec0: d10083ff     	sub	sp, sp, #0x20
    8ec4: a9017bfd     	stp	x29, x30, [sp, #0x10]
    8ec8: 910043fd     	add	x29, sp, #0x10
    8ecc: f90007e0     	str	x0, [sp, #0x8]
    8ed0: f94007e0     	ldr	x0, [sp, #0x8]
    8ed4: 94000000     	bl	0x8ed4 <__ZNKSt3__19basic_iosIcNS_11char_traitsIcEEE10exceptionsB8ne180100Ev+0x14>
    8ed8: a9417bfd     	ldp	x29, x30, [sp, #0x10]
    8edc: 910083ff     	add	sp, sp, #0x20
    8ee0: d65f03c0     	ret

0000000000008ee4 <__ZNKSt3__112basic_stringIcNS_11char_traitsIcEENS_9allocatorIcEEE17__annotate_shrinkB8ne180100Em>:
    8ee4: d10043ff     	sub	sp, sp, #0x10
    8ee8: f90007e0     	str	x0, [sp, #0x8]
    8eec: f90003e1     	str	x1, [sp]
    8ef0: 910043ff     	add	sp, sp, #0x10
    8ef4: d65f03c0     	ret

0000000000008ef8 <__ZNSt3__111char_traitsIcE11to_int_typeB8ne180100Ec>:
    8ef8: d10043ff     	sub	sp, sp, #0x10
    8efc: 39003fe0     	strb	w0, [sp, #0xf]
    8f00: 39403fe0     	ldrb	w0, [sp, #0xf]
    8f04: 910043ff     	add	sp, sp, #0x10
    8f08: d65f03c0     	ret

0000000000008f0c <__Z7isasciii>:
    8f0c: d10043ff     	sub	sp, sp, #0x10
    8f10: b9000fe0     	str	w0, [sp, #0xc]
    8f14: b9400fe8     	ldr	w8, [sp, #0xc]
    8f18: 12800fe9     	mov	w9, #-0x80              ; =-128
    8f1c: 6a090108     	ands	w8, w8, w9
    8f20: 1a9f17e8     	cset	w8, eq
    8f24: 12000100     	and	w0, w8, #0x1
    8f28: 910043ff     	add	sp, sp, #0x10
    8f2c: d65f03c0     	ret

0000000000008f30 <__ZNKSt3__18ios_base10exceptionsB8ne180100Ev>:
    8f30: d10043ff     	sub	sp, sp, #0x10
    8f34: f90007e0     	str	x0, [sp, #0x8]
    8f38: f94007e8     	ldr	x8, [sp, #0x8]
    8f3c: b9402500     	ldr	w0, [x8, #0x24]
    8f40: 910043ff     	add	sp, sp, #0x10
    8f44: d65f03c0     	ret
